
========================================================================

** ELF Header Information

    File Name: .\Objects\LCDs_Profiler.axf

    Machine class: ELFCLASS32 (32-bit)
    Data encoding: ELFDATA2LSB (Little endian)
    Header version: EV_CURRENT (Current version)
    Operating System ABI: none
    ABI Version: 0
    File Type: ET_EXEC (Executable) (2)
    Machine: EM_ARM (ARM)

    Image Entry point: 0x000000c1
    Flags: EF_ARM_HASENTRY + EF_ARM_ABI_FLOAT_SOFT (0x05000202)

    ARM ELF revision: 5 (ABI version 2)

    Conforms to Soft float procedure-call standard

    Built with
    Component: ARM Compiler 5.06 update 6 (build 750) Tool: armasm [4d35ec]
    Component: ARM Compiler 5.06 update 6 (build 750) Tool: armlink [4d35ed]

    Header size: 52 bytes (0x34)
    Program header entry size: 32 bytes (0x20)
    Section header entry size: 40 bytes (0x28)

    Program header entries: 1
    Section header entries: 16

    Program header offset: 415688 (0x000657c8)
    Section header offset: 415720 (0x000657e8)

    Section header string table index: 15

========================================================================

** Program header #0 (PT_LOAD) [PF_X + PF_W + PF_R + PF_ARM_ENTRY]
    Size : 31228 bytes (24360 bytes in file)
    Virtual address: 0x00000000 (Alignment 8)


========================================================================

** Section #1 'ER_IROM1' (SHT_PROGBITS) [SHF_ALLOC + SHF_EXECINSTR]
    Size   : 24164 bytes (alignment 4)
    Address: 0x00000000

    $d.realdata
    RESET
    __Vectors
        0x00000000:    20000b98    ...     DCD    536873880
        0x00000004:    000000d5    ....    DCD    213
        0x00000008:    000000e1    ....    DCD    225
        0x0000000c:    000000e3    ....    DCD    227
        0x00000010:    00000000    ....    DCD    0
        0x00000014:    00000000    ....    DCD    0
        0x00000018:    00000000    ....    DCD    0
        0x0000001c:    00000000    ....    DCD    0
        0x00000020:    00000000    ....    DCD    0
        0x00000024:    00000000    ....    DCD    0
        0x00000028:    00000000    ....    DCD    0
        0x0000002c:    000000e5    ....    DCD    229
        0x00000030:    00000000    ....    DCD    0
        0x00000034:    00000000    ....    DCD    0
        0x00000038:    000000e7    ....    DCD    231
        0x0000003c:    000000e9    ....    DCD    233
        0x00000040:    000000eb    ....    DCD    235
        0x00000044:    000000eb    ....    DCD    235
        0x00000048:    000000eb    ....    DCD    235
        0x0000004c:    000000eb    ....    DCD    235
        0x00000050:    000000eb    ....    DCD    235
        0x00000054:    000000eb    ....    DCD    235
        0x00000058:    000000eb    ....    DCD    235
        0x0000005c:    000000eb    ....    DCD    235
        0x00000060:    000000eb    ....    DCD    235
        0x00000064:    000000eb    ....    DCD    235
        0x00000068:    000000eb    ....    DCD    235
        0x0000006c:    000000eb    ....    DCD    235
        0x00000070:    000014a5    ....    DCD    5285
        0x00000074:    000000eb    ....    DCD    235
        0x00000078:    000000eb    ....    DCD    235
        0x0000007c:    000000eb    ....    DCD    235
        0x00000080:    000000eb    ....    DCD    235
        0x00000084:    00001495    ....    DCD    5269
        0x00000088:    000000eb    ....    DCD    235
        0x0000008c:    000000eb    ....    DCD    235
        0x00000090:    000000eb    ....    DCD    235
        0x00000094:    000000eb    ....    DCD    235
        0x00000098:    00000d4d    M...    DCD    3405
        0x0000009c:    000000eb    ....    DCD    235
        0x000000a0:    000000eb    ....    DCD    235
        0x000000a4:    000000eb    ....    DCD    235
        0x000000a8:    000000eb    ....    DCD    235
        0x000000ac:    000000eb    ....    DCD    235
        0x000000b0:    000000eb    ....    DCD    235
        0x000000b4:    000000eb    ....    DCD    235
        0x000000b8:    000000eb    ....    DCD    235
        0x000000bc:    000000eb    ....    DCD    235
    $t
    .ARM.Collect$$$$00000000
    .ARM.Collect$$$$00000001
    __Vectors_End
    __main
    _main_stk
        0x000000c0:    4803        .H      LDR      r0,__lit__00000000 ; [0xd0] = 0x20000b98
        0x000000c2:    4685        .F      MOV      sp,r0
    .ARM.Collect$$$$00000004
    _main_scatterload
        0x000000c4:    f000f830    ..0.    BL       __scatterload ; 0x128
    .ARM.Collect$$$$00000008
    .ARM.Collect$$$$0000000A
    .ARM.Collect$$$$0000000B
    __main_after_scatterload
    _main_clock
    _main_cpp_init
    _main_init
        0x000000c8:    4800        .H      LDR      r0,[pc,#0] ; [0xcc] = 0x2955
        0x000000ca:    4700        .G      BX       r0
    $d
        0x000000cc:    00002955    U)..    DCD    10581
    .ARM.Collect$$$$00002712
    __lit__00000000
    .ARM.Collect$$$$0000000D
    .ARM.Collect$$$$0000000F
    __rt_final_cpp
    __rt_final_exit
        0x000000d0:    20000b98    ...     DCD    536873880
    $t
    .text
    Reset_Handler
        0x000000d4:    b672        r.      CPSID    i
        0x000000d6:    4806        .H      LDR      r0,[pc,#24] ; [0xf0] = 0x13ad
        0x000000d8:    4780        .G      BLX      r0
        0x000000da:    b662        b.      CPSIE    i
        0x000000dc:    4805        .H      LDR      r0,[pc,#20] ; [0xf4] = 0xc1
        0x000000de:    4700        .G      BX       r0
    NMI_Handler
        0x000000e0:    e7fe        ..      B        NMI_Handler ; 0xe0
    HardFault_Handler
        0x000000e2:    e7fe        ..      B        HardFault_Handler ; 0xe2
    SVC_Handler
        0x000000e4:    e7fe        ..      B        SVC_Handler ; 0xe4
    PendSV_Handler
        0x000000e6:    e7fe        ..      B        PendSV_Handler ; 0xe6
    SysTick_Handler
        0x000000e8:    e7fe        ..      B        SysTick_Handler ; 0xe8
    ADC0_IRQHandler
    CMP0_IRQHandler
    DAC0_IRQHandler
    DMA0_IRQHandler
    DMA1_IRQHandler
    DMA2_IRQHandler
    DMA3_IRQHandler
    DefaultISR
    FTFA_IRQHandler
    I2C0_IRQHandler
    I2C1_IRQHandler
    LLWU_IRQHandler
    LPTMR0_IRQHandler
    LVD_LVW_IRQHandler
    MCG_IRQHandler
    PORTA_IRQHandler
    PORTD_IRQHandler
    RTC_IRQHandler
    RTC_Seconds_IRQHandler
    Reserved20_IRQHandler
    Reserved39_IRQHandler
    Reserved45_IRQHandler
    SPI0_IRQHandler
    SPI1_IRQHandler
    TPM1_IRQHandler
    TPM2_IRQHandler
    TSI0_IRQHandler
    UART1_IRQHandler
    UART2_IRQHandler
    USB0_IRQHandler
        0x000000ea:    4803        .H      LDR      r0,[pc,#12] ; [0xf8] = 0xeb
        0x000000ec:    4700        .G      BX       r0
    $d
        0x000000ee:    0000        ..      DCW    0
        0x000000f0:    000013ad    ....    DCD    5037
        0x000000f4:    000000c1    ....    DCD    193
        0x000000f8:    000000eb    ....    DCD    235
    $t
    .text
    __aeabi_uidiv
    __aeabi_uidivmod
        0x000000fc:    b530        0.      PUSH     {r4,r5,lr}
        0x000000fe:    460b        .F      MOV      r3,r1
        0x00000100:    4601        .F      MOV      r1,r0
        0x00000102:    2000        .       MOVS     r0,#0
        0x00000104:    2220         "      MOVS     r2,#0x20
        0x00000106:    2401        .$      MOVS     r4,#1
        0x00000108:    e009        ..      B        0x11e ; __aeabi_uidiv + 34
        0x0000010a:    460d        .F      MOV      r5,r1
        0x0000010c:    40d5        .@      LSRS     r5,r5,r2
        0x0000010e:    429d        .B      CMP      r5,r3
        0x00000110:    d305        ..      BCC      0x11e ; __aeabi_uidiv + 34
        0x00000112:    461d        .F      MOV      r5,r3
        0x00000114:    4095        .@      LSLS     r5,r5,r2
        0x00000116:    1b49        I.      SUBS     r1,r1,r5
        0x00000118:    4625        %F      MOV      r5,r4
        0x0000011a:    4095        .@      LSLS     r5,r5,r2
        0x0000011c:    1940        @.      ADDS     r0,r0,r5
        0x0000011e:    4615        .F      MOV      r5,r2
        0x00000120:    1e52        R.      SUBS     r2,r2,#1
        0x00000122:    2d00        .-      CMP      r5,#0
        0x00000124:    dcf1        ..      BGT      0x10a ; __aeabi_uidiv + 14
        0x00000126:    bd30        0.      POP      {r4,r5,pc}
    .text
    __scatterload
    __scatterload_rt2
        0x00000128:    4c06        .L      LDR      r4,[pc,#24] ; [0x144] = 0x5e44
        0x0000012a:    2501        .%      MOVS     r5,#1
        0x0000012c:    4e06        .N      LDR      r6,[pc,#24] ; [0x148] = 0x5e64
        0x0000012e:    e005        ..      B        0x13c ; __scatterload + 20
        0x00000130:    68e3        .h      LDR      r3,[r4,#0xc]
        0x00000132:    cc07        ..      LDM      r4!,{r0-r2}
        0x00000134:    432b        +C      ORRS     r3,r3,r5
        0x00000136:    3c0c        .<      SUBS     r4,r4,#0xc
        0x00000138:    4798        .G      BLX      r3
        0x0000013a:    3410        .4      ADDS     r4,r4,#0x10
        0x0000013c:    42b4        .B      CMP      r4,r6
        0x0000013e:    d3f7        ..      BCC      0x130 ; __scatterload + 8
        0x00000140:    f7ffffc2    ....    BL       __main_after_scatterload ; 0xc8
    $d
        0x00000144:    00005e44    D^..    DCD    24132
        0x00000148:    00005e64    d^..    DCD    24164
    $t
    i.Control_RGB_LEDs
    Control_RGB_LEDs
        0x0000014c:    b510        ..      PUSH     {r4,lr}
        0x0000014e:    2401        .$      MOVS     r4,#1
        0x00000150:    04a4        ..      LSLS     r4,r4,#18
        0x00000152:    4b0b        .K      LDR      r3,[pc,#44] ; [0x180] = 0x400ff040
        0x00000154:    2800        .(      CMP      r0,#0
        0x00000156:    d001        ..      BEQ      0x15c ; Control_RGB_LEDs + 16
        0x00000158:    609c        .`      STR      r4,[r3,#8]
        0x0000015a:    e000        ..      B        0x15e ; Control_RGB_LEDs + 18
        0x0000015c:    605c        \`      STR      r4,[r3,#4]
        0x0000015e:    2001        .       MOVS     r0,#1
        0x00000160:    04c0        ..      LSLS     r0,r0,#19
        0x00000162:    2900        .)      CMP      r1,#0
        0x00000164:    d001        ..      BEQ      0x16a ; Control_RGB_LEDs + 30
        0x00000166:    6098        .`      STR      r0,[r3,#8]
        0x00000168:    e000        ..      B        0x16c ; Control_RGB_LEDs + 32
        0x0000016a:    6058        X`      STR      r0,[r3,#4]
        0x0000016c:    4904        .I      LDR      r1,[pc,#16] ; [0x180] = 0x400ff040
        0x0000016e:    2002        .       MOVS     r0,#2
        0x00000170:    3180        .1      ADDS     r1,r1,#0x80
        0x00000172:    2a00        .*      CMP      r2,#0
        0x00000174:    d001        ..      BEQ      0x17a ; Control_RGB_LEDs + 46
        0x00000176:    6088        .`      STR      r0,[r1,#8]
        0x00000178:    bd10        ..      POP      {r4,pc}
        0x0000017a:    6048        H`      STR      r0,[r1,#4]
        0x0000017c:    bd10        ..      POP      {r4,pc}
    $d
        0x0000017e:    0000        ..      DCW    0
        0x00000180:    400ff040    @..@    DCD    1074786368
    $t
    i.Delay
    Delay
        0x00000184:    4904        .I      LDR      r1,[pc,#16] ; [0x198] = 0x2710
        0x00000186:    b508        ..      PUSH     {r3,lr}
        0x00000188:    4348        HC      MULS     r0,r1,r0
        0x0000018a:    9000        ..      STR      r0,[sp,#0]
        0x0000018c:    2800        .(      CMP      r0,#0
        0x0000018e:    d001        ..      BEQ      0x194 ; Delay + 16
        0x00000190:    1e40        @.      SUBS     r0,r0,#1
        0x00000192:    e7fa        ..      B        0x18a ; Delay + 6
        0x00000194:    bd08        ..      POP      {r3,pc}
    $d
        0x00000196:    0000        ..      DCW    0
        0x00000198:    00002710    .'..    DCD    10000
    $t
    i.Disable_Profiling
    Disable_Profiling
        0x0000019c:    4901        .I      LDR      r1,[pc,#4] ; [0x1a4] = 0x1ffff000
        0x0000019e:    2000        .       MOVS     r0,#0
        0x000001a0:    7008        .p      STRB     r0,[r1,#0]
        0x000001a2:    4770        pG      BX       lr
    $d
        0x000001a4:    1ffff000    ....    DCD    536866816
    $t
    i.Display_Profile
    Display_Profile
        0x000001a8:    b5f0        ..      PUSH     {r4-r7,lr}
        0x000001aa:    b091        ..      SUB      sp,sp,#0x44
        0x000001ac:    2600        .&      MOVS     r6,#0
        0x000001ae:    4f2f        /O      LDR      r7,[pc,#188] ; [0x26c] = 0x1ffff018
        0x000001b0:    9602        ..      STR      r6,[sp,#8]
        0x000001b2:    9603        ..      STR      r6,[sp,#0xc]
        0x000001b4:    7839        9x      LDRB     r1,[r7,#0]
        0x000001b6:    20f0        .       MOVS     r0,#0xf0
        0x000001b8:    f7ffffa0    ....    BL       __aeabi_uidiv ; 0xfc
        0x000001bc:    4a2c        ,J      LDR      r2,[pc,#176] ; [0x270] = 0x1ffff000
        0x000001be:    68d3        .h      LDR      r3,[r2,#0xc]
        0x000001c0:    4601        .F      MOV      r1,r0
        0x000001c2:    a22c        ,.      ADR      r2,{pc}+0xb2 ; 0x274
        0x000001c4:    a806        ..      ADD      r0,sp,#0x18
        0x000001c6:    f001f99f    ....    BL       __0snprintf$6 ; 0x1508
        0x000001ca:    4931        1I      LDR      r1,[pc,#196] ; [0x290] = 0x1ffff0b1
        0x000001cc:    4831        1H      LDR      r0,[pc,#196] ; [0x294] = 0x1ffff0ab
        0x000001ce:    f000fd63    ..c.    BL       LCD_Text_Set_Colors ; 0xc98
        0x000001d2:    a906        ..      ADD      r1,sp,#0x18
        0x000001d4:    a802        ..      ADD      r0,sp,#8
        0x000001d6:    f000fd23    ..#.    BL       LCD_Text_PrintStr ; 0xc20
        0x000001da:    492f        /I      LDR      r1,[pc,#188] ; [0x298] = 0x1ffff0a8
        0x000001dc:    482f        /H      LDR      r0,[pc,#188] ; [0x29c] = 0x1ffff0ae
        0x000001de:    f000fd5b    ..[.    BL       LCD_Text_Set_Colors ; 0xc98
        0x000001e2:    482f        /H      LDR      r0,[pc,#188] ; [0x2a0] = 0x4db8
        0x000001e4:    2401        .$      MOVS     r4,#1
        0x000001e6:    6801        .h      LDR      r1,[r0,#0]
        0x000001e8:    2500        .%      MOVS     r5,#0
        0x000001ea:    2900        .)      CMP      r1,#0
        0x000001ec:    d936        6.      BLS      0x25c ; Display_Profile + 180
        0x000001ee:    482d        -H      LDR      r0,[pc,#180] ; [0x2a4] = 0x1ffff4c4
        0x000001f0:    00a9        ..      LSLS     r1,r5,#2
        0x000001f2:    5847        GX      LDR      r7,[r0,r1]
        0x000001f4:    482c        ,H      LDR      r0,[pc,#176] ; [0x2a8] = 0x1ffff2dc
        0x000001f6:    00be        ..      LSLS     r6,r7,#2
        0x000001f8:    5980        .Y      LDR      r0,[r0,r6]
        0x000001fa:    2800        .(      CMP      r0,#0
        0x000001fc:    d029        ).      BEQ      0x252 ; Display_Profile + 170
        0x000001fe:    2000        .       MOVS     r0,#0
        0x00000200:    9002        ..      STR      r0,[sp,#8]
        0x00000202:    482a        *H      LDR      r0,[pc,#168] ; [0x2ac] = 0x1ffff019
        0x00000204:    7800        .x      LDRB     r0,[r0,#0]
        0x00000206:    4360        `C      MULS     r0,r4,r0
        0x00000208:    9003        ..      STR      r0,[sp,#0xc]
        0x0000020a:    4818        .H      LDR      r0,[pc,#96] ; [0x26c] = 0x1ffff018
        0x0000020c:    7801        .x      LDRB     r1,[r0,#0]
        0x0000020e:    20f0        .       MOVS     r0,#0xf0
        0x00000210:    f7ffff74    ..t.    BL       __aeabi_uidiv ; 0xfc
        0x00000214:    4926        &I      LDR      r1,[pc,#152] ; [0x2b0] = 0x3e78
        0x00000216:    017a        z.      LSLS     r2,r7,#5
        0x00000218:    1851        Q.      ADDS     r1,r2,r1
        0x0000021a:    3108        .1      ADDS     r1,r1,#8
        0x0000021c:    9100        ..      STR      r1,[sp,#0]
        0x0000021e:    4922        "I      LDR      r1,[pc,#136] ; [0x2a8] = 0x1ffff2dc
        0x00000220:    598b        .Y      LDR      r3,[r1,r6]
        0x00000222:    4601        .F      MOV      r1,r0
        0x00000224:    a223        #.      ADR      r2,{pc}+0x90 ; 0x2b4
        0x00000226:    a806        ..      ADD      r0,sp,#0x18
        0x00000228:    f001f96e    ..n.    BL       __0snprintf$6 ; 0x1508
        0x0000022c:    a906        ..      ADD      r1,sp,#0x18
        0x0000022e:    a802        ..      ADD      r0,sp,#8
        0x00000230:    f000fcf6    ....    BL       LCD_Text_PrintStr ; 0xc20
        0x00000234:    481d        .H      LDR      r0,[pc,#116] ; [0x2ac] = 0x1ffff019
        0x00000236:    1c64        d.      ADDS     r4,r4,#1
        0x00000238:    7801        .x      LDRB     r1,[r0,#0]
        0x0000023a:    20ff        .       MOVS     r0,#0xff
        0x0000023c:    3041        A0      ADDS     r0,r0,#0x41
        0x0000023e:    f7ffff5d    ..].    BL       __aeabi_uidiv ; 0xfc
        0x00000242:    42a0        .B      CMP      r0,r4
        0x00000244:    d805        ..      BHI      0x252 ; Display_Profile + 170
        0x00000246:    a80e        ..      ADD      r0,sp,#0x38
        0x00000248:    f000fb1e    ....    BL       LCD_TS_Blocking_Read ; 0x888
        0x0000024c:    2400        .$      MOVS     r4,#0
        0x0000024e:    f000f8cd    ....    BL       LCD_Erase ; 0x3ec
        0x00000252:    4813        .H      LDR      r0,[pc,#76] ; [0x2a0] = 0x4db8
        0x00000254:    1c6d        m.      ADDS     r5,r5,#1
        0x00000256:    6800        .h      LDR      r0,[r0,#0]
        0x00000258:    4285        .B      CMP      r5,r0
        0x0000025a:    d3c8        ..      BCC      0x1ee ; Display_Profile + 70
        0x0000025c:    a80e        ..      ADD      r0,sp,#0x38
        0x0000025e:    f000fb13    ....    BL       LCD_TS_Blocking_Read ; 0x888
        0x00000262:    f000f8c3    ....    BL       LCD_Erase ; 0x3ec
        0x00000266:    b011        ..      ADD      sp,sp,#0x44
        0x00000268:    bdf0        ..      POP      {r4-r7,pc}
    $d
        0x0000026a:    0000        ..      DCW    0
        0x0000026c:    1ffff018    ....    DCD    536866840
        0x00000270:    1ffff000    ....    DCD    536866816
        0x00000274:    756c3425    %4lu    DCD    1970025509
        0x00000278:    746f5420     Tot    DCD    1953453088
        0x0000027c:    53206c61    al S    DCD    1394633825
        0x00000280:    6c706d61    ampl    DCD    1819307361
        0x00000284:    20207365    es      DCD    538997605
        0x00000288:    20202020            DCD    538976288
        0x0000028c:    00002020      ..    DCD    8224
        0x00000290:    1ffff0b1    ....    DCD    536866993
        0x00000294:    1ffff0ab    ....    DCD    536866987
        0x00000298:    1ffff0a8    ....    DCD    536866984
        0x0000029c:    1ffff0ae    ....    DCD    536866990
        0x000002a0:    00004db8    .M..    DCD    19896
        0x000002a4:    1ffff4c4    ....    DCD    536868036
        0x000002a8:    1ffff2dc    ....    DCD    536867548
        0x000002ac:    1ffff019    ....    DCD    536866841
        0x000002b0:    00003e78    x>..    DCD    15992
        0x000002b4:    20753425    %4u     DCD    544551973
        0x000002b8:    00007325    %s..    DCD    29477
    $t
    i.Enable_Profiling
    Enable_Profiling
        0x000002bc:    4901        .I      LDR      r1,[pc,#4] ; [0x2c4] = 0x1ffff000
        0x000002be:    2001        .       MOVS     r0,#1
        0x000002c0:    7008        .p      STRB     r0,[r1,#0]
        0x000002c2:    4770        pG      BX       lr
    $d
        0x000002c4:    1ffff000    ....    DCD    536866816
    $t
    i.Init_ADC
    Init_ADC
        0x000002c8:    4805        .H      LDR      r0,[pc,#20] ; [0x2e0] = 0x40048000
        0x000002ca:    6bc1        .k      LDR      r1,[r0,#0x3c]
        0x000002cc:    2201        ."      MOVS     r2,#1
        0x000002ce:    06d2        ..      LSLS     r2,r2,#27
        0x000002d0:    4311        .C      ORRS     r1,r1,r2
        0x000002d2:    63c1        .c      STR      r1,[r0,#0x3c]
        0x000002d4:    4803        .H      LDR      r0,[pc,#12] ; [0x2e4] = 0x4003b000
        0x000002d6:    219c        .!      MOVS     r1,#0x9c
        0x000002d8:    6081        .`      STR      r1,[r0,#8]
        0x000002da:    2100        .!      MOVS     r1,#0
        0x000002dc:    6201        .b      STR      r1,[r0,#0x20]
        0x000002de:    4770        pG      BX       lr
    $d
        0x000002e0:    40048000    ...@    DCD    1074036736
        0x000002e4:    4003b000    ...@    DCD    1073983488
    $t
    i.Init_Debug_Signals
    Init_Debug_Signals
        0x000002e8:    481c        .H      LDR      r0,[pc,#112] ; [0x35c] = 0x40048000
        0x000002ea:    6b81        .k      LDR      r1,[r0,#0x38]
        0x000002ec:    1502        ..      ASRS     r2,r0,#20
        0x000002ee:    4311        .C      ORRS     r1,r1,r2
        0x000002f0:    6381        .c      STR      r1,[r0,#0x38]
        0x000002f2:    481b        .H      LDR      r0,[pc,#108] ; [0x360] = 0x4004a000
        0x000002f4:    6842        Bh      LDR      r2,[r0,#4]
        0x000002f6:    2107        .!      MOVS     r1,#7
        0x000002f8:    0209        ..      LSLS     r1,r1,#8
        0x000002fa:    438a        .C      BICS     r2,r2,r1
        0x000002fc:    6042        B`      STR      r2,[r0,#4]
        0x000002fe:    6843        Ch      LDR      r3,[r0,#4]
        0x00000300:    1582        ..      ASRS     r2,r0,#22
        0x00000302:    4313        .C      ORRS     r3,r3,r2
        0x00000304:    6043        C`      STR      r3,[r0,#4]
        0x00000306:    6883        .h      LDR      r3,[r0,#8]
        0x00000308:    438b        .C      BICS     r3,r3,r1
        0x0000030a:    6083        .`      STR      r3,[r0,#8]
        0x0000030c:    6883        .h      LDR      r3,[r0,#8]
        0x0000030e:    4313        .C      ORRS     r3,r3,r2
        0x00000310:    6083        .`      STR      r3,[r0,#8]
        0x00000312:    68c3        .h      LDR      r3,[r0,#0xc]
        0x00000314:    438b        .C      BICS     r3,r3,r1
        0x00000316:    60c3        .`      STR      r3,[r0,#0xc]
        0x00000318:    68c3        .h      LDR      r3,[r0,#0xc]
        0x0000031a:    4313        .C      ORRS     r3,r3,r2
        0x0000031c:    60c3        .`      STR      r3,[r0,#0xc]
        0x0000031e:    6a03        .j      LDR      r3,[r0,#0x20]
        0x00000320:    438b        .C      BICS     r3,r3,r1
        0x00000322:    6203        .b      STR      r3,[r0,#0x20]
        0x00000324:    6a03        .j      LDR      r3,[r0,#0x20]
        0x00000326:    4313        .C      ORRS     r3,r3,r2
        0x00000328:    6203        .b      STR      r3,[r0,#0x20]
        0x0000032a:    6a43        Cj      LDR      r3,[r0,#0x24]
        0x0000032c:    438b        .C      BICS     r3,r3,r1
        0x0000032e:    6243        Cb      STR      r3,[r0,#0x24]
        0x00000330:    6a43        Cj      LDR      r3,[r0,#0x24]
        0x00000332:    4313        .C      ORRS     r3,r3,r2
        0x00000334:    6243        Cb      STR      r3,[r0,#0x24]
        0x00000336:    6a83        .j      LDR      r3,[r0,#0x28]
        0x00000338:    438b        .C      BICS     r3,r3,r1
        0x0000033a:    6283        .b      STR      r3,[r0,#0x28]
        0x0000033c:    6a83        .j      LDR      r3,[r0,#0x28]
        0x0000033e:    4313        .C      ORRS     r3,r3,r2
        0x00000340:    6283        .b      STR      r3,[r0,#0x28]
        0x00000342:    6ac3        .j      LDR      r3,[r0,#0x2c]
        0x00000344:    438b        .C      BICS     r3,r3,r1
        0x00000346:    62c3        .b      STR      r3,[r0,#0x2c]
        0x00000348:    6ac1        .j      LDR      r1,[r0,#0x2c]
        0x0000034a:    4311        .C      ORRS     r1,r1,r2
        0x0000034c:    62c1        .b      STR      r1,[r0,#0x2c]
        0x0000034e:    4805        .H      LDR      r0,[pc,#20] ; [0x364] = 0x400ff040
        0x00000350:    6942        Bi      LDR      r2,[r0,#0x14]
        0x00000352:    4905        .I      LDR      r1,[pc,#20] ; [0x368] = 0xf0e
        0x00000354:    430a        .C      ORRS     r2,r2,r1
        0x00000356:    6142        Ba      STR      r2,[r0,#0x14]
        0x00000358:    6081        .`      STR      r1,[r0,#8]
        0x0000035a:    4770        pG      BX       lr
    $d
        0x0000035c:    40048000    ...@    DCD    1074036736
        0x00000360:    4004a000    ...@    DCD    1074044928
        0x00000364:    400ff040    @..@    DCD    1074786368
        0x00000368:    00000f0e    ....    DCD    3854
    $t
    i.Init_Profiling
    Init_Profiling
        0x0000036c:    b510        ..      PUSH     {r4,lr}
        0x0000036e:    4913        .I      LDR      r1,[pc,#76] ; [0x3bc] = 0x1ffff000
        0x00000370:    2000        .       MOVS     r0,#0
        0x00000372:    60c8        .`      STR      r0,[r1,#0xc]
        0x00000374:    6088        .`      STR      r0,[r1,#8]
        0x00000376:    6048        H`      STR      r0,[r1,#4]
        0x00000378:    4c11        .L      LDR      r4,[pc,#68] ; [0x3c0] = 0x4db8
        0x0000037a:    6821        !h      LDR      r1,[r4,#0]
        0x0000037c:    2900        .)      CMP      r1,#0
        0x0000037e:    d010        ..      BEQ      0x3a2 ; Init_Profiling + 54
        0x00000380:    7821        !x      LDRB     r1,[r4,#0]
        0x00000382:    4a10        .J      LDR      r2,[pc,#64] ; [0x3c4] = 0x1ffff2dc
        0x00000384:    07c9        ..      LSLS     r1,r1,#31
        0x00000386:    0fc9        ..      LSRS     r1,r1,#31
        0x00000388:    d000        ..      BEQ      0x38c ; Init_Profiling + 32
        0x0000038a:    6010        .`      STR      r0,[r2,#0]
        0x0000038c:    6823        #h      LDR      r3,[r4,#0]
        0x0000038e:    4299        .B      CMP      r1,r3
        0x00000390:    d207        ..      BCS      0x3a2 ; Init_Profiling + 54
        0x00000392:    008b        ..      LSLS     r3,r1,#2
        0x00000394:    50d0        .P      STR      r0,[r2,r3]
        0x00000396:    189b        ..      ADDS     r3,r3,r2
        0x00000398:    6058        X`      STR      r0,[r3,#4]
        0x0000039a:    6823        #h      LDR      r3,[r4,#0]
        0x0000039c:    1c89        ..      ADDS     r1,r1,#2
        0x0000039e:    4299        .B      CMP      r1,r3
        0x000003a0:    d3f7        ..      BCC      0x392 ; Init_Profiling + 38
        0x000003a2:    4809        .H      LDR      r0,[pc,#36] ; [0x3c8] = 0x1ffff0b8
        0x000003a4:    217d        }!      MOVS     r1,#0x7d
        0x000003a6:    0109        ..      LSLS     r1,r1,#4
        0x000003a8:    6800        .h      LDR      r0,[r0,#0]
        0x000003aa:    f7fffea7    ....    BL       __aeabi_uidiv ; 0xfc
        0x000003ae:    1e40        @.      SUBS     r0,r0,#1
        0x000003b0:    f000fce8    ....    BL       PIT_Init ; 0xd84
        0x000003b4:    f000fd18    ....    BL       PIT_Start ; 0xde8
        0x000003b8:    bd10        ..      POP      {r4,pc}
    $d
        0x000003ba:    0000        ..      DCW    0
        0x000003bc:    1ffff000    ....    DCD    536866816
        0x000003c0:    00004db8    .M..    DCD    19896
        0x000003c4:    1ffff2dc    ....    DCD    536867548
        0x000003c8:    1ffff0b8    ....    DCD    536867000
    $t
    i.LCD_24S_Write_Command
    LCD_24S_Write_Command
        0x000003cc:    2201        ."      MOVS     r2,#1
        0x000003ce:    4906        .I      LDR      r1,[pc,#24] ; [0x3e8] = 0x400ff080
        0x000003d0:    0312        ..      LSLS     r2,r2,#12
        0x000003d2:    608a        .`      STR      r2,[r1,#8]
        0x000003d4:    23ff        .#      MOVS     r3,#0xff
        0x000003d6:    00db        ..      LSLS     r3,r3,#3
        0x000003d8:    608b        .`      STR      r3,[r1,#8]
        0x000003da:    00c0        ..      LSLS     r0,r0,#3
        0x000003dc:    6048        H`      STR      r0,[r1,#4]
        0x000003de:    0050        P.      LSLS     r0,r2,#1
        0x000003e0:    6088        .`      STR      r0,[r1,#8]
        0x000003e2:    6048        H`      STR      r0,[r1,#4]
        0x000003e4:    604a        J`      STR      r2,[r1,#4]
        0x000003e6:    4770        pG      BX       lr
    $d
        0x000003e8:    400ff080    ...@    DCD    1074786432
    $t
    i.LCD_Erase
    LCD_Erase
        0x000003ec:    b510        ..      PUSH     {r4,lr}
        0x000003ee:    4802        .H      LDR      r0,[pc,#8] ; [0x3f8] = 0x1ffff01d
        0x000003f0:    f000f87c    ..|.    BL       LCD_Fill_Buffer ; 0x4ec
        0x000003f4:    bd10        ..      POP      {r4,pc}
    $d
        0x000003f6:    0000        ..      DCW    0
        0x000003f8:    1ffff01d    ....    DCD    536866845
    $t
    i.__scatterload_null
    __scatterload_null
        0x000003fc:    4770        pG      BX       lr
        0x000003fe:    0000        ..      MOVS     r0,r0
    $d
    .ARM.__at_0x400
        0x00000400:    ffffffff    ....    DCD    4294967295
        0x00000404:    ffffffff    ....    DCD    4294967295
        0x00000408:    ffffffff    ....    DCD    4294967295
        0x0000040c:    fffffffe    ....    DCD    4294967294
    $t
    i.Init_RGB_LEDs
    Init_RGB_LEDs
        0x00000410:    4814        .H      LDR      r0,[pc,#80] ; [0x464] = 0x40048000
        0x00000412:    6b81        .k      LDR      r1,[r0,#0x38]
        0x00000414:    2205        ."      MOVS     r2,#5
        0x00000416:    0292        ..      LSLS     r2,r2,#10
        0x00000418:    4311        .C      ORRS     r1,r1,r2
        0x0000041a:    6381        .c      STR      r1,[r0,#0x38]
        0x0000041c:    4812        .H      LDR      r0,[pc,#72] ; [0x468] = 0x4004a040
        0x0000041e:    6882        .h      LDR      r2,[r0,#8]
        0x00000420:    2107        .!      MOVS     r1,#7
        0x00000422:    0209        ..      LSLS     r1,r1,#8
        0x00000424:    438a        .C      BICS     r2,r2,r1
        0x00000426:    6082        .`      STR      r2,[r0,#8]
        0x00000428:    6883        .h      LDR      r3,[r0,#8]
        0x0000042a:    1582        ..      ASRS     r2,r0,#22
        0x0000042c:    4313        .C      ORRS     r3,r3,r2
        0x0000042e:    6083        .`      STR      r3,[r0,#8]
        0x00000430:    68c3        .h      LDR      r3,[r0,#0xc]
        0x00000432:    438b        .C      BICS     r3,r3,r1
        0x00000434:    60c3        .`      STR      r3,[r0,#0xc]
        0x00000436:    68c3        .h      LDR      r3,[r0,#0xc]
        0x00000438:    4313        .C      ORRS     r3,r3,r2
        0x0000043a:    60c3        .`      STR      r3,[r0,#0xc]
        0x0000043c:    480b        .H      LDR      r0,[pc,#44] ; [0x46c] = 0x4004c000
        0x0000043e:    6843        Ch      LDR      r3,[r0,#4]
        0x00000440:    438b        .C      BICS     r3,r3,r1
        0x00000442:    6043        C`      STR      r3,[r0,#4]
        0x00000444:    6841        Ah      LDR      r1,[r0,#4]
        0x00000446:    4311        .C      ORRS     r1,r1,r2
        0x00000448:    6041        A`      STR      r1,[r0,#4]
        0x0000044a:    4809        .H      LDR      r0,[pc,#36] ; [0x470] = 0x400ff040
        0x0000044c:    6941        Ai      LDR      r1,[r0,#0x14]
        0x0000044e:    2203        ."      MOVS     r2,#3
        0x00000450:    0492        ..      LSLS     r2,r2,#18
        0x00000452:    4311        .C      ORRS     r1,r1,r2
        0x00000454:    6141        Aa      STR      r1,[r0,#0x14]
        0x00000456:    4806        .H      LDR      r0,[pc,#24] ; [0x470] = 0x400ff040
        0x00000458:    3080        .0      ADDS     r0,r0,#0x80
        0x0000045a:    6941        Ai      LDR      r1,[r0,#0x14]
        0x0000045c:    2202        ."      MOVS     r2,#2
        0x0000045e:    4311        .C      ORRS     r1,r1,r2
        0x00000460:    6141        Aa      STR      r1,[r0,#0x14]
        0x00000462:    4770        pG      BX       lr
    $d
        0x00000464:    40048000    ...@    DCD    1074036736
        0x00000468:    4004a040    @..@    DCD    1074044992
        0x0000046c:    4004c000    ...@    DCD    1074053120
        0x00000470:    400ff040    @..@    DCD    1074786368
    $t
    i.LCD_24S_Write_Data
    LCD_24S_Write_Data
        0x00000474:    22ff        ."      MOVS     r2,#0xff
        0x00000476:    4905        .I      LDR      r1,[pc,#20] ; [0x48c] = 0x400ff080
        0x00000478:    00d2        ..      LSLS     r2,r2,#3
        0x0000047a:    608a        .`      STR      r2,[r1,#8]
        0x0000047c:    00c0        ..      LSLS     r0,r0,#3
        0x0000047e:    6048        H`      STR      r0,[r1,#4]
        0x00000480:    2001        .       MOVS     r0,#1
        0x00000482:    0340        @.      LSLS     r0,r0,#13
        0x00000484:    6088        .`      STR      r0,[r1,#8]
        0x00000486:    6048        H`      STR      r0,[r1,#4]
        0x00000488:    4770        pG      BX       lr
    $d
        0x0000048a:    0000        ..      DCW    0
        0x0000048c:    400ff080    ...@    DCD    1074786432
    $t
    i.LCD_Controller_Init
    LCD_Controller_Init
        0x00000490:    b5f8        ..      PUSH     {r3-r7,lr}
        0x00000492:    4606        .F      MOV      r6,r0
        0x00000494:    2500        .%      MOVS     r5,#0
        0x00000496:    2001        .       MOVS     r0,#1
        0x00000498:    4c13        .L      LDR      r4,[pc,#76] ; [0x4e8] = 0x400ff080
        0x0000049a:    0400        ..      LSLS     r0,r0,#16
        0x0000049c:    6060        ``      STR      r0,[r4,#4]
        0x0000049e:    10c0        ..      ASRS     r0,r0,#3
        0x000004a0:    60a0        .`      STR      r0,[r4,#8]
        0x000004a2:    0107        ..      LSLS     r7,r0,#4
        0x000004a4:    60a7        .`      STR      r7,[r4,#8]
        0x000004a6:    2064        d       MOVS     r0,#0x64
        0x000004a8:    f7fffe6c    ..l.    BL       Delay ; 0x184
        0x000004ac:    6067        g`      STR      r7,[r4,#4]
        0x000004ae:    2064        d       MOVS     r0,#0x64
        0x000004b0:    f7fffe68    ..h.    BL       Delay ; 0x184
        0x000004b4:    1178        x.      ASRS     r0,r7,#5
        0x000004b6:    6060        ``      STR      r0,[r4,#4]
        0x000004b8:    0068        h.      LSLS     r0,r5,#1
        0x000004ba:    5c31        1\      LDRB     r1,[r6,r0]
        0x000004bc:    2900        .)      CMP      r1,#0
        0x000004be:    d00f        ..      BEQ      0x4e0 ; LCD_Controller_Init + 80
        0x000004c0:    2901        .)      CMP      r1,#1
        0x000004c2:    d002        ..      BEQ      0x4ca ; LCD_Controller_Init + 58
        0x000004c4:    2902        .)      CMP      r1,#2
        0x000004c6:    d109        ..      BNE      0x4dc ; LCD_Controller_Init + 76
        0x000004c8:    e004        ..      B        0x4d4 ; LCD_Controller_Init + 68
        0x000004ca:    1980        ..      ADDS     r0,r0,r6
        0x000004cc:    7840        @x      LDRB     r0,[r0,#1]
        0x000004ce:    f7ffff7d    ..}.    BL       LCD_24S_Write_Command ; 0x3cc
        0x000004d2:    e003        ..      B        0x4dc ; LCD_Controller_Init + 76
        0x000004d4:    1980        ..      ADDS     r0,r0,r6
        0x000004d6:    7840        @x      LDRB     r0,[r0,#1]
        0x000004d8:    f7ffffcc    ....    BL       LCD_24S_Write_Data ; 0x474
        0x000004dc:    1c6d        m.      ADDS     r5,r5,#1
        0x000004de:    e7eb        ..      B        0x4b8 ; LCD_Controller_Init + 40
        0x000004e0:    200a        .       MOVS     r0,#0xa
        0x000004e2:    f7fffe4f    ..O.    BL       Delay ; 0x184
        0x000004e6:    bdf8        ..      POP      {r3-r7,pc}
    $d
        0x000004e8:    400ff080    ...@    DCD    1074786432
    $t
    i.LCD_Fill_Buffer
    LCD_Fill_Buffer
        0x000004ec:    b5f8        ..      PUSH     {r3-r7,lr}
        0x000004ee:    4604        .F      MOV      r4,r0
        0x000004f0:    202a        *       MOVS     r0,#0x2a
        0x000004f2:    f7ffff6b    ..k.    BL       LCD_24S_Write_Command ; 0x3cc
        0x000004f6:    2000        .       MOVS     r0,#0
        0x000004f8:    f7ffffbc    ....    BL       LCD_24S_Write_Data ; 0x474
        0x000004fc:    2000        .       MOVS     r0,#0
        0x000004fe:    f7ffffb9    ....    BL       LCD_24S_Write_Data ; 0x474
        0x00000502:    2000        .       MOVS     r0,#0
        0x00000504:    f7ffffb6    ....    BL       LCD_24S_Write_Data ; 0x474
        0x00000508:    20ef        .       MOVS     r0,#0xef
        0x0000050a:    f7ffffb3    ....    BL       LCD_24S_Write_Data ; 0x474
        0x0000050e:    202b        +       MOVS     r0,#0x2b
        0x00000510:    f7ffff5c    ..\.    BL       LCD_24S_Write_Command ; 0x3cc
        0x00000514:    2000        .       MOVS     r0,#0
        0x00000516:    f7ffffad    ....    BL       LCD_24S_Write_Data ; 0x474
        0x0000051a:    2000        .       MOVS     r0,#0
        0x0000051c:    f7ffffaa    ....    BL       LCD_24S_Write_Data ; 0x474
        0x00000520:    2001        .       MOVS     r0,#1
        0x00000522:    f7ffffa7    ....    BL       LCD_24S_Write_Data ; 0x474
        0x00000526:    203f        ?       MOVS     r0,#0x3f
        0x00000528:    f7ffffa4    ....    BL       LCD_24S_Write_Data ; 0x474
        0x0000052c:    7820         x      LDRB     r0,[r4,#0]
        0x0000052e:    08c1        ..      LSRS     r1,r0,#3
        0x00000530:    7860        `x      LDRB     r0,[r4,#1]
        0x00000532:    00c9        ..      LSLS     r1,r1,#3
        0x00000534:    0942        B.      LSRS     r2,r0,#5
        0x00000536:    4311        .C      ORRS     r1,r1,r2
        0x00000538:    9100        ..      STR      r1,[sp,#0]
        0x0000053a:    211c        .!      MOVS     r1,#0x1c
        0x0000053c:    4008        .@      ANDS     r0,r0,r1
        0x0000053e:    00c6        ..      LSLS     r6,r0,#3
        0x00000540:    78a0        .x      LDRB     r0,[r4,#2]
        0x00000542:    08c0        ..      LSRS     r0,r0,#3
        0x00000544:    4306        .C      ORRS     r6,r6,r0
        0x00000546:    202c        ,       MOVS     r0,#0x2c
        0x00000548:    f7ffff40    ..@.    BL       LCD_24S_Write_Command ; 0x3cc
        0x0000054c:    2500        .%      MOVS     r5,#0
        0x0000054e:    27ff        .'      MOVS     r7,#0xff
        0x00000550:    3741        A7      ADDS     r7,r7,#0x41
        0x00000552:    2400        .$      MOVS     r4,#0
        0x00000554:    9800        ..      LDR      r0,[sp,#0]
        0x00000556:    f7ffff8d    ....    BL       LCD_24S_Write_Data ; 0x474
        0x0000055a:    4630        0F      MOV      r0,r6
        0x0000055c:    f7ffff8a    ....    BL       LCD_24S_Write_Data ; 0x474
        0x00000560:    1c64        d.      ADDS     r4,r4,#1
        0x00000562:    2cf0        .,      CMP      r4,#0xf0
        0x00000564:    d3f6        ..      BCC      0x554 ; LCD_Fill_Buffer + 104
        0x00000566:    1c6d        m.      ADDS     r5,r5,#1
        0x00000568:    42bd        .B      CMP      r5,r7
        0x0000056a:    d3f2        ..      BCC      0x552 ; LCD_Fill_Buffer + 102
        0x0000056c:    bdf8        ..      POP      {r3-r7,pc}
        0x0000056e:    0000        ..      MOVS     r0,r0
    i.LCD_GPIO_Init
    LCD_GPIO_Init
        0x00000570:    b5f0        ..      PUSH     {r4-r7,lr}
        0x00000572:    482a        *H      LDR      r0,[pc,#168] ; [0x61c] = 0x40048000
        0x00000574:    6b81        .k      LDR      r1,[r0,#0x38]
        0x00000576:    2205        ."      MOVS     r2,#5
        0x00000578:    02d2        ..      LSLS     r2,r2,#11
        0x0000057a:    4311        .C      ORRS     r1,r1,r2
        0x0000057c:    6381        .c      STR      r1,[r0,#0x38]
        0x0000057e:    4a28        (J      LDR      r2,[pc,#160] ; [0x620] = 0x4004b000
        0x00000580:    2607        .&      MOVS     r6,#7
        0x00000582:    0236        6.      LSLS     r6,r6,#8
        0x00000584:    2003        .       MOVS     r0,#3
        0x00000586:    1593        ..      ASRS     r3,r2,#22
        0x00000588:    4926        &I      LDR      r1,[pc,#152] ; [0x624] = 0x400ff080
        0x0000058a:    2701        .'      MOVS     r7,#1
        0x0000058c:    0084        ..      LSLS     r4,r0,#2
        0x0000058e:    18a4        ..      ADDS     r4,r4,r2
        0x00000590:    6825        %h      LDR      r5,[r4,#0]
        0x00000592:    43b5        .C      BICS     r5,r5,r6
        0x00000594:    6025        %`      STR      r5,[r4,#0]
        0x00000596:    6825        %h      LDR      r5,[r4,#0]
        0x00000598:    431d        .C      ORRS     r5,r5,r3
        0x0000059a:    6025        %`      STR      r5,[r4,#0]
        0x0000059c:    694d        Mi      LDR      r5,[r1,#0x14]
        0x0000059e:    463c        <F      MOV      r4,r7
        0x000005a0:    4084        .@      LSLS     r4,r4,r0
        0x000005a2:    4325        %C      ORRS     r5,r5,r4
        0x000005a4:    614d        Ma      STR      r5,[r1,#0x14]
        0x000005a6:    1c40        @.      ADDS     r0,r0,#1
        0x000005a8:    280a        .(      CMP      r0,#0xa
        0x000005aa:    d9ef        ..      BLS      0x58c ; LCD_GPIO_Init + 28
        0x000005ac:    6b10        .k      LDR      r0,[r2,#0x30]
        0x000005ae:    43b0        .C      BICS     r0,r0,r6
        0x000005b0:    6310        .c      STR      r0,[r2,#0x30]
        0x000005b2:    6b10        .k      LDR      r0,[r2,#0x30]
        0x000005b4:    4318        .C      ORRS     r0,r0,r3
        0x000005b6:    6310        .c      STR      r0,[r2,#0x30]
        0x000005b8:    6b50        Pk      LDR      r0,[r2,#0x34]
        0x000005ba:    43b0        .C      BICS     r0,r0,r6
        0x000005bc:    6350        Pc      STR      r0,[r2,#0x34]
        0x000005be:    6b50        Pk      LDR      r0,[r2,#0x34]
        0x000005c0:    4318        .C      ORRS     r0,r0,r3
        0x000005c2:    6350        Pc      STR      r0,[r2,#0x34]
        0x000005c4:    4816        .H      LDR      r0,[pc,#88] ; [0x620] = 0x4004b000
        0x000005c6:    3040        @0      ADDS     r0,r0,#0x40
        0x000005c8:    6802        .h      LDR      r2,[r0,#0]
        0x000005ca:    43b2        .C      BICS     r2,r2,r6
        0x000005cc:    6002        .`      STR      r2,[r0,#0]
        0x000005ce:    6802        .h      LDR      r2,[r0,#0]
        0x000005d0:    431a        .C      ORRS     r2,r2,r3
        0x000005d2:    6002        .`      STR      r2,[r0,#0]
        0x000005d4:    6842        Bh      LDR      r2,[r0,#4]
        0x000005d6:    43b2        .C      BICS     r2,r2,r6
        0x000005d8:    6042        B`      STR      r2,[r0,#4]
        0x000005da:    6842        Bh      LDR      r2,[r0,#4]
        0x000005dc:    431a        .C      ORRS     r2,r2,r3
        0x000005de:    6042        B`      STR      r2,[r0,#4]
        0x000005e0:    694a        Ji      LDR      r2,[r1,#0x14]
        0x000005e2:    2001        .       MOVS     r0,#1
        0x000005e4:    0300        ..      LSLS     r0,r0,#12
        0x000005e6:    4302        .C      ORRS     r2,r2,r0
        0x000005e8:    614a        Ja      STR      r2,[r1,#0x14]
        0x000005ea:    694b        Ki      LDR      r3,[r1,#0x14]
        0x000005ec:    0042        B.      LSLS     r2,r0,#1
        0x000005ee:    4313        .C      ORRS     r3,r3,r2
        0x000005f0:    614b        Ka      STR      r3,[r1,#0x14]
        0x000005f2:    694c        Li      LDR      r4,[r1,#0x14]
        0x000005f4:    0103        ..      LSLS     r3,r0,#4
        0x000005f6:    431c        .C      ORRS     r4,r4,r3
        0x000005f8:    614c        La      STR      r4,[r1,#0x14]
        0x000005fa:    694d        Mi      LDR      r5,[r1,#0x14]
        0x000005fc:    0144        D.      LSLS     r4,r0,#5
        0x000005fe:    4325        %C      ORRS     r5,r5,r4
        0x00000600:    614d        Ma      STR      r5,[r1,#0x14]
        0x00000602:    680d        .h      LDR      r5,[r1,#0]
        0x00000604:    4305        .C      ORRS     r5,r5,r0
        0x00000606:    600d        .`      STR      r5,[r1,#0]
        0x00000608:    6808        .h      LDR      r0,[r1,#0]
        0x0000060a:    4310        .C      ORRS     r0,r0,r2
        0x0000060c:    6008        .`      STR      r0,[r1,#0]
        0x0000060e:    6808        .h      LDR      r0,[r1,#0]
        0x00000610:    4318        .C      ORRS     r0,r0,r3
        0x00000612:    6008        .`      STR      r0,[r1,#0]
        0x00000614:    6808        .h      LDR      r0,[r1,#0]
        0x00000616:    4320         C      ORRS     r0,r0,r4
        0x00000618:    6008        .`      STR      r0,[r1,#0]
        0x0000061a:    bdf0        ..      POP      {r4-r7,pc}
    $d
        0x0000061c:    40048000    ...@    DCD    1074036736
        0x00000620:    4004b000    ...@    DCD    1074049024
        0x00000624:    400ff080    ...@    DCD    1074786432
    $t
    i.LCD_Init
    LCD_Init
        0x00000628:    b510        ..      PUSH     {r4,lr}
        0x0000062a:    f7ffffa1    ....    BL       LCD_GPIO_Init ; 0x570
        0x0000062e:    f000f93d    ..=.    BL       LCD_TS_Init ; 0x8ac
        0x00000632:    4811        .H      LDR      r0,[pc,#68] ; [0x678] = 0x40048000
        0x00000634:    6b81        .k      LDR      r1,[r0,#0x38]
        0x00000636:    1542        B.      ASRS     r2,r0,#21
        0x00000638:    4311        .C      ORRS     r1,r1,r2
        0x0000063a:    6381        .c      STR      r1,[r0,#0x38]
        0x0000063c:    4810        .H      LDR      r0,[pc,#64] ; [0x680] = 0x1ffff0b8
        0x0000063e:    490f        .I      LDR      r1,[pc,#60] ; [0x67c] = 0x9c40
        0x00000640:    6800        .h      LDR      r0,[r0,#0]
        0x00000642:    f7fffd5b    ..[.    BL       __aeabi_uidiv ; 0xfc
        0x00000646:    2103        .!      MOVS     r1,#3
        0x00000648:    0389        ..      LSLS     r1,r1,#14
        0x0000064a:    4341        AC      MULS     r1,r0,r1
        0x0000064c:    0c0b        ..      LSRS     r3,r1,#16
        0x0000064e:    b282        ..      UXTH     r2,r0
        0x00000650:    2100        .!      MOVS     r1,#0
        0x00000652:    480c        .H      LDR      r0,[pc,#48] ; [0x684] = 0x40039000
        0x00000654:    f000fbd0    ....    BL       PWM_Init ; 0xdf8
        0x00000658:    480b        .H      LDR      r0,[pc,#44] ; [0x688] = 0x40049000
        0x0000065a:    6b01        .k      LDR      r1,[r0,#0x30]
        0x0000065c:    2207        ."      MOVS     r2,#7
        0x0000065e:    0212        ..      LSLS     r2,r2,#8
        0x00000660:    4011        .@      ANDS     r1,r1,r2
        0x00000662:    6301        .c      STR      r1,[r0,#0x30]
        0x00000664:    6b01        .k      LDR      r1,[r0,#0x30]
        0x00000666:    2203        ."      MOVS     r2,#3
        0x00000668:    0212        ..      LSLS     r2,r2,#8
        0x0000066a:    4311        .C      ORRS     r1,r1,r2
        0x0000066c:    6301        .c      STR      r1,[r0,#0x30]
        0x0000066e:    4807        .H      LDR      r0,[pc,#28] ; [0x68c] = 0x5cb3
        0x00000670:    f7ffff0e    ....    BL       LCD_Controller_Init ; 0x490
        0x00000674:    bd10        ..      POP      {r4,pc}
    $d
        0x00000676:    0000        ..      DCW    0
        0x00000678:    40048000    ...@    DCD    1074036736
        0x0000067c:    00009c40    @...    DCD    40000
        0x00000680:    1ffff0b8    ....    DCD    536867000
        0x00000684:    40039000    ...@    DCD    1073975296
        0x00000688:    40049000    ...@    DCD    1074040832
        0x0000068c:    00005cb3    .\..    DCD    23731
    $t
    i.LCD_JPEG
    LCD_JPEG
        0x00000690:    b5f0        ..      PUSH     {r4-r7,lr}
        0x00000692:    b091        ..      SUB      sp,sp,#0x44
        0x00000694:    4924        $I      LDR      r1,[pc,#144] ; [0x728] = 0x1ffff02c
        0x00000696:    2600        .&      MOVS     r6,#0
        0x00000698:    600e        .`      STR      r6,[r1,#0]
        0x0000069a:    a124        $.      ADR      r1,{pc}+0x92 ; 0x72c
        0x0000069c:    a808        ..      ADD      r0,sp,#0x20
        0x0000069e:    f002fac9    ....    BL       pf_opendir ; 0x2c34
        0x000006a2:    2400        .$      MOVS     r4,#0
        0x000006a4:    2800        .(      CMP      r0,#0
        0x000006a6:    d00a        ..      BEQ      0x6be ; LCD_JPEG + 46
        0x000006a8:    2100        .!      MOVS     r1,#0
        0x000006aa:    a221        !.      ADR      r2,{pc}+0x86 ; 0x730
        0x000006ac:    4608        .F      MOV      r0,r1
        0x000006ae:    f000fad3    ....    BL       LCD_Text_PrintStr_RC ; 0xc58
        0x000006b2:    2100        .!      MOVS     r1,#0
        0x000006b4:    a222        ".      ADR      r2,{pc}+0x8c ; 0x740
        0x000006b6:    4608        .F      MOV      r0,r1
        0x000006b8:    f000face    ....    BL       LCD_Text_PrintStr_RC ; 0xc58
        0x000006bc:    e7fe        ..      B        0x6bc ; LCD_JPEG + 44
        0x000006be:    ad04        ..      ADD      r5,sp,#0x10
        0x000006c0:    af10        ..      ADD      r7,sp,#0x40
        0x000006c2:    3501        .5      ADDS     r5,#1
        0x000006c4:    a902        ..      ADD      r1,sp,#8
        0x000006c6:    a808        ..      ADD      r0,sp,#0x20
        0x000006c8:    f002fb44    ..D.    BL       pf_readdir ; 0x2d54
        0x000006cc:    2800        .(      CMP      r0,#0
        0x000006ce:    d120         .      BNE      0x712 ; LCD_JPEG + 130
        0x000006d0:    4668        hF      MOV      r0,sp
        0x000006d2:    7c40        @|      LDRB     r0,[r0,#0x11]
        0x000006d4:    2800        .(      CMP      r0,#0
        0x000006d6:    d01c        ..      BEQ      0x712 ; LCD_JPEG + 130
        0x000006d8:    4668        hF      MOV      r0,sp
        0x000006da:    7c00        .|      LDRB     r0,[r0,#0x10]
        0x000006dc:    06c0        ..      LSLS     r0,r0,#27
        0x000006de:    d4f1        ..      BMI      0x6c4 ; LCD_JPEG + 52
        0x000006e0:    f7fffe84    ....    BL       LCD_Erase ; 0x3ec
        0x000006e4:    ab0f        ..      ADD      r3,sp,#0x3c
        0x000006e6:    aa0e        ..      ADD      r2,sp,#0x38
        0x000006e8:    a90d        ..      ADD      r1,sp,#0x34
        0x000006ea:    4628        (F      MOV      r0,r5
        0x000006ec:    9700        ..      STR      r7,[sp,#0]
        0x000006ee:    9601        ..      STR      r6,[sp,#4]
        0x000006f0:    f002fbec    ....    BL       pjpeg_load_from_file ; 0x2ecc
        0x000006f4:    2800        .(      CMP      r0,#0
        0x000006f6:    d00a        ..      BEQ      0x70e ; LCD_JPEG + 126
        0x000006f8:    2100        .!      MOVS     r1,#0
        0x000006fa:    a215        ..      ADR      r2,{pc}+0x56 ; 0x750
        0x000006fc:    4608        .F      MOV      r0,r1
        0x000006fe:    f000faab    ....    BL       LCD_Text_PrintStr_RC ; 0xc58
        0x00000702:    a219        ..      ADR      r2,{pc}+0x66 ; 0x768
        0x00000704:    2100        .!      MOVS     r1,#0
        0x00000706:    2001        .       MOVS     r0,#1
        0x00000708:    f000faa6    ....    BL       LCD_Text_PrintStr_RC ; 0xc58
        0x0000070c:    e7fe        ..      B        0x70c ; LCD_JPEG + 124
        0x0000070e:    1c64        d.      ADDS     r4,r4,#1
        0x00000710:    e7d8        ..      B        0x6c4 ; LCD_JPEG + 52
        0x00000712:    2c00        .,      CMP      r4,#0
        0x00000714:    d104        ..      BNE      0x720 ; LCD_JPEG + 144
        0x00000716:    2100        .!      MOVS     r1,#0
        0x00000718:    a215        ..      ADR      r2,{pc}+0x58 ; 0x770
        0x0000071a:    4608        .F      MOV      r0,r1
        0x0000071c:    f000fa9c    ....    BL       LCD_Text_PrintStr_RC ; 0xc58
        0x00000720:    2000        .       MOVS     r0,#0
        0x00000722:    b011        ..      ADD      sp,sp,#0x44
        0x00000724:    bdf0        ..      POP      {r4-r7,pc}
    $d
        0x00000726:    0000        ..      DCW    0
        0x00000728:    1ffff02c    ,...    DCD    536866860
        0x0000072c:    00000000    ....    DCD    0
        0x00000730:    6c756f43    Coul    DCD    1819635523
        0x00000734:    74276e64    dn't    DCD    1948741220
        0x00000738:    65706f20     ope    DCD    1701867296
        0x0000073c:    0000006e    n...    DCD    110
        0x00000740:    746f6f72    root    DCD    1953460082
        0x00000744:    72696420     dir    DCD    1919509536
        0x00000748:    6f746365    ecto    DCD    1869898597
        0x0000074c:    00007972    ry..    DCD    31090
        0x00000750:    65706a70    pjpe    DCD    1701866096
        0x00000754:    6f6c5f67    g_lo    DCD    1869373287
        0x00000758:    665f6461    ad_f    DCD    1717527649
        0x0000075c:    5f6d6f72    rom_    DCD    1601007474
        0x00000760:    656c6966    file    DCD    1701603686
        0x00000764:    00000020     ...    DCD    32
        0x00000768:    6c696166    fail    DCD    1818845542
        0x0000076c:    00006465    ed..    DCD    25701
        0x00000770:    4a206f4e    No J    DCD    1243639630
        0x00000774:    73474550    PEGs    DCD    1934050640
        0x00000778:    756f4620     Fou    DCD    1970226720
        0x0000077c:    0021646e    nd!.    DCD    2188398
    $t
    i.LCD_Plot_Pixel
    LCD_Plot_Pixel
        0x00000780:    b570        p.      PUSH     {r4-r6,lr}
        0x00000782:    4605        .F      MOV      r5,r0
        0x00000784:    460c        .F      MOV      r4,r1
        0x00000786:    202a        *       MOVS     r0,#0x2a
        0x00000788:    f7fffe20    .. .    BL       LCD_24S_Write_Command ; 0x3cc
        0x0000078c:    2000        .       MOVS     r0,#0
        0x0000078e:    f7fffe71    ..q.    BL       LCD_24S_Write_Data ; 0x474
        0x00000792:    7828        (x      LDRB     r0,[r5,#0]
        0x00000794:    f7fffe6e    ..n.    BL       LCD_24S_Write_Data ; 0x474
        0x00000798:    2000        .       MOVS     r0,#0
        0x0000079a:    f7fffe6b    ..k.    BL       LCD_24S_Write_Data ; 0x474
        0x0000079e:    20ef        .       MOVS     r0,#0xef
        0x000007a0:    f7fffe68    ..h.    BL       LCD_24S_Write_Data ; 0x474
        0x000007a4:    202b        +       MOVS     r0,#0x2b
        0x000007a6:    f7fffe11    ....    BL       LCD_24S_Write_Command ; 0x3cc
        0x000007aa:    88a8        ..      LDRH     r0,[r5,#4]
        0x000007ac:    0400        ..      LSLS     r0,r0,#16
        0x000007ae:    0e00        ..      LSRS     r0,r0,#24
        0x000007b0:    f7fffe60    ..`.    BL       LCD_24S_Write_Data ; 0x474
        0x000007b4:    7928        (y      LDRB     r0,[r5,#4]
        0x000007b6:    f7fffe5d    ..].    BL       LCD_24S_Write_Data ; 0x474
        0x000007ba:    2001        .       MOVS     r0,#1
        0x000007bc:    f7fffe5a    ..Z.    BL       LCD_24S_Write_Data ; 0x474
        0x000007c0:    203f        ?       MOVS     r0,#0x3f
        0x000007c2:    f7fffe57    ..W.    BL       LCD_24S_Write_Data ; 0x474
        0x000007c6:    7820         x      LDRB     r0,[r4,#0]
        0x000007c8:    08c6        ..      LSRS     r6,r0,#3
        0x000007ca:    7860        `x      LDRB     r0,[r4,#1]
        0x000007cc:    00f6        ..      LSLS     r6,r6,#3
        0x000007ce:    0941        A.      LSRS     r1,r0,#5
        0x000007d0:    430e        .C      ORRS     r6,r6,r1
        0x000007d2:    211c        .!      MOVS     r1,#0x1c
        0x000007d4:    4008        .@      ANDS     r0,r0,r1
        0x000007d6:    00c5        ..      LSLS     r5,r0,#3
        0x000007d8:    78a0        .x      LDRB     r0,[r4,#2]
        0x000007da:    08c0        ..      LSRS     r0,r0,#3
        0x000007dc:    4305        .C      ORRS     r5,r5,r0
        0x000007de:    202c        ,       MOVS     r0,#0x2c
        0x000007e0:    f7fffdf4    ....    BL       LCD_24S_Write_Command ; 0x3cc
        0x000007e4:    4630        0F      MOV      r0,r6
        0x000007e6:    f7fffe45    ..E.    BL       LCD_24S_Write_Data ; 0x474
        0x000007ea:    4628        (F      MOV      r0,r5
        0x000007ec:    f7fffe42    ..B.    BL       LCD_24S_Write_Data ; 0x474
        0x000007f0:    bd70        p.      POP      {r4-r6,pc}
    i.LCD_Start_Rectangle
    LCD_Start_Rectangle
        0x000007f2:    b5f8        ..      PUSH     {r3-r7,lr}
        0x000007f4:    6803        .h      LDR      r3,[r0,#0]
        0x000007f6:    680a        .h      LDR      r2,[r1,#0]
        0x000007f8:    4293        .B      CMP      r3,r2
        0x000007fa:    d201        ..      BCS      0x800 ; LCD_Start_Rectangle + 14
        0x000007fc:    461c        .F      MOV      r4,r3
        0x000007fe:    e000        ..      B        0x802 ; LCD_Start_Rectangle + 16
        0x00000800:    4614        .F      MOV      r4,r2
        0x00000802:    b2a6        ..      UXTH     r6,r4
        0x00000804:    4293        .B      CMP      r3,r2
        0x00000806:    d900        ..      BLS      0x80a ; LCD_Start_Rectangle + 24
        0x00000808:    461a        .F      MOV      r2,r3
        0x0000080a:    6840        @h      LDR      r0,[r0,#4]
        0x0000080c:    6849        Ih      LDR      r1,[r1,#4]
        0x0000080e:    b294        ..      UXTH     r4,r2
        0x00000810:    4288        .B      CMP      r0,r1
        0x00000812:    d201        ..      BCS      0x818 ; LCD_Start_Rectangle + 38
        0x00000814:    4602        .F      MOV      r2,r0
        0x00000816:    e000        ..      B        0x81a ; LCD_Start_Rectangle + 40
        0x00000818:    460a        .F      MOV      r2,r1
        0x0000081a:    b295        ..      UXTH     r5,r2
        0x0000081c:    4288        .B      CMP      r0,r1
        0x0000081e:    d800        ..      BHI      0x822 ; LCD_Start_Rectangle + 48
        0x00000820:    4608        .F      MOV      r0,r1
        0x00000822:    b287        ..      UXTH     r7,r0
        0x00000824:    2cef        .,      CMP      r4,#0xef
        0x00000826:    d300        ..      BCC      0x82a ; LCD_Start_Rectangle + 56
        0x00000828:    24ef        .$      MOVS     r4,#0xef
        0x0000082a:    20ff        .       MOVS     r0,#0xff
        0x0000082c:    3040        @0      ADDS     r0,r0,#0x40
        0x0000082e:    4287        .B      CMP      r7,r0
        0x00000830:    d300        ..      BCC      0x834 ; LCD_Start_Rectangle + 66
        0x00000832:    4607        .F      MOV      r7,r0
        0x00000834:    1ba0        ..      SUBS     r0,r4,r6
        0x00000836:    1b79        y.      SUBS     r1,r7,r5
        0x00000838:    1c40        @.      ADDS     r0,r0,#1
        0x0000083a:    1c49        I.      ADDS     r1,r1,#1
        0x0000083c:    4348        HC      MULS     r0,r1,r0
        0x0000083e:    9000        ..      STR      r0,[sp,#0]
        0x00000840:    d021        !.      BEQ      0x886 ; LCD_Start_Rectangle + 148
        0x00000842:    202a        *       MOVS     r0,#0x2a
        0x00000844:    f7fffdc2    ....    BL       LCD_24S_Write_Command ; 0x3cc
        0x00000848:    0a30        0.      LSRS     r0,r6,#8
        0x0000084a:    f7fffe13    ....    BL       LCD_24S_Write_Data ; 0x474
        0x0000084e:    b2f0        ..      UXTB     r0,r6
        0x00000850:    f7fffe10    ....    BL       LCD_24S_Write_Data ; 0x474
        0x00000854:    0a20         .      LSRS     r0,r4,#8
        0x00000856:    f7fffe0d    ....    BL       LCD_24S_Write_Data ; 0x474
        0x0000085a:    b2e0        ..      UXTB     r0,r4
        0x0000085c:    f7fffe0a    ....    BL       LCD_24S_Write_Data ; 0x474
        0x00000860:    202b        +       MOVS     r0,#0x2b
        0x00000862:    f7fffdb3    ....    BL       LCD_24S_Write_Command ; 0x3cc
        0x00000866:    0a28        (.      LSRS     r0,r5,#8
        0x00000868:    f7fffe04    ....    BL       LCD_24S_Write_Data ; 0x474
        0x0000086c:    b2e8        ..      UXTB     r0,r5
        0x0000086e:    f7fffe01    ....    BL       LCD_24S_Write_Data ; 0x474
        0x00000872:    0a38        8.      LSRS     r0,r7,#8
        0x00000874:    f7fffdfe    ....    BL       LCD_24S_Write_Data ; 0x474
        0x00000878:    b2f8        ..      UXTB     r0,r7
        0x0000087a:    f7fffdfb    ....    BL       LCD_24S_Write_Data ; 0x474
        0x0000087e:    202c        ,       MOVS     r0,#0x2c
        0x00000880:    f7fffda4    ....    BL       LCD_24S_Write_Command ; 0x3cc
        0x00000884:    9800        ..      LDR      r0,[sp,#0]
        0x00000886:    bdf8        ..      POP      {r3-r7,pc}
    i.LCD_TS_Blocking_Read
    LCD_TS_Blocking_Read
        0x00000888:    b51c        ..      PUSH     {r2-r4,lr}
        0x0000088a:    4604        .F      MOV      r4,r0
        0x0000088c:    4668        hF      MOV      r0,sp
        0x0000088e:    f000f811    ....    BL       LCD_TS_Read ; 0x8b4
        0x00000892:    2800        .(      CMP      r0,#0
        0x00000894:    d0fa        ..      BEQ      0x88c ; LCD_TS_Blocking_Read + 4
        0x00000896:    e003        ..      B        0x8a0 ; LCD_TS_Blocking_Read + 24
        0x00000898:    9800        ..      LDR      r0,[sp,#0]
        0x0000089a:    6020         `      STR      r0,[r4,#0]
        0x0000089c:    9801        ..      LDR      r0,[sp,#4]
        0x0000089e:    6060        ``      STR      r0,[r4,#4]
        0x000008a0:    4668        hF      MOV      r0,sp
        0x000008a2:    f000f807    ....    BL       LCD_TS_Read ; 0x8b4
        0x000008a6:    2801        .(      CMP      r0,#1
        0x000008a8:    d0f6        ..      BEQ      0x898 ; LCD_TS_Blocking_Read + 16
        0x000008aa:    bd1c        ..      POP      {r2-r4,pc}
    i.LCD_TS_Init
    LCD_TS_Init
        0x000008ac:    b500        ..      PUSH     {lr}
        0x000008ae:    f7fffd0b    ....    BL       Init_ADC ; 0x2c8
        0x000008b2:    bd00        ..      POP      {pc}
    i.LCD_TS_Read
    LCD_TS_Read
        0x000008b4:    b5f8        ..      PUSH     {r3-r7,lr}
        0x000008b6:    4c62        bL      LDR      r4,[pc,#392] ; [0xa40] = 0x4004d040
        0x000008b8:    4606        .F      MOV      r6,r0
        0x000008ba:    69a0        .i      LDR      r0,[r4,#0x18]
        0x000008bc:    2507        .%      MOVS     r5,#7
        0x000008be:    022d        -.      LSLS     r5,r5,#8
        0x000008c0:    43a8        .C      BICS     r0,r0,r5
        0x000008c2:    61a0        .a      STR      r0,[r4,#0x18]
        0x000008c4:    69a1        .i      LDR      r1,[r4,#0x18]
        0x000008c6:    15a0        ..      ASRS     r0,r4,#22
        0x000008c8:    4301        .C      ORRS     r1,r1,r0
        0x000008ca:    61a1        .a      STR      r1,[r4,#0x18]
        0x000008cc:    495d        ]I      LDR      r1,[pc,#372] ; [0xa44] = 0x400ff100
        0x000008ce:    694a        Ji      LDR      r2,[r1,#0x14]
        0x000008d0:    0381        ..      LSLS     r1,r0,#14
        0x000008d2:    4b5c        \K      LDR      r3,[pc,#368] ; [0xa44] = 0x400ff100
        0x000008d4:    430a        .C      ORRS     r2,r2,r1
        0x000008d6:    615a        Za      STR      r2,[r3,#0x14]
        0x000008d8:    6099        .`      STR      r1,[r3,#8]
        0x000008da:    495b        [I      LDR      r1,[pc,#364] ; [0xa48] = 0x4004b000
        0x000008dc:    6809        .h      LDR      r1,[r1,#0]
        0x000008de:    4a5a        ZJ      LDR      r2,[pc,#360] ; [0xa48] = 0x4004b000
        0x000008e0:    43a9        .C      BICS     r1,r1,r5
        0x000008e2:    6011        .`      STR      r1,[r2,#0]
        0x000008e4:    6811        .h      LDR      r1,[r2,#0]
        0x000008e6:    6011        .`      STR      r1,[r2,#0]
        0x000008e8:    6851        Qh      LDR      r1,[r2,#4]
        0x000008ea:    43a9        .C      BICS     r1,r1,r5
        0x000008ec:    6051        Q`      STR      r1,[r2,#4]
        0x000008ee:    6851        Qh      LDR      r1,[r2,#4]
        0x000008f0:    4301        .C      ORRS     r1,r1,r0
        0x000008f2:    6051        Q`      STR      r1,[r2,#4]
        0x000008f4:    4953        SI      LDR      r1,[pc,#332] ; [0xa44] = 0x400ff100
        0x000008f6:    3980        .9      SUBS     r1,r1,#0x80
        0x000008f8:    694b        Ki      LDR      r3,[r1,#0x14]
        0x000008fa:    2202        ."      MOVS     r2,#2
        0x000008fc:    4393        .C      BICS     r3,r3,r2
        0x000008fe:    614b        Ka      STR      r3,[r1,#0x14]
        0x00000900:    69e1        .i      LDR      r1,[r4,#0x1c]
        0x00000902:    43a9        .C      BICS     r1,r1,r5
        0x00000904:    61e1        .a      STR      r1,[r4,#0x1c]
        0x00000906:    69e1        .i      LDR      r1,[r4,#0x1c]
        0x00000908:    4301        .C      ORRS     r1,r1,r0
        0x0000090a:    61e1        .a      STR      r1,[r4,#0x1c]
        0x0000090c:    69e0        .i      LDR      r0,[r4,#0x1c]
        0x0000090e:    4310        .C      ORRS     r0,r0,r2
        0x00000910:    61e0        .a      STR      r0,[r4,#0x1c]
        0x00000912:    484c        LH      LDR      r0,[pc,#304] ; [0xa44] = 0x400ff100
        0x00000914:    6940        @i      LDR      r0,[r0,#0x14]
        0x00000916:    0597        ..      LSLS     r7,r2,#22
        0x00000918:    494a        JI      LDR      r1,[pc,#296] ; [0xa44] = 0x400ff100
        0x0000091a:    43b8        .C      BICS     r0,r0,r7
        0x0000091c:    6148        Ha      STR      r0,[r1,#0x14]
        0x0000091e:    2001        .       MOVS     r0,#1
        0x00000920:    f7fffc30    ..0.    BL       Delay ; 0x184
        0x00000924:    4847        GH      LDR      r0,[pc,#284] ; [0xa44] = 0x400ff100
        0x00000926:    6900        .i      LDR      r0,[r0,#0x10]
        0x00000928:    4238        8B      TST      r0,r7
        0x0000092a:    d001        ..      BEQ      0x930 ; LCD_TS_Read + 124
        0x0000092c:    2000        .       MOVS     r0,#0
        0x0000092e:    bdf8        ..      POP      {r3-r7,pc}
        0x00000930:    4843        CH      LDR      r0,[pc,#268] ; [0xa40] = 0x4004d040
        0x00000932:    6982        .i      LDR      r2,[r0,#0x18]
        0x00000934:    2107        .!      MOVS     r1,#7
        0x00000936:    0209        ..      LSLS     r1,r1,#8
        0x00000938:    438a        .C      BICS     r2,r2,r1
        0x0000093a:    6182        .a      STR      r2,[r0,#0x18]
        0x0000093c:    6982        .i      LDR      r2,[r0,#0x18]
        0x0000093e:    6182        .a      STR      r2,[r0,#0x18]
        0x00000940:    4c41        AL      LDR      r4,[pc,#260] ; [0xa48] = 0x4004b000
        0x00000942:    6822        "h      LDR      r2,[r4,#0]
        0x00000944:    438a        .C      BICS     r2,r2,r1
        0x00000946:    6022        "`      STR      r2,[r4,#0]
        0x00000948:    6822        "h      LDR      r2,[r4,#0]
        0x0000094a:    6022        "`      STR      r2,[r4,#0]
        0x0000094c:    6862        bh      LDR      r2,[r4,#4]
        0x0000094e:    438a        .C      BICS     r2,r2,r1
        0x00000950:    6062        b`      STR      r2,[r4,#4]
        0x00000952:    6863        ch      LDR      r3,[r4,#4]
        0x00000954:    1582        ..      ASRS     r2,r0,#22
        0x00000956:    4313        .C      ORRS     r3,r3,r2
        0x00000958:    6063        c`      STR      r3,[r4,#4]
        0x0000095a:    69c3        .i      LDR      r3,[r0,#0x1c]
        0x0000095c:    438b        .C      BICS     r3,r3,r1
        0x0000095e:    61c3        .a      STR      r3,[r0,#0x1c]
        0x00000960:    69c1        .i      LDR      r1,[r0,#0x1c]
        0x00000962:    4311        .C      ORRS     r1,r1,r2
        0x00000964:    61c1        .a      STR      r1,[r0,#0x1c]
        0x00000966:    4a37        7J      LDR      r2,[pc,#220] ; [0xa44] = 0x400ff100
        0x00000968:    3a80        .:      SUBS     r2,r2,#0x80
        0x0000096a:    6950        Pi      LDR      r0,[r2,#0x14]
        0x0000096c:    2102        .!      MOVS     r1,#2
        0x0000096e:    4308        .C      ORRS     r0,r0,r1
        0x00000970:    6150        Pa      STR      r0,[r2,#0x14]
        0x00000972:    4834        4H      LDR      r0,[pc,#208] ; [0xa44] = 0x400ff100
        0x00000974:    6943        Ci      LDR      r3,[r0,#0x14]
        0x00000976:    433b        ;C      ORRS     r3,r3,r7
        0x00000978:    6143        Ca      STR      r3,[r0,#0x14]
        0x0000097a:    6047        G`      STR      r7,[r0,#4]
        0x0000097c:    6091        .`      STR      r1,[r2,#8]
        0x0000097e:    2001        .       MOVS     r0,#1
        0x00000980:    f7fffc00    ....    BL       Delay ; 0x184
        0x00000984:    4d31        1M      LDR      r5,[pc,#196] ; [0xa4c] = 0x4003b000
        0x00000986:    2003        .       MOVS     r0,#3
        0x00000988:    6028        (`      STR      r0,[r5,#0]
        0x0000098a:    6828        (h      LDR      r0,[r5,#0]
        0x0000098c:    0600        ..      LSLS     r0,r0,#24
        0x0000098e:    d5fc        ..      BPL      0x98a ; LCD_TS_Read + 214
        0x00000990:    6928        (i      LDR      r0,[r5,#0x10]
        0x00000992:    b287        ..      UXTH     r7,r0
        0x00000994:    482e        .H      LDR      r0,[pc,#184] ; [0xa50] = 0x1ffff030
        0x00000996:    8087        ..      STRH     r7,[r0,#4]
        0x00000998:    6860        `h      LDR      r0,[r4,#4]
        0x0000099a:    2107        .!      MOVS     r1,#7
        0x0000099c:    0209        ..      LSLS     r1,r1,#8
        0x0000099e:    4388        .C      BICS     r0,r0,r1
        0x000009a0:    6060        ``      STR      r0,[r4,#4]
        0x000009a2:    6860        `h      LDR      r0,[r4,#4]
        0x000009a4:    6060        ``      STR      r0,[r4,#4]
        0x000009a6:    4826        &H      LDR      r0,[pc,#152] ; [0xa40] = 0x4004d040
        0x000009a8:    69c2        .i      LDR      r2,[r0,#0x1c]
        0x000009aa:    438a        .C      BICS     r2,r2,r1
        0x000009ac:    61c2        .a      STR      r2,[r0,#0x1c]
        0x000009ae:    69c2        .i      LDR      r2,[r0,#0x1c]
        0x000009b0:    61c2        .a      STR      r2,[r0,#0x1c]
        0x000009b2:    69c2        .i      LDR      r2,[r0,#0x1c]
        0x000009b4:    2302        .#      MOVS     r3,#2
        0x000009b6:    439a        .C      BICS     r2,r2,r3
        0x000009b8:    61c2        .a      STR      r2,[r0,#0x1c]
        0x000009ba:    6982        .i      LDR      r2,[r0,#0x18]
        0x000009bc:    438a        .C      BICS     r2,r2,r1
        0x000009be:    6182        .a      STR      r2,[r0,#0x18]
        0x000009c0:    6983        .i      LDR      r3,[r0,#0x18]
        0x000009c2:    1582        ..      ASRS     r2,r0,#22
        0x000009c4:    4313        .C      ORRS     r3,r3,r2
        0x000009c6:    6183        .a      STR      r3,[r0,#0x18]
        0x000009c8:    6820         h      LDR      r0,[r4,#0]
        0x000009ca:    4388        .C      BICS     r0,r0,r1
        0x000009cc:    6020         `      STR      r0,[r4,#0]
        0x000009ce:    6820         h      LDR      r0,[r4,#0]
        0x000009d0:    4310        .C      ORRS     r0,r0,r2
        0x000009d2:    6020         `      STR      r0,[r4,#0]
        0x000009d4:    481b        .H      LDR      r0,[pc,#108] ; [0xa44] = 0x400ff100
        0x000009d6:    6941        Ai      LDR      r1,[r0,#0x14]
        0x000009d8:    0392        ..      LSLS     r2,r2,#14
        0x000009da:    4311        .C      ORRS     r1,r1,r2
        0x000009dc:    6141        Aa      STR      r1,[r0,#0x14]
        0x000009de:    4919        .I      LDR      r1,[pc,#100] ; [0xa44] = 0x400ff100
        0x000009e0:    3980        .9      SUBS     r1,r1,#0x80
        0x000009e2:    694c        Li      LDR      r4,[r1,#0x14]
        0x000009e4:    2301        .#      MOVS     r3,#1
        0x000009e6:    431c        .C      ORRS     r4,r4,r3
        0x000009e8:    614c        La      STR      r4,[r1,#0x14]
        0x000009ea:    604b        K`      STR      r3,[r1,#4]
        0x000009ec:    6082        .`      STR      r2,[r0,#8]
        0x000009ee:    4618        .F      MOV      r0,r3
        0x000009f0:    f7fffbc8    ....    BL       Delay ; 0x184
        0x000009f4:    200f        .       MOVS     r0,#0xf
        0x000009f6:    6028        (`      STR      r0,[r5,#0]
        0x000009f8:    6828        (h      LDR      r0,[r5,#0]
        0x000009fa:    0600        ..      LSLS     r0,r0,#24
        0x000009fc:    d5fc        ..      BPL      0x9f8 ; LCD_TS_Read + 324
        0x000009fe:    6928        (i      LDR      r0,[r5,#0x10]
        0x00000a00:    4c13        .L      LDR      r4,[pc,#76] ; [0xa50] = 0x1ffff030
        0x00000a02:    b285        ..      UXTH     r5,r0
        0x00000a04:    8065        e.      STRH     r5,[r4,#2]
        0x00000a06:    7820         x      LDRB     r0,[r4,#0]
        0x00000a08:    2800        .(      CMP      r0,#0
        0x00000a0a:    d014        ..      BEQ      0xa36 ; LCD_TS_Read + 386
        0x00000a0c:    68e0        .h      LDR      r0,[r4,#0xc]
        0x00000a0e:    4287        .B      CMP      r7,r0
        0x00000a10:    d201        ..      BCS      0xa16 ; LCD_TS_Read + 354
        0x00000a12:    2000        .       MOVS     r0,#0
        0x00000a14:    e003        ..      B        0xa1e ; LCD_TS_Read + 362
        0x00000a16:    1a38        8.      SUBS     r0,r7,r0
        0x00000a18:    68a1        .h      LDR      r1,[r4,#8]
        0x00000a1a:    f7fffb6f    ..o.    BL       __aeabi_uidiv ; 0xfc
        0x00000a1e:    6030        0`      STR      r0,[r6,#0]
        0x00000a20:    6960        `i      LDR      r0,[r4,#0x14]
        0x00000a22:    4285        .B      CMP      r5,r0
        0x00000a24:    d201        ..      BCS      0xa2a ; LCD_TS_Read + 374
        0x00000a26:    2000        .       MOVS     r0,#0
        0x00000a28:    e003        ..      B        0xa32 ; LCD_TS_Read + 382
        0x00000a2a:    1a28        (.      SUBS     r0,r5,r0
        0x00000a2c:    6921        !i      LDR      r1,[r4,#0x10]
        0x00000a2e:    f7fffb65    ..e.    BL       __aeabi_uidiv ; 0xfc
        0x00000a32:    6070        p`      STR      r0,[r6,#4]
        0x00000a34:    e001        ..      B        0xa3a ; LCD_TS_Read + 390
        0x00000a36:    6037        7`      STR      r7,[r6,#0]
        0x00000a38:    6075        u`      STR      r5,[r6,#4]
        0x00000a3a:    2001        .       MOVS     r0,#1
        0x00000a3c:    bdf8        ..      POP      {r3-r7,pc}
    $d
        0x00000a3e:    0000        ..      DCW    0
        0x00000a40:    4004d040    @..@    DCD    1074057280
        0x00000a44:    400ff100    ...@    DCD    1074786560
        0x00000a48:    4004b000    ...@    DCD    1074049024
        0x00000a4c:    4003b000    ...@    DCD    1073983488
        0x00000a50:    1ffff030    0...    DCD    536866864
    $t
    i.LCD_Text_GetGlyphWidth
    LCD_Text_GetGlyphWidth
        0x00000a54:    4904        .I      LDR      r1,[pc,#16] ; [0xa68] = 0x1ffff018
        0x00000a56:    68ca        .h      LDR      r2,[r1,#0xc]
        0x00000a58:    6909        .i      LDR      r1,[r1,#0x10]
        0x00000a5a:    7892        .x      LDRB     r2,[r2,#2]
        0x00000a5c:    1a80        ..      SUBS     r0,r0,r2
        0x00000a5e:    0600        ..      LSLS     r0,r0,#24
        0x00000a60:    0d80        ..      LSRS     r0,r0,#22
        0x00000a62:    5c08        .\      LDRB     r0,[r1,r0]
        0x00000a64:    4770        pG      BX       lr
    $d
        0x00000a66:    0000        ..      DCW    0
        0x00000a68:    1ffff018    ....    DCD    536866840
    $t
    i.LCD_Text_Init
    LCD_Text_Init
        0x00000a6c:    480b        .H      LDR      r0,[pc,#44] ; [0xa9c] = 0x1ffff018
        0x00000a6e:    490a        .I      LDR      r1,[pc,#40] ; [0xa98] = 0x4dbc
        0x00000a70:    220c        ."      MOVS     r2,#0xc
        0x00000a72:    6081        .`      STR      r1,[r0,#8]
        0x00000a74:    7002        .p      STRB     r2,[r0,#0]
        0x00000a76:    2213        ."      MOVS     r2,#0x13
        0x00000a78:    7042        Bp      STRB     r2,[r0,#1]
        0x00000a7a:    60c1        .`      STR      r1,[r0,#0xc]
        0x00000a7c:    3108        .1      ADDS     r1,r1,#8
        0x00000a7e:    6101        .a      STR      r1,[r0,#0x10]
        0x00000a80:    4906        .I      LDR      r1,[pc,#24] ; [0xa9c] = 0x1ffff018
        0x00000a82:    20ff        .       MOVS     r0,#0xff
        0x00000a84:    1c89        ..      ADDS     r1,r1,#2
        0x00000a86:    7008        .p      STRB     r0,[r1,#0]
        0x00000a88:    7048        Hp      STRB     r0,[r1,#1]
        0x00000a8a:    2000        .       MOVS     r0,#0
        0x00000a8c:    7088        .p      STRB     r0,[r1,#2]
        0x00000a8e:    1cc9        ..      ADDS     r1,r1,#3
        0x00000a90:    7008        .p      STRB     r0,[r1,#0]
        0x00000a92:    7048        Hp      STRB     r0,[r1,#1]
        0x00000a94:    7088        .p      STRB     r0,[r1,#2]
        0x00000a96:    4770        pG      BX       lr
    $d
        0x00000a98:    00004dbc    .M..    DCD    19900
        0x00000a9c:    1ffff018    ....    DCD    536866840
    $t
    i.LCD_Text_PrintChar
    LCD_Text_PrintChar
        0x00000aa0:    b5f0        ..      PUSH     {r4-r7,lr}
        0x00000aa2:    4c5e        ^L      LDR      r4,[pc,#376] ; [0xc1c] = 0x1ffff018
        0x00000aa4:    b085        ..      SUB      sp,sp,#0x14
        0x00000aa6:    68e2        .h      LDR      r2,[r4,#0xc]
        0x00000aa8:    7892        .x      LDRB     r2,[r2,#2]
        0x00000aaa:    1a89        ..      SUBS     r1,r1,r2
        0x00000aac:    0609        ..      LSLS     r1,r1,#24
        0x00000aae:    6922        "i      LDR      r2,[r4,#0x10]
        0x00000ab0:    0d89        ..      LSRS     r1,r1,#22
        0x00000ab2:    5851        QX      LDR      r1,[r2,r1]
        0x00000ab4:    68a2        .h      LDR      r2,[r4,#8]
        0x00000ab6:    b2ce        ..      UXTB     r6,r1
        0x00000ab8:    0a09        ..      LSRS     r1,r1,#8
        0x00000aba:    1857        W.      ADDS     r7,r2,r1
        0x00000abc:    7821        !x      LDRB     r1,[r4,#0]
        0x00000abe:    6802        .h      LDR      r2,[r0,#0]
        0x00000ac0:    1e49        I.      SUBS     r1,r1,#1
        0x00000ac2:    1851        Q.      ADDS     r1,r2,r1
        0x00000ac4:    9102        ..      STR      r1,[sp,#8]
        0x00000ac6:    7861        ax      LDRB     r1,[r4,#1]
        0x00000ac8:    6842        Bh      LDR      r2,[r0,#4]
        0x00000aca:    1e49        I.      SUBS     r1,r1,#1
        0x00000acc:    1851        Q.      ADDS     r1,r2,r1
        0x00000ace:    9103        ..      STR      r1,[sp,#0xc]
        0x00000ad0:    a902        ..      ADD      r1,sp,#8
        0x00000ad2:    f7fffe8e    ....    BL       LCD_Start_Rectangle ; 0x7f2
        0x00000ad6:    2000        .       MOVS     r0,#0
        0x00000ad8:    e098        ..      B        0xc0c ; LCD_Text_PrintChar + 364
        0x00000ada:    2400        .$      MOVS     r4,#0
        0x00000adc:    783d        =x      LDRB     r5,[r7,#0]
        0x00000ade:    2d00        .-      CMP      r5,#0
        0x00000ae0:    d015        ..      BEQ      0xb0e ; LCD_Text_PrintChar + 110
        0x00000ae2:    2dff        .-      CMP      r5,#0xff
        0x00000ae4:    d01b        ..      BEQ      0xb1e ; LCD_Text_PrintChar + 126
        0x00000ae6:    2000        .       MOVS     r0,#0
        0x00000ae8:    9001        ..      STR      r0,[sp,#4]
        0x00000aea:    0668        h.      LSLS     r0,r5,#25
        0x00000aec:    d023        #.      BEQ      0xb36 ; LCD_Text_PrintChar + 150
        0x00000aee:    43e8        .C      MVNS     r0,r5
        0x00000af0:    0641        A.      LSLS     r1,r0,#25
        0x00000af2:    d02a        *.      BEQ      0xb4a ; LCD_Text_PrintChar + 170
        0x00000af4:    06a9        ..      LSLS     r1,r5,#26
        0x00000af6:    d03d        =.      BEQ      0xb74 ; LCD_Text_PrintChar + 212
        0x00000af8:    0681        ..      LSLS     r1,r0,#26
        0x00000afa:    d044        D.      BEQ      0xb86 ; LCD_Text_PrintChar + 230
        0x00000afc:    06e9        ..      LSLS     r1,r5,#27
        0x00000afe:    d04d        M.      BEQ      0xb9c ; LCD_Text_PrintChar + 252
        0x00000b00:    06c1        ..      LSLS     r1,r0,#27
        0x00000b02:    d050        P.      BEQ      0xba6 ; LCD_Text_PrintChar + 262
        0x00000b04:    0729        ).      LSLS     r1,r5,#28
        0x00000b06:    d053        S.      BEQ      0xbb0 ; LCD_Text_PrintChar + 272
        0x00000b08:    0700        ..      LSLS     r0,r0,#28
        0x00000b0a:    d056        V.      BEQ      0xbba ; LCD_Text_PrintChar + 282
        0x00000b0c:    e06a        j.      B        0xbe4 ; LCD_Text_PrintChar + 324
        0x00000b0e:    1b35        5.      SUBS     r5,r6,r4
        0x00000b10:    2d08        .-      CMP      r5,#8
        0x00000b12:    dd00        ..      BLE      0xb16 ; LCD_Text_PrintChar + 118
        0x00000b14:    2508        .%      MOVS     r5,#8
        0x00000b16:    4841        AH      LDR      r0,[pc,#260] ; [0xc1c] = 0x1ffff018
        0x00000b18:    4629        )F      MOV      r1,r5
        0x00000b1a:    1d40        @.      ADDS     r0,r0,#5
        0x00000b1c:    e006        ..      B        0xb2c ; LCD_Text_PrintChar + 140
        0x00000b1e:    1b35        5.      SUBS     r5,r6,r4
        0x00000b20:    2d08        .-      CMP      r5,#8
        0x00000b22:    dd00        ..      BLE      0xb26 ; LCD_Text_PrintChar + 134
        0x00000b24:    2508        .%      MOVS     r5,#8
        0x00000b26:    483d        =H      LDR      r0,[pc,#244] ; [0xc1c] = 0x1ffff018
        0x00000b28:    4629        )F      MOV      r1,r5
        0x00000b2a:    1c80        ..      ADDS     r0,r0,#2
        0x00000b2c:    f000f8f6    ....    BL       LCD_Write_Rectangle_Pixel ; 0xd1c
        0x00000b30:    1960        `.      ADDS     r0,r4,r5
        0x00000b32:    b2c4        ..      UXTB     r4,r0
        0x00000b34:    e05b        [.      B        0xbee ; LCD_Text_PrintChar + 334
        0x00000b36:    1b30        0.      SUBS     r0,r6,r4
        0x00000b38:    2807        .(      CMP      r0,#7
        0x00000b3a:    dd01        ..      BLE      0xb40 ; LCD_Text_PrintChar + 160
        0x00000b3c:    2007        .       MOVS     r0,#7
        0x00000b3e:    e01d        ..      B        0xb7c ; LCD_Text_PrintChar + 220
        0x00000b40:    4601        .F      MOV      r1,r0
        0x00000b42:    9000        ..      STR      r0,[sp,#0]
        0x00000b44:    4835        5H      LDR      r0,[pc,#212] ; [0xc1c] = 0x1ffff018
        0x00000b46:    1d40        @.      ADDS     r0,r0,#5
        0x00000b48:    e008        ..      B        0xb5c ; LCD_Text_PrintChar + 188
        0x00000b4a:    1b30        0.      SUBS     r0,r6,r4
        0x00000b4c:    2807        .(      CMP      r0,#7
        0x00000b4e:    dd01        ..      BLE      0xb54 ; LCD_Text_PrintChar + 180
        0x00000b50:    2007        .       MOVS     r0,#7
        0x00000b52:    e01c        ..      B        0xb8e ; LCD_Text_PrintChar + 238
        0x00000b54:    4601        .F      MOV      r1,r0
        0x00000b56:    9000        ..      STR      r0,[sp,#0]
        0x00000b58:    4830        0H      LDR      r0,[pc,#192] ; [0xc1c] = 0x1ffff018
        0x00000b5a:    1c80        ..      ADDS     r0,r0,#2
        0x00000b5c:    f000f8de    ....    BL       LCD_Write_Rectangle_Pixel ; 0xd1c
        0x00000b60:    9800        ..      LDR      r0,[sp,#0]
        0x00000b62:    2800        .(      CMP      r0,#0
        0x00000b64:    d03e        >.      BEQ      0xbe4 ; LCD_Text_PrintChar + 324
        0x00000b66:    9800        ..      LDR      r0,[sp,#0]
        0x00000b68:    1820         .      ADDS     r0,r4,r0
        0x00000b6a:    b2c4        ..      UXTB     r4,r0
        0x00000b6c:    9800        ..      LDR      r0,[sp,#0]
        0x00000b6e:    9001        ..      STR      r0,[sp,#4]
        0x00000b70:    40c5        .@      LSRS     r5,r5,r0
        0x00000b72:    e037        7.      B        0xbe4 ; LCD_Text_PrintChar + 324
        0x00000b74:    1b30        0.      SUBS     r0,r6,r4
        0x00000b76:    2806        .(      CMP      r0,#6
        0x00000b78:    dde2        ..      BLE      0xb40 ; LCD_Text_PrintChar + 160
        0x00000b7a:    2006        .       MOVS     r0,#6
        0x00000b7c:    4601        .F      MOV      r1,r0
        0x00000b7e:    9000        ..      STR      r0,[sp,#0]
        0x00000b80:    4826        &H      LDR      r0,[pc,#152] ; [0xc1c] = 0x1ffff018
        0x00000b82:    1d40        @.      ADDS     r0,r0,#5
        0x00000b84:    e007        ..      B        0xb96 ; LCD_Text_PrintChar + 246
        0x00000b86:    1b30        0.      SUBS     r0,r6,r4
        0x00000b88:    2806        .(      CMP      r0,#6
        0x00000b8a:    dde3        ..      BLE      0xb54 ; LCD_Text_PrintChar + 180
        0x00000b8c:    2006        .       MOVS     r0,#6
        0x00000b8e:    4601        .F      MOV      r1,r0
        0x00000b90:    9000        ..      STR      r0,[sp,#0]
        0x00000b92:    4822        "H      LDR      r0,[pc,#136] ; [0xc1c] = 0x1ffff018
        0x00000b94:    1c80        ..      ADDS     r0,r0,#2
        0x00000b96:    f000f8c1    ....    BL       LCD_Write_Rectangle_Pixel ; 0xd1c
        0x00000b9a:    e7e4        ..      B        0xb66 ; LCD_Text_PrintChar + 198
        0x00000b9c:    1b30        0.      SUBS     r0,r6,r4
        0x00000b9e:    2805        .(      CMP      r0,#5
        0x00000ba0:    ddce        ..      BLE      0xb40 ; LCD_Text_PrintChar + 160
        0x00000ba2:    2005        .       MOVS     r0,#5
        0x00000ba4:    e7ea        ..      B        0xb7c ; LCD_Text_PrintChar + 220
        0x00000ba6:    1b30        0.      SUBS     r0,r6,r4
        0x00000ba8:    2805        .(      CMP      r0,#5
        0x00000baa:    ddd3        ..      BLE      0xb54 ; LCD_Text_PrintChar + 180
        0x00000bac:    2005        .       MOVS     r0,#5
        0x00000bae:    e7ee        ..      B        0xb8e ; LCD_Text_PrintChar + 238
        0x00000bb0:    1b30        0.      SUBS     r0,r6,r4
        0x00000bb2:    2804        .(      CMP      r0,#4
        0x00000bb4:    ddc4        ..      BLE      0xb40 ; LCD_Text_PrintChar + 160
        0x00000bb6:    2004        .       MOVS     r0,#4
        0x00000bb8:    e7e0        ..      B        0xb7c ; LCD_Text_PrintChar + 220
        0x00000bba:    1b30        0.      SUBS     r0,r6,r4
        0x00000bbc:    2804        .(      CMP      r0,#4
        0x00000bbe:    ddc9        ..      BLE      0xb54 ; LCD_Text_PrintChar + 180
        0x00000bc0:    2004        .       MOVS     r0,#4
        0x00000bc2:    e7e4        ..      B        0xb8e ; LCD_Text_PrintChar + 238
        0x00000bc4:    07e8        ..      LSLS     r0,r5,#31
        0x00000bc6:    d002        ..      BEQ      0xbce ; LCD_Text_PrintChar + 302
        0x00000bc8:    4814        .H      LDR      r0,[pc,#80] ; [0xc1c] = 0x1ffff018
        0x00000bca:    1c80        ..      ADDS     r0,r0,#2
        0x00000bcc:    e001        ..      B        0xbd2 ; LCD_Text_PrintChar + 306
        0x00000bce:    4813        .H      LDR      r0,[pc,#76] ; [0xc1c] = 0x1ffff018
        0x00000bd0:    1d40        @.      ADDS     r0,r0,#5
        0x00000bd2:    2101        .!      MOVS     r1,#1
        0x00000bd4:    f000f8a2    ....    BL       LCD_Write_Rectangle_Pixel ; 0xd1c
        0x00000bd8:    1c64        d.      ADDS     r4,r4,#1
        0x00000bda:    9801        ..      LDR      r0,[sp,#4]
        0x00000bdc:    086d        m.      LSRS     r5,r5,#1
        0x00000bde:    1c40        @.      ADDS     r0,r0,#1
        0x00000be0:    b2e4        ..      UXTB     r4,r4
        0x00000be2:    9001        ..      STR      r0,[sp,#4]
        0x00000be4:    42b4        .B      CMP      r4,r6
        0x00000be6:    d202        ..      BCS      0xbee ; LCD_Text_PrintChar + 334
        0x00000be8:    9801        ..      LDR      r0,[sp,#4]
        0x00000bea:    2808        .(      CMP      r0,#8
        0x00000bec:    d3ea        ..      BCC      0xbc4 ; LCD_Text_PrintChar + 292
        0x00000bee:    1c7f        ..      ADDS     r7,r7,#1
        0x00000bf0:    42b4        .B      CMP      r4,r6
        0x00000bf2:    d200        ..      BCS      0xbf6 ; LCD_Text_PrintChar + 342
        0x00000bf4:    e772        r.      B        0xadc ; LCD_Text_PrintChar + 60
        0x00000bf6:    4809        .H      LDR      r0,[pc,#36] ; [0xc1c] = 0x1ffff018
        0x00000bf8:    7800        .x      LDRB     r0,[r0,#0]
        0x00000bfa:    4284        .B      CMP      r4,r0
        0x00000bfc:    d204        ..      BCS      0xc08 ; LCD_Text_PrintChar + 360
        0x00000bfe:    1b01        ..      SUBS     r1,r0,r4
        0x00000c00:    4806        .H      LDR      r0,[pc,#24] ; [0xc1c] = 0x1ffff018
        0x00000c02:    1d40        @.      ADDS     r0,r0,#5
        0x00000c04:    f000f88a    ....    BL       LCD_Write_Rectangle_Pixel ; 0xd1c
        0x00000c08:    9804        ..      LDR      r0,[sp,#0x10]
        0x00000c0a:    1c40        @.      ADDS     r0,r0,#1
        0x00000c0c:    4903        .I      LDR      r1,[pc,#12] ; [0xc1c] = 0x1ffff018
        0x00000c0e:    9004        ..      STR      r0,[sp,#0x10]
        0x00000c10:    7849        Ix      LDRB     r1,[r1,#1]
        0x00000c12:    4288        .B      CMP      r0,r1
        0x00000c14:    d200        ..      BCS      0xc18 ; LCD_Text_PrintChar + 376
        0x00000c16:    e760        `.      B        0xada ; LCD_Text_PrintChar + 58
        0x00000c18:    b005        ..      ADD      sp,sp,#0x14
        0x00000c1a:    bdf0        ..      POP      {r4-r7,pc}
    $d
        0x00000c1c:    1ffff018    ....    DCD    536866840
    $t
    i.LCD_Text_PrintStr
    LCD_Text_PrintStr
        0x00000c20:    b570        p.      PUSH     {r4-r6,lr}
        0x00000c22:    460c        .F      MOV      r4,r1
        0x00000c24:    4605        .F      MOV      r5,r0
        0x00000c26:    4e0b        .N      LDR      r6,[pc,#44] ; [0xc54] = 0x1ffff018
        0x00000c28:    e00c        ..      B        0xc44 ; LCD_Text_PrintStr + 36
        0x00000c2a:    4628        (F      MOV      r0,r5
        0x00000c2c:    f7ffff38    ..8.    BL       LCD_Text_PrintChar ; 0xaa0
        0x00000c30:    7820         x      LDRB     r0,[r4,#0]
        0x00000c32:    2820         (      CMP      r0,#0x20
        0x00000c34:    d00a        ..      BEQ      0xc4c ; LCD_Text_PrintStr + 44
        0x00000c36:    f7ffff0d    ....    BL       LCD_Text_GetGlyphWidth ; 0xa54
        0x00000c3a:    6829        )h      LDR      r1,[r5,#0]
        0x00000c3c:    1c40        @.      ADDS     r0,r0,#1
        0x00000c3e:    1840        @.      ADDS     r0,r0,r1
        0x00000c40:    1c64        d.      ADDS     r4,r4,#1
        0x00000c42:    6028        (`      STR      r0,[r5,#0]
        0x00000c44:    7821        !x      LDRB     r1,[r4,#0]
        0x00000c46:    2900        .)      CMP      r1,#0
        0x00000c48:    d1ef        ..      BNE      0xc2a ; LCD_Text_PrintStr + 10
        0x00000c4a:    bd70        p.      POP      {r4-r6,pc}
        0x00000c4c:    7831        1x      LDRB     r1,[r6,#0]
        0x00000c4e:    6828        (h      LDR      r0,[r5,#0]
        0x00000c50:    e7f5        ..      B        0xc3e ; LCD_Text_PrintStr + 30
    $d
        0x00000c52:    0000        ..      DCW    0
        0x00000c54:    1ffff018    ....    DCD    536866840
    $t
    i.LCD_Text_PrintStr_RC
    LCD_Text_PrintStr_RC
        0x00000c58:    b57c        |.      PUSH     {r2-r6,lr}
        0x00000c5a:    4d0e        .M      LDR      r5,[pc,#56] ; [0xc94] = 0x1ffff018
        0x00000c5c:    4614        .F      MOV      r4,r2
        0x00000c5e:    782a        *x      LDRB     r2,[r5,#0]
        0x00000c60:    4351        QC      MULS     r1,r2,r1
        0x00000c62:    9100        ..      STR      r1,[sp,#0]
        0x00000c64:    7869        ix      LDRB     r1,[r5,#1]
        0x00000c66:    4348        HC      MULS     r0,r1,r0
        0x00000c68:    9001        ..      STR      r0,[sp,#4]
        0x00000c6a:    e00c        ..      B        0xc86 ; LCD_Text_PrintStr_RC + 46
        0x00000c6c:    4668        hF      MOV      r0,sp
        0x00000c6e:    f7ffff17    ....    BL       LCD_Text_PrintChar ; 0xaa0
        0x00000c72:    7820         x      LDRB     r0,[r4,#0]
        0x00000c74:    2820         (      CMP      r0,#0x20
        0x00000c76:    d00a        ..      BEQ      0xc8e ; LCD_Text_PrintStr_RC + 54
        0x00000c78:    f7fffeec    ....    BL       LCD_Text_GetGlyphWidth ; 0xa54
        0x00000c7c:    9900        ..      LDR      r1,[sp,#0]
        0x00000c7e:    1c40        @.      ADDS     r0,r0,#1
        0x00000c80:    1840        @.      ADDS     r0,r0,r1
        0x00000c82:    1c64        d.      ADDS     r4,r4,#1
        0x00000c84:    9000        ..      STR      r0,[sp,#0]
        0x00000c86:    7821        !x      LDRB     r1,[r4,#0]
        0x00000c88:    2900        .)      CMP      r1,#0
        0x00000c8a:    d1ef        ..      BNE      0xc6c ; LCD_Text_PrintStr_RC + 20
        0x00000c8c:    bd7c        |.      POP      {r2-r6,pc}
        0x00000c8e:    7829        )x      LDRB     r1,[r5,#0]
        0x00000c90:    9800        ..      LDR      r0,[sp,#0]
        0x00000c92:    e7f5        ..      B        0xc80 ; LCD_Text_PrintStr_RC + 40
    $d
        0x00000c94:    1ffff018    ....    DCD    536866840
    $t
    i.LCD_Text_Set_Colors
    LCD_Text_Set_Colors
        0x00000c98:    4a07        .J      LDR      r2,[pc,#28] ; [0xcb8] = 0x1ffff01a
        0x00000c9a:    7803        .x      LDRB     r3,[r0,#0]
        0x00000c9c:    7013        .p      STRB     r3,[r2,#0]
        0x00000c9e:    7843        Cx      LDRB     r3,[r0,#1]
        0x00000ca0:    7053        Sp      STRB     r3,[r2,#1]
        0x00000ca2:    7880        .x      LDRB     r0,[r0,#2]
        0x00000ca4:    7090        .p      STRB     r0,[r2,#2]
        0x00000ca6:    4804        .H      LDR      r0,[pc,#16] ; [0xcb8] = 0x1ffff01a
        0x00000ca8:    780a        .x      LDRB     r2,[r1,#0]
        0x00000caa:    1cc0        ..      ADDS     r0,r0,#3
        0x00000cac:    7002        .p      STRB     r2,[r0,#0]
        0x00000cae:    784a        Jx      LDRB     r2,[r1,#1]
        0x00000cb0:    7042        Bp      STRB     r2,[r0,#1]
        0x00000cb2:    7889        .x      LDRB     r1,[r1,#2]
        0x00000cb4:    7081        .p      STRB     r1,[r0,#2]
        0x00000cb6:    4770        pG      BX       lr
    $d
        0x00000cb8:    1ffff01a    ....    DCD    536866842
    $t
    i.LCD_Write_Rectangle_N_Quad_Pixel_Components
    LCD_Write_Rectangle_N_Quad_Pixel_Components
        0x00000cbc:    b5ff        ..      PUSH     {r0-r7,lr}
        0x00000cbe:    b081        ..      SUB      sp,sp,#4
        0x00000cc0:    4617        .F      MOV      r7,r2
        0x00000cc2:    9801        ..      LDR      r0,[sp,#4]
        0x00000cc4:    c810        ..      LDM      r0!,{r4}
        0x00000cc6:    9001        ..      STR      r0,[sp,#4]
        0x00000cc8:    9802        ..      LDR      r0,[sp,#8]
        0x00000cca:    c808        ..      LDM      r0!,{r3}
        0x00000ccc:    9002        ..      STR      r0,[sp,#8]
        0x00000cce:    4811        .H      LDR      r0,[pc,#68] ; [0xd14] = 0xf8f8f8f8
        0x00000cd0:    cf04        ..      LDM      r7!,{r2}
        0x00000cd2:    4004        .@      ANDS     r4,r4,r0
        0x00000cd4:    43c0        .C      MVNS     r0,r0
        0x00000cd6:    0959        Y.      LSRS     r1,r3,#5
        0x00000cd8:    089d        ..      LSRS     r5,r3,#2
        0x00000cda:    4001        .@      ANDS     r1,r1,r0
        0x00000cdc:    4005        .@      ANDS     r5,r5,r0
        0x00000cde:    08d0        ..      LSRS     r0,r2,#3
        0x00000ce0:    4a0d        .J      LDR      r2,[pc,#52] ; [0xd18] = 0x1f1f1f1f
        0x00000ce2:    430c        .C      ORRS     r4,r4,r1
        0x00000ce4:    4010        .@      ANDS     r0,r0,r2
        0x00000ce6:    4305        .C      ORRS     r5,r5,r0
        0x00000ce8:    2600        .&      MOVS     r6,#0
        0x00000cea:    b2e9        ..      UXTB     r1,r5
        0x00000cec:    b2e0        ..      UXTB     r0,r4
        0x00000cee:    9100        ..      STR      r1,[sp,#0]
        0x00000cf0:    f7fffbc0    ....    BL       LCD_24S_Write_Data ; 0x474
        0x00000cf4:    9800        ..      LDR      r0,[sp,#0]
        0x00000cf6:    f7fffbbd    ....    BL       LCD_24S_Write_Data ; 0x474
        0x00000cfa:    1c76        v.      ADDS     r6,r6,#1
        0x00000cfc:    0a24        $.      LSRS     r4,r4,#8
        0x00000cfe:    0a2d        -.      LSRS     r5,r5,#8
        0x00000d00:    b2f6        ..      UXTB     r6,r6
        0x00000d02:    2e04        ..      CMP      r6,#4
        0x00000d04:    d3f1        ..      BCC      0xcea ; LCD_Write_Rectangle_N_Quad_Pixel_Components + 46
        0x00000d06:    9804        ..      LDR      r0,[sp,#0x10]
        0x00000d08:    1e40        @.      SUBS     r0,r0,#1
        0x00000d0a:    9004        ..      STR      r0,[sp,#0x10]
        0x00000d0c:    2800        .(      CMP      r0,#0
        0x00000d0e:    dcd8        ..      BGT      0xcc2 ; LCD_Write_Rectangle_N_Quad_Pixel_Components + 6
        0x00000d10:    b005        ..      ADD      sp,sp,#0x14
        0x00000d12:    bdf0        ..      POP      {r4-r7,pc}
    $d
        0x00000d14:    f8f8f8f8    ....    DCD    4177066232
        0x00000d18:    1f1f1f1f    ....    DCD    522133279
    $t
    i.LCD_Write_Rectangle_Pixel
    LCD_Write_Rectangle_Pixel
        0x00000d1c:    b570        p.      PUSH     {r4-r6,lr}
        0x00000d1e:    460c        .F      MOV      r4,r1
        0x00000d20:    7801        .x      LDRB     r1,[r0,#0]
        0x00000d22:    08cd        ..      LSRS     r5,r1,#3
        0x00000d24:    7841        Ax      LDRB     r1,[r0,#1]
        0x00000d26:    00ed        ..      LSLS     r5,r5,#3
        0x00000d28:    094a        J.      LSRS     r2,r1,#5
        0x00000d2a:    4315        .C      ORRS     r5,r5,r2
        0x00000d2c:    221c        ."      MOVS     r2,#0x1c
        0x00000d2e:    4011        .@      ANDS     r1,r1,r2
        0x00000d30:    7880        .x      LDRB     r0,[r0,#2]
        0x00000d32:    00ce        ..      LSLS     r6,r1,#3
        0x00000d34:    08c0        ..      LSRS     r0,r0,#3
        0x00000d36:    4306        .C      ORRS     r6,r6,r0
        0x00000d38:    e005        ..      B        0xd46 ; LCD_Write_Rectangle_Pixel + 42
        0x00000d3a:    4628        (F      MOV      r0,r5
        0x00000d3c:    f7fffb9a    ....    BL       LCD_24S_Write_Data ; 0x474
        0x00000d40:    4630        0F      MOV      r0,r6
        0x00000d42:    f7fffb97    ....    BL       LCD_24S_Write_Data ; 0x474
        0x00000d46:    1e64        d.      SUBS     r4,r4,#1
        0x00000d48:    d2f7        ..      BCS      0xd3a ; LCD_Write_Rectangle_Pixel + 30
        0x00000d4a:    bd70        p.      POP      {r4-r6,pc}
    i.PIT_IRQHandler
    PIT_IRQHandler
        0x00000d4c:    b510        ..      PUSH     {r4,lr}
        0x00000d4e:    480b        .H      LDR      r0,[pc,#44] ; [0xd7c] = 0x40037100
        0x00000d50:    68c1        .h      LDR      r1,[r0,#0xc]
        0x00000d52:    07c9        ..      LSLS     r1,r1,#31
        0x00000d54:    d00a        ..      BEQ      0xd6c ; PIT_IRQHandler + 32
        0x00000d56:    68c1        .h      LDR      r1,[r0,#0xc]
        0x00000d58:    07c9        ..      LSLS     r1,r1,#31
        0x00000d5a:    0fc9        ..      LSRS     r1,r1,#31
        0x00000d5c:    60c1        .`      STR      r1,[r0,#0xc]
        0x00000d5e:    4808        .H      LDR      r0,[pc,#32] ; [0xd80] = 0x1ffff000
        0x00000d60:    7800        .x      LDRB     r0,[r0,#0]
        0x00000d62:    2800        .(      CMP      r0,#0
        0x00000d64:    d001        ..      BEQ      0xd6a ; PIT_IRQHandler + 30
        0x00000d66:    f000f87d    ..}.    BL       Process_Profile_Sample ; 0xe64
        0x00000d6a:    bd10        ..      POP      {r4,pc}
        0x00000d6c:    69c1        .i      LDR      r1,[r0,#0x1c]
        0x00000d6e:    07c9        ..      LSLS     r1,r1,#31
        0x00000d70:    d0fb        ..      BEQ      0xd6a ; PIT_IRQHandler + 30
        0x00000d72:    69c1        .i      LDR      r1,[r0,#0x1c]
        0x00000d74:    07c9        ..      LSLS     r1,r1,#31
        0x00000d76:    0fc9        ..      LSRS     r1,r1,#31
        0x00000d78:    61c1        .a      STR      r1,[r0,#0x1c]
        0x00000d7a:    bd10        ..      POP      {r4,pc}
    $d
        0x00000d7c:    40037100    .q.@    DCD    1073967360
        0x00000d80:    1ffff000    ....    DCD    536866816
    $t
    i.PIT_Init
    PIT_Init
        0x00000d84:    b510        ..      PUSH     {r4,lr}
        0x00000d86:    4912        .I      LDR      r1,[pc,#72] ; [0xdd0] = 0x40048000
        0x00000d88:    6bca        .k      LDR      r2,[r1,#0x3c]
        0x00000d8a:    2301        .#      MOVS     r3,#1
        0x00000d8c:    05db        ..      LSLS     r3,r3,#23
        0x00000d8e:    431a        .C      ORRS     r2,r2,r3
        0x00000d90:    63ca        .c      STR      r2,[r1,#0x3c]
        0x00000d92:    4910        .I      LDR      r1,[pc,#64] ; [0xdd4] = 0x40037000
        0x00000d94:    680b        .h      LDR      r3,[r1,#0]
        0x00000d96:    2202        ."      MOVS     r2,#2
        0x00000d98:    4393        .C      BICS     r3,r3,r2
        0x00000d9a:    600b        .`      STR      r3,[r1,#0]
        0x00000d9c:    680b        .h      LDR      r3,[r1,#0]
        0x00000d9e:    2401        .$      MOVS     r4,#1
        0x00000da0:    4323        #C      ORRS     r3,r3,r4
        0x00000da2:    600b        .`      STR      r3,[r1,#0]
        0x00000da4:    490c        .I      LDR      r1,[pc,#48] ; [0xdd8] = 0x40037100
        0x00000da6:    6008        .`      STR      r0,[r1,#0]
        0x00000da8:    6888        .h      LDR      r0,[r1,#8]
        0x00000daa:    2304        .#      MOVS     r3,#4
        0x00000dac:    4018        .@      ANDS     r0,r0,r3
        0x00000dae:    6088        .`      STR      r0,[r1,#8]
        0x00000db0:    6888        .h      LDR      r0,[r1,#8]
        0x00000db2:    4310        .C      ORRS     r0,r0,r2
        0x00000db4:    6088        .`      STR      r0,[r1,#8]
        0x00000db6:    4909        .I      LDR      r1,[pc,#36] ; [0xddc] = 0xe000e414
        0x00000db8:    6808        .h      LDR      r0,[r1,#0]
        0x00000dba:    22ff        ."      MOVS     r2,#0xff
        0x00000dbc:    0412        ..      LSLS     r2,r2,#16
        0x00000dbe:    4390        .C      BICS     r0,r0,r2
        0x00000dc0:    6008        .`      STR      r0,[r1,#0]
        0x00000dc2:    4907        .I      LDR      r1,[pc,#28] ; [0xde0] = 0xe000e280
        0x00000dc4:    0518        ..      LSLS     r0,r3,#20
        0x00000dc6:    6008        .`      STR      r0,[r1,#0]
        0x00000dc8:    4906        .I      LDR      r1,[pc,#24] ; [0xde4] = 0xe000e100
        0x00000dca:    6008        .`      STR      r0,[r1,#0]
        0x00000dcc:    bd10        ..      POP      {r4,pc}
    $d
        0x00000dce:    0000        ..      DCW    0
        0x00000dd0:    40048000    ...@    DCD    1074036736
        0x00000dd4:    40037000    .p.@    DCD    1073967104
        0x00000dd8:    40037100    .q.@    DCD    1073967360
        0x00000ddc:    e000e414    ....    DCD    3758154772
        0x00000de0:    e000e280    ....    DCD    3758154368
        0x00000de4:    e000e100    ....    DCD    3758153984
    $t
    i.PIT_Start
    PIT_Start
        0x00000de8:    4802        .H      LDR      r0,[pc,#8] ; [0xdf4] = 0x40037100
        0x00000dea:    6881        .h      LDR      r1,[r0,#8]
        0x00000dec:    2201        ."      MOVS     r2,#1
        0x00000dee:    4311        .C      ORRS     r1,r1,r2
        0x00000df0:    6081        .`      STR      r1,[r0,#8]
        0x00000df2:    4770        pG      BX       lr
    $d
        0x00000df4:    40037100    .q.@    DCD    1073967360
    $t
    i.PWM_Init
    PWM_Init
        0x00000df8:    b470        p.      PUSH     {r4-r6}
        0x00000dfa:    4c16        .L      LDR      r4,[pc,#88] ; [0xe54] = 0xbffc8000
        0x00000dfc:    1906        ..      ADDS     r6,r0,r4
        0x00000dfe:    4c16        .L      LDR      r4,[pc,#88] ; [0xe58] = 0x40048000
        0x00000e00:    d01c        ..      BEQ      0xe3c ; PWM_Init + 68
        0x00000e02:    2501        .%      MOVS     r5,#1
        0x00000e04:    032d        -.      LSLS     r5,r5,#12
        0x00000e06:    1b76        v.      SUBS     r6,r6,r5
        0x00000e08:    d01e        ..      BEQ      0xe48 ; PWM_Init + 80
        0x00000e0a:    42ae        .B      CMP      r6,r5
        0x00000e0c:    d103        ..      BNE      0xe16 ; PWM_Init + 30
        0x00000e0e:    6be5        .k      LDR      r5,[r4,#0x3c]
        0x00000e10:    03b6        ..      LSLS     r6,r6,#14
        0x00000e12:    4335        5C      ORRS     r5,r5,r6
        0x00000e14:    63e5        .c      STR      r5,[r4,#0x3c]
        0x00000e16:    6865        eh      LDR      r5,[r4,#4]
        0x00000e18:    4e10        .N      LDR      r6,[pc,#64] ; [0xe5c] = 0x1010000
        0x00000e1a:    4335        5C      ORRS     r5,r5,r6
        0x00000e1c:    6065        e`      STR      r5,[r4,#4]
        0x00000e1e:    6082        .`      STR      r2,[r0,#8]
        0x00000e20:    2228        ("      MOVS     r2,#0x28
        0x00000e22:    00c9        ..      LSLS     r1,r1,#3
        0x00000e24:    1809        ..      ADDS     r1,r1,r0
        0x00000e26:    60ca        .`      STR      r2,[r1,#0xc]
        0x00000e28:    222b        +"      MOVS     r2,#0x2b
        0x00000e2a:    6002        .`      STR      r2,[r0,#0]
        0x00000e2c:    3080        .0      ADDS     r0,r0,#0x80
        0x00000e2e:    6842        Bh      LDR      r2,[r0,#4]
        0x00000e30:    4c0b        .L      LDR      r4,[pc,#44] ; [0xe60] = 0xa0000c0
        0x00000e32:    4322        "C      ORRS     r2,r2,r4
        0x00000e34:    6042        B`      STR      r2,[r0,#4]
        0x00000e36:    610b        .a      STR      r3,[r1,#0x10]
        0x00000e38:    bc70        p.      POP      {r4-r6}
        0x00000e3a:    4770        pG      BX       lr
        0x00000e3c:    6be5        .k      LDR      r5,[r4,#0x3c]
        0x00000e3e:    2601        .&      MOVS     r6,#1
        0x00000e40:    0636        6.      LSLS     r6,r6,#24
        0x00000e42:    4335        5C      ORRS     r5,r5,r6
        0x00000e44:    63e5        .c      STR      r5,[r4,#0x3c]
        0x00000e46:    e7e6        ..      B        0xe16 ; PWM_Init + 30
        0x00000e48:    6be5        .k      LDR      r5,[r4,#0x3c]
        0x00000e4a:    2601        .&      MOVS     r6,#1
        0x00000e4c:    0676        v.      LSLS     r6,r6,#25
        0x00000e4e:    4335        5C      ORRS     r5,r5,r6
        0x00000e50:    63e5        .c      STR      r5,[r4,#0x3c]
        0x00000e52:    e7e0        ..      B        0xe16 ; PWM_Init + 30
    $d
        0x00000e54:    bffc8000    ....    DCD    3220996096
        0x00000e58:    40048000    ...@    DCD    1074036736
        0x00000e5c:    01010000    ....    DCD    16842752
        0x00000e60:    0a0000c0    ....    DCD    167772352
    $t
    i.Process_Profile_Sample
    Process_Profile_Sample
        0x00000e64:    b470        p.      PUSH     {r4-r6}
        0x00000e66:    f3ef8008    ....    MRS      r0,MSP
        0x00000e6a:    6ac1        .j      LDR      r1,[r0,#0x2c]
        0x00000e6c:    4815        .H      LDR      r0,[pc,#84] ; [0xec4] = 0x1ffff000
        0x00000e6e:    6101        .a      STR      r1,[r0,#0x10]
        0x00000e70:    68c1        .h      LDR      r1,[r0,#0xc]
        0x00000e72:    1c49        I.      ADDS     r1,r1,#1
        0x00000e74:    60c1        .`      STR      r1,[r0,#0xc]
        0x00000e76:    4d14        .M      LDR      r5,[pc,#80] ; [0xec8] = 0x4db8
        0x00000e78:    2100        .!      MOVS     r1,#0
        0x00000e7a:    682a        *h      LDR      r2,[r5,#0]
        0x00000e7c:    2a00        .*      CMP      r2,#0
        0x00000e7e:    d916        ..      BLS      0xeae ; Process_Profile_Sample + 74
        0x00000e80:    4e12        .N      LDR      r6,[pc,#72] ; [0xecc] = 0x3e78
        0x00000e82:    014a        J.      LSLS     r2,r1,#5
        0x00000e84:    58b3        .X      LDR      r3,[r6,r2]
        0x00000e86:    6904        .i      LDR      r4,[r0,#0x10]
        0x00000e88:    085b        [.      LSRS     r3,r3,#1
        0x00000e8a:    005b        [.      LSLS     r3,r3,#1
        0x00000e8c:    1992        ..      ADDS     r2,r2,r6
        0x00000e8e:    6852        Rh      LDR      r2,[r2,#4]
        0x00000e90:    429c        .B      CMP      r4,r3
        0x00000e92:    d308        ..      BCC      0xea6 ; Process_Profile_Sample + 66
        0x00000e94:    6903        .i      LDR      r3,[r0,#0x10]
        0x00000e96:    4293        .B      CMP      r3,r2
        0x00000e98:    d805        ..      BHI      0xea6 ; Process_Profile_Sample + 66
        0x00000e9a:    4c0d        .L      LDR      r4,[pc,#52] ; [0xed0] = 0x1ffff2dc
        0x00000e9c:    008a        ..      LSLS     r2,r1,#2
        0x00000e9e:    58a3        .X      LDR      r3,[r4,r2]
        0x00000ea0:    1c5b        [.      ADDS     r3,r3,#1
        0x00000ea2:    50a3        .P      STR      r3,[r4,r2]
        0x00000ea4:    e003        ..      B        0xeae ; Process_Profile_Sample + 74
        0x00000ea6:    682a        *h      LDR      r2,[r5,#0]
        0x00000ea8:    1c49        I.      ADDS     r1,r1,#1
        0x00000eaa:    4291        .B      CMP      r1,r2
        0x00000eac:    d3e9        ..      BCC      0xe82 ; Process_Profile_Sample + 30
        0x00000eae:    682a        *h      LDR      r2,[r5,#0]
        0x00000eb0:    4291        .B      CMP      r1,r2
        0x00000eb2:    d104        ..      BNE      0xebe ; Process_Profile_Sample + 90
        0x00000eb4:    6901        .i      LDR      r1,[r0,#0x10]
        0x00000eb6:    6041        A`      STR      r1,[r0,#4]
        0x00000eb8:    6881        .h      LDR      r1,[r0,#8]
        0x00000eba:    1c49        I.      ADDS     r1,r1,#1
        0x00000ebc:    6081        .`      STR      r1,[r0,#8]
        0x00000ebe:    bc70        p.      POP      {r4-r6}
        0x00000ec0:    4770        pG      BX       lr
    $d
        0x00000ec2:    0000        ..      DCW    0
        0x00000ec4:    1ffff000    ....    DCD    536866816
        0x00000ec8:    00004db8    .M..    DCD    19896
        0x00000ecc:    00003e78    x>..    DCD    15992
        0x00000ed0:    1ffff2dc    ....    DCD    536867548
    $t
    i.Q_Dequeue
    Q_Dequeue
        0x00000ed4:    b510        ..      PUSH     {r4,lr}
        0x00000ed6:    4601        .F      MOV      r1,r0
        0x00000ed8:    2200        ."      MOVS     r2,#0
        0x00000eda:    f000f819    ....    BL       Q_Empty ; 0xf10
        0x00000ede:    2800        .(      CMP      r0,#0
        0x00000ee0:    d114        ..      BNE      0xf0c ; Q_Dequeue + 56
        0x00000ee2:    680a        .h      LDR      r2,[r1,#0]
        0x00000ee4:    4608        .F      MOV      r0,r1
        0x00000ee6:    300c        .0      ADDS     r0,r0,#0xc
        0x00000ee8:    5c12        .\      LDRB     r2,[r2,r0]
        0x00000eea:    6808        .h      LDR      r0,[r1,#0]
        0x00000eec:    235f        _#      MOVS     r3,#0x5f
        0x00000eee:    180c        ..      ADDS     r4,r1,r0
        0x00000ef0:    1c40        @.      ADDS     r0,r0,#1
        0x00000ef2:    6008        .`      STR      r0,[r1,#0]
        0x00000ef4:    7323        #s      STRB     r3,[r4,#0xc]
        0x00000ef6:    6808        .h      LDR      r0,[r1,#0]
        0x00000ef8:    b2c0        ..      UXTB     r0,r0
        0x00000efa:    6008        .`      STR      r0,[r1,#0]
        0x00000efc:    f3ef8010    ....    MRS      r0,PRIMASK
        0x00000f00:    b672        r.      CPSID    i
        0x00000f02:    688b        .h      LDR      r3,[r1,#8]
        0x00000f04:    1e5b        [.      SUBS     r3,r3,#1
        0x00000f06:    608b        .`      STR      r3,[r1,#8]
        0x00000f08:    f3808810    ....    MSR      PRIMASK,r0
        0x00000f0c:    4610        .F      MOV      r0,r2
        0x00000f0e:    bd10        ..      POP      {r4,pc}
    i.Q_Empty
    Q_Empty
        0x00000f10:    6880        .h      LDR      r0,[r0,#8]
        0x00000f12:    2800        .(      CMP      r0,#0
        0x00000f14:    d001        ..      BEQ      0xf1a ; Q_Empty + 10
        0x00000f16:    2000        .       MOVS     r0,#0
        0x00000f18:    4770        pG      BX       lr
        0x00000f1a:    2001        .       MOVS     r0,#1
        0x00000f1c:    4770        pG      BX       lr
    i.Q_Enqueue
    Q_Enqueue
        0x00000f1e:    b500        ..      PUSH     {lr}
        0x00000f20:    460b        .F      MOV      r3,r1
        0x00000f22:    4602        .F      MOV      r2,r0
        0x00000f24:    f000f816    ....    BL       Q_Full ; 0xf54
        0x00000f28:    2800        .(      CMP      r0,#0
        0x00000f2a:    d001        ..      BEQ      0xf30 ; Q_Enqueue + 18
        0x00000f2c:    2000        .       MOVS     r0,#0
        0x00000f2e:    bd00        ..      POP      {pc}
        0x00000f30:    6850        Ph      LDR      r0,[r2,#4]
        0x00000f32:    1811        ..      ADDS     r1,r2,r0
        0x00000f34:    1c40        @.      ADDS     r0,r0,#1
        0x00000f36:    6050        P`      STR      r0,[r2,#4]
        0x00000f38:    730b        .s      STRB     r3,[r1,#0xc]
        0x00000f3a:    6850        Ph      LDR      r0,[r2,#4]
        0x00000f3c:    b2c0        ..      UXTB     r0,r0
        0x00000f3e:    6050        P`      STR      r0,[r2,#4]
        0x00000f40:    f3ef8010    ....    MRS      r0,PRIMASK
        0x00000f44:    b672        r.      CPSID    i
        0x00000f46:    6891        .h      LDR      r1,[r2,#8]
        0x00000f48:    1c49        I.      ADDS     r1,r1,#1
        0x00000f4a:    6091        .`      STR      r1,[r2,#8]
        0x00000f4c:    f3808810    ....    MSR      PRIMASK,r0
        0x00000f50:    2001        .       MOVS     r0,#1
        0x00000f52:    bd00        ..      POP      {pc}
    i.Q_Full
    Q_Full
        0x00000f54:    6880        .h      LDR      r0,[r0,#8]
        0x00000f56:    1fc1        ..      SUBS     r1,r0,#7
        0x00000f58:    39f9        .9      SUBS     r1,r1,#0xf9
        0x00000f5a:    d001        ..      BEQ      0xf60 ; Q_Full + 12
        0x00000f5c:    2000        .       MOVS     r0,#0
        0x00000f5e:    4770        pG      BX       lr
        0x00000f60:    2001        .       MOVS     r0,#1
        0x00000f62:    4770        pG      BX       lr
    i.SD_Init
    SD_Init
        0x00000f64:    b5fe        ..      PUSH     {r1-r7,lr}
        0x00000f66:    4605        .F      MOV      r5,r0
        0x00000f68:    2001        .       MOVS     r0,#1
        0x00000f6a:    4972        rI      LDR      r1,[pc,#456] ; [0x1134] = 0x400ff040
        0x00000f6c:    0240        @.      LSLS     r0,r0,#9
        0x00000f6e:    6048        H`      STR      r0,[r1,#4]
        0x00000f70:    2400        .$      MOVS     r4,#0
        0x00000f72:    9401        ..      STR      r4,[sp,#4]
        0x00000f74:    f000f956    ..V.    BL       SPI_Init ; 0x1224
        0x00000f78:    f000f938    ..8.    BL       SPI_CS_High ; 0x11ec
        0x00000f7c:    f000f94c    ..L.    BL       SPI_Freq_Low ; 0x1218
        0x00000f80:    2600        .&      MOVS     r6,#0
        0x00000f82:    20ff        .       MOVS     r0,#0xff
        0x00000f84:    f000f978    ..x.    BL       SPI_RW ; 0x1278
        0x00000f88:    1c76        v.      ADDS     r6,r6,#1
        0x00000f8a:    b2f6        ..      UXTB     r6,r6
        0x00000f8c:    2e0a        ..      CMP      r6,#0xa
        0x00000f8e:    d1f8        ..      BNE      0xf82 ; SD_Init + 30
        0x00000f90:    20ff        .       MOVS     r0,#0xff
        0x00000f92:    30f5        .0      ADDS     r0,r0,#0xf5
        0x00000f94:    f000f99c    ....    BL       SPI_Timer_On ; 0x12d0
        0x00000f98:    4e66        fN      LDR      r6,[pc,#408] ; [0x1134] = 0x400ff040
        0x00000f9a:    1577        w.      ASRS     r7,r6,#21
        0x00000f9c:    e000        ..      B        0xfa0 ; SD_Init + 60
        0x00000f9e:    60f7        .`      STR      r7,[r6,#0xc]
        0x00000fa0:    f000f9a8    ....    BL       SPI_Timer_Status ; 0x12f4
        0x00000fa4:    2801        .(      CMP      r0,#1
        0x00000fa6:    d0fa        ..      BEQ      0xf9e ; SD_Init + 58
        0x00000fa8:    6077        w`      STR      r7,[r6,#4]
        0x00000faa:    f000f98b    ....    BL       SPI_Timer_Off ; 0x12c4
        0x00000fae:    2000        .       MOVS     r0,#0
        0x00000fb0:    7028        (p      STRB     r0,[r5,#0]
        0x00000fb2:    20ff        .       MOVS     r0,#0xff
        0x00000fb4:    30f5        .0      ADDS     r0,r0,#0xf5
        0x00000fb6:    f000f98b    ....    BL       SPI_Timer_On ; 0x12d0
        0x00000fba:    e000        ..      B        0xfbe ; SD_Init + 90
        0x00000fbc:    60f7        .`      STR      r7,[r6,#0xc]
        0x00000fbe:    2100        .!      MOVS     r1,#0
        0x00000fc0:    2040        @       MOVS     r0,#0x40
        0x00000fc2:    f000fb43    ..C.    BL       __SD_Send_Cmd ; 0x164c
        0x00000fc6:    2801        .(      CMP      r0,#1
        0x00000fc8:    d003        ..      BEQ      0xfd2 ; SD_Init + 110
        0x00000fca:    f000f993    ....    BL       SPI_Timer_Status ; 0x12f4
        0x00000fce:    2801        .(      CMP      r0,#1
        0x00000fd0:    d0f4        ..      BEQ      0xfbc ; SD_Init + 88
        0x00000fd2:    2001        .       MOVS     r0,#1
        0x00000fd4:    4957        WI      LDR      r1,[pc,#348] ; [0x1134] = 0x400ff040
        0x00000fd6:    0240        @.      LSLS     r0,r0,#9
        0x00000fd8:    6048        H`      STR      r0,[r1,#4]
        0x00000fda:    f000f973    ..s.    BL       SPI_Timer_Off ; 0x12c4
        0x00000fde:    2100        .!      MOVS     r1,#0
        0x00000fe0:    2040        @       MOVS     r0,#0x40
        0x00000fe2:    f000fb33    ..3.    BL       __SD_Send_Cmd ; 0x164c
        0x00000fe6:    2801        .(      CMP      r0,#1
        0x00000fe8:    d17d        }.      BNE      0x10e6 ; SD_Init + 386
        0x00000fea:    21ff        .!      MOVS     r1,#0xff
        0x00000fec:    31ab        .1      ADDS     r1,r1,#0xab
        0x00000fee:    2048        H       MOVS     r0,#0x48
        0x00000ff0:    f000fb2c    ..,.    BL       __SD_Send_Cmd ; 0x164c
        0x00000ff4:    2801        .(      CMP      r0,#1
        0x00000ff6:    d008        ..      BEQ      0x100a ; SD_Init + 166
        0x00000ff8:    2100        .!      MOVS     r1,#0
        0x00000ffa:    20e9        .       MOVS     r0,#0xe9
        0x00000ffc:    f000fb26    ..&.    BL       __SD_Send_Cmd ; 0x164c
        0x00001000:    2801        .(      CMP      r0,#1
        0x00001002:    d846        F.      BHI      0x1092 ; SD_Init + 302
        0x00001004:    2402        .$      MOVS     r4,#2
        0x00001006:    20e9        .       MOVS     r0,#0xe9
        0x00001008:    e045        E.      B        0x1096 ; SD_Init + 306
        0x0000100a:    2600        .&      MOVS     r6,#0
        0x0000100c:    466f        oF      MOV      r7,sp
        0x0000100e:    20ff        .       MOVS     r0,#0xff
        0x00001010:    f000f932    ..2.    BL       SPI_RW ; 0x1278
        0x00001014:    55b8        .U      STRB     r0,[r7,r6]
        0x00001016:    1c76        v.      ADDS     r6,r6,#1
        0x00001018:    b2f6        ..      UXTB     r6,r6
        0x0000101a:    2e04        ..      CMP      r6,#4
        0x0000101c:    d3f7        ..      BCC      0x100e ; SD_Init + 170
        0x0000101e:    4668        hF      MOV      r0,sp
        0x00001020:    7880        .x      LDRB     r0,[r0,#2]
        0x00001022:    2801        .(      CMP      r0,#1
        0x00001024:    d15f        _.      BNE      0x10e6 ; SD_Init + 386
        0x00001026:    4668        hF      MOV      r0,sp
        0x00001028:    78c0        .x      LDRB     r0,[r0,#3]
        0x0000102a:    28aa        .(      CMP      r0,#0xaa
        0x0000102c:    d15b        [.      BNE      0x10e6 ; SD_Init + 386
        0x0000102e:    207d        }       MOVS     r0,#0x7d
        0x00001030:    00c0        ..      LSLS     r0,r0,#3
        0x00001032:    f000f94d    ..M.    BL       SPI_Timer_On ; 0x12d0
        0x00001036:    2601        .&      MOVS     r6,#1
        0x00001038:    0276        v.      LSLS     r6,r6,#9
        0x0000103a:    e001        ..      B        0x1040 ; SD_Init + 220
        0x0000103c:    483d        =H      LDR      r0,[pc,#244] ; [0x1134] = 0x400ff040
        0x0000103e:    60c6        .`      STR      r6,[r0,#0xc]
        0x00001040:    f000f958    ..X.    BL       SPI_Timer_Status ; 0x12f4
        0x00001044:    2801        .(      CMP      r0,#1
        0x00001046:    d105        ..      BNE      0x1054 ; SD_Init + 240
        0x00001048:    0781        ..      LSLS     r1,r0,#30
        0x0000104a:    20e9        .       MOVS     r0,#0xe9
        0x0000104c:    f000fafe    ....    BL       __SD_Send_Cmd ; 0x164c
        0x00001050:    2800        .(      CMP      r0,#0
        0x00001052:    d1f3        ..      BNE      0x103c ; SD_Init + 216
        0x00001054:    4837        7H      LDR      r0,[pc,#220] ; [0x1134] = 0x400ff040
        0x00001056:    6046        F`      STR      r6,[r0,#4]
        0x00001058:    f000f934    ..4.    BL       SPI_Timer_Off ; 0x12c4
        0x0000105c:    f000f94a    ..J.    BL       SPI_Timer_Status ; 0x12f4
        0x00001060:    2801        .(      CMP      r0,#1
        0x00001062:    d140        @.      BNE      0x10e6 ; SD_Init + 386
        0x00001064:    2100        .!      MOVS     r1,#0
        0x00001066:    207a        z       MOVS     r0,#0x7a
        0x00001068:    f000faf0    ....    BL       __SD_Send_Cmd ; 0x164c
        0x0000106c:    2800        .(      CMP      r0,#0
        0x0000106e:    d13a        :.      BNE      0x10e6 ; SD_Init + 386
        0x00001070:    2400        .$      MOVS     r4,#0
        0x00001072:    20ff        .       MOVS     r0,#0xff
        0x00001074:    f000f900    ....    BL       SPI_RW ; 0x1278
        0x00001078:    5538        8U      STRB     r0,[r7,r4]
        0x0000107a:    1c64        d.      ADDS     r4,r4,#1
        0x0000107c:    b2e4        ..      UXTB     r4,r4
        0x0000107e:    2c04        .,      CMP      r4,#4
        0x00001080:    d3f7        ..      BCC      0x1072 ; SD_Init + 270
        0x00001082:    4668        hF      MOV      r0,sp
        0x00001084:    7800        .x      LDRB     r0,[r0,#0]
        0x00001086:    0640        @.      LSLS     r0,r0,#25
        0x00001088:    d501        ..      BPL      0x108e ; SD_Init + 298
        0x0000108a:    240c        .$      MOVS     r4,#0xc
        0x0000108c:    e02b        +.      B        0x10e6 ; SD_Init + 386
        0x0000108e:    2404        .$      MOVS     r4,#4
        0x00001090:    e029        ).      B        0x10e6 ; SD_Init + 386
        0x00001092:    2401        .$      MOVS     r4,#1
        0x00001094:    2041        A       MOVS     r0,#0x41
        0x00001096:    9002        ..      STR      r0,[sp,#8]
        0x00001098:    20fa        .       MOVS     r0,#0xfa
        0x0000109a:    f000f919    ....    BL       SPI_Timer_On ; 0x12d0
        0x0000109e:    4f25        %O      LDR      r7,[pc,#148] ; [0x1134] = 0x400ff040
        0x000010a0:    157e        ~.      ASRS     r6,r7,#21
        0x000010a2:    e000        ..      B        0x10a6 ; SD_Init + 322
        0x000010a4:    60fe        .`      STR      r6,[r7,#0xc]
        0x000010a6:    f000f925    ..%.    BL       SPI_Timer_Status ; 0x12f4
        0x000010aa:    2801        .(      CMP      r0,#1
        0x000010ac:    d105        ..      BNE      0x10ba ; SD_Init + 342
        0x000010ae:    2100        .!      MOVS     r1,#0
        0x000010b0:    9802        ..      LDR      r0,[sp,#8]
        0x000010b2:    f000facb    ....    BL       __SD_Send_Cmd ; 0x164c
        0x000010b6:    2800        .(      CMP      r0,#0
        0x000010b8:    d1f4        ..      BNE      0x10a4 ; SD_Init + 320
        0x000010ba:    607e        ~`      STR      r6,[r7,#4]
        0x000010bc:    f000f902    ....    BL       SPI_Timer_Off ; 0x12c4
        0x000010c0:    f000f918    ....    BL       SPI_Timer_Status ; 0x12f4
        0x000010c4:    2800        .(      CMP      r0,#0
        0x000010c6:    d100        ..      BNE      0x10ca ; SD_Init + 358
        0x000010c8:    2400        .$      MOVS     r4,#0
        0x000010ca:    2100        .!      MOVS     r1,#0
        0x000010cc:    207b        {       MOVS     r0,#0x7b
        0x000010ce:    f000fabd    ....    BL       __SD_Send_Cmd ; 0x164c
        0x000010d2:    2800        .(      CMP      r0,#0
        0x000010d4:    d000        ..      BEQ      0x10d8 ; SD_Init + 372
        0x000010d6:    2400        .$      MOVS     r4,#0
        0x000010d8:    4631        1F      MOV      r1,r6
        0x000010da:    2050        P       MOVS     r0,#0x50
        0x000010dc:    f000fab6    ....    BL       __SD_Send_Cmd ; 0x164c
        0x000010e0:    2800        .(      CMP      r0,#0
        0x000010e2:    d000        ..      BEQ      0x10e6 ; SD_Init + 386
        0x000010e4:    2400        .$      MOVS     r4,#0
        0x000010e6:    9801        ..      LDR      r0,[sp,#4]
        0x000010e8:    1c40        @.      ADDS     r0,r0,#1
        0x000010ea:    b2c0        ..      UXTB     r0,r0
        0x000010ec:    9001        ..      STR      r0,[sp,#4]
        0x000010ee:    2803        .(      CMP      r0,#3
        0x000010f0:    d003        ..      BEQ      0x10fa ; SD_Init + 406
        0x000010f2:    2c00        .,      CMP      r4,#0
        0x000010f4:    d100        ..      BNE      0x10f8 ; SD_Init + 404
        0x000010f6:    e73d        =.      B        0xf74 ; SD_Init + 16
        0x000010f8:    e001        ..      B        0x10fe ; SD_Init + 410
        0x000010fa:    2c00        .,      CMP      r4,#0
        0x000010fc:    d00d        ..      BEQ      0x111a ; SD_Init + 438
        0x000010fe:    706c        lp      STRB     r4,[r5,#1]
        0x00001100:    2001        .       MOVS     r0,#1
        0x00001102:    7028        (p      STRB     r0,[r5,#0]
        0x00001104:    4628        (F      MOV      r0,r5
        0x00001106:    f000fa44    ..D.    BL       __SD_Sectors ; 0x1592
        0x0000110a:    1e40        @.      SUBS     r0,r0,#1
        0x0000110c:    6068        h`      STR      r0,[r5,#4]
        0x0000110e:    2000        .       MOVS     r0,#0
        0x00001110:    8128        (.      STRH     r0,[r5,#8]
        0x00001112:    8168        h.      STRH     r0,[r5,#0xa]
        0x00001114:    2001        .       MOVS     r0,#1
        0x00001116:    f000fae9    ....    BL       __SD_Speed_Transfer ; 0x16ec
        0x0000111a:    f000f8c5    ....    BL       SPI_Release ; 0x12a8
        0x0000111e:    2001        .       MOVS     r0,#1
        0x00001120:    4904        .I      LDR      r1,[pc,#16] ; [0x1134] = 0x400ff040
        0x00001122:    0240        @.      LSLS     r0,r0,#9
        0x00001124:    6088        .`      STR      r0,[r1,#8]
        0x00001126:    2c00        .,      CMP      r4,#0
        0x00001128:    d001        ..      BEQ      0x112e ; SD_Init + 458
        0x0000112a:    2000        .       MOVS     r0,#0
        0x0000112c:    bdfe        ..      POP      {r1-r7,pc}
        0x0000112e:    2001        .       MOVS     r0,#1
        0x00001130:    bdfe        ..      POP      {r1-r7,pc}
    $d
        0x00001132:    0000        ..      DCW    0
        0x00001134:    400ff040    @..@    DCD    1074786368
    $t
    i.SD_Read
    SD_Read
        0x00001138:    b5ff        ..      PUSH     {r0-r7,lr}
        0x0000113a:    4606        .F      MOV      r6,r0
        0x0000113c:    4c29        )L      LDR      r4,[pc,#164] ; [0x11e4] = 0x400ff040
        0x0000113e:    b081        ..      SUB      sp,sp,#4
        0x00001140:    2004        .       MOVS     r0,#4
        0x00001142:    461f        .F      MOV      r7,r3
        0x00001144:    6060        ``      STR      r0,[r4,#4]
        0x00001146:    2002        .       MOVS     r0,#2
        0x00001148:    9000        ..      STR      r0,[sp,#0]
        0x0000114a:    6870        ph      LDR      r0,[r6,#4]
        0x0000114c:    4290        .B      CMP      r0,r2
        0x0000114e:    d309        ..      BCC      0x1164 ; SD_Read + 44
        0x00001150:    980a        ..      LDR      r0,[sp,#0x28]
        0x00001152:    2800        .(      CMP      r0,#0
        0x00001154:    d006        ..      BEQ      0x1164 ; SD_Read + 44
        0x00001156:    4611        .F      MOV      r1,r2
        0x00001158:    2051        Q       MOVS     r0,#0x51
        0x0000115a:    f000fa77    ..w.    BL       __SD_Send_Cmd ; 0x164c
        0x0000115e:    2800        .(      CMP      r0,#0
        0x00001160:    d005        ..      BEQ      0x116e ; SD_Read + 54
        0x00001162:    e035        5.      B        0x11d0 ; SD_Read + 152
        0x00001164:    2004        .       MOVS     r0,#4
        0x00001166:    60a0        .`      STR      r0,[r4,#8]
        0x00001168:    2003        .       MOVS     r0,#3
        0x0000116a:    b005        ..      ADD      sp,sp,#0x14
        0x0000116c:    bdf0        ..      POP      {r4-r7,pc}
        0x0000116e:    2064        d       MOVS     r0,#0x64
        0x00001170:    f000f8ae    ....    BL       SPI_Timer_On ; 0x12d0
        0x00001174:    2004        .       MOVS     r0,#4
        0x00001176:    60e0        .`      STR      r0,[r4,#0xc]
        0x00001178:    20ff        .       MOVS     r0,#0xff
        0x0000117a:    f000f87d    ..}.    BL       SPI_RW ; 0x1278
        0x0000117e:    4605        .F      MOV      r5,r0
        0x00001180:    28ff        .(      CMP      r0,#0xff
        0x00001182:    d103        ..      BNE      0x118c ; SD_Read + 84
        0x00001184:    f000f8b6    ....    BL       SPI_Timer_Status ; 0x12f4
        0x00001188:    2801        .(      CMP      r0,#1
        0x0000118a:    d0f3        ..      BEQ      0x1174 ; SD_Read + 60
        0x0000118c:    2004        .       MOVS     r0,#4
        0x0000118e:    6060        ``      STR      r0,[r4,#4]
        0x00001190:    f000f898    ....    BL       SPI_Timer_Off ; 0x12c4
        0x00001194:    2dfe        .-      CMP      r5,#0xfe
        0x00001196:    d11b        ..      BNE      0x11d0 ; SD_Read + 152
        0x00001198:    980a        ..      LDR      r0,[sp,#0x28]
        0x0000119a:    2500        .%      MOVS     r5,#0
        0x0000119c:    1838        8.      ADDS     r0,r7,r0
        0x0000119e:    9000        ..      STR      r0,[sp,#0]
        0x000011a0:    2004        .       MOVS     r0,#4
        0x000011a2:    60e0        .`      STR      r0,[r4,#0xc]
        0x000011a4:    20ff        .       MOVS     r0,#0xff
        0x000011a6:    f000f867    ..g.    BL       SPI_RW ; 0x1278
        0x000011aa:    42bd        .B      CMP      r5,r7
        0x000011ac:    d307        ..      BCC      0x11be ; SD_Read + 134
        0x000011ae:    9900        ..      LDR      r1,[sp,#0]
        0x000011b0:    42a9        .B      CMP      r1,r5
        0x000011b2:    d904        ..      BLS      0x11be ; SD_Read + 134
        0x000011b4:    9902        ..      LDR      r1,[sp,#8]
        0x000011b6:    7008        .p      STRB     r0,[r1,#0]
        0x000011b8:    9802        ..      LDR      r0,[sp,#8]
        0x000011ba:    1c40        @.      ADDS     r0,r0,#1
        0x000011bc:    9002        ..      STR      r0,[sp,#8]
        0x000011be:    1c6d        m.      ADDS     r5,r5,#1
        0x000011c0:    4809        .H      LDR      r0,[pc,#36] ; [0x11e8] = 0x202
        0x000011c2:    b2ad        ..      UXTH     r5,r5
        0x000011c4:    4285        .B      CMP      r5,r0
        0x000011c6:    d3eb        ..      BCC      0x11a0 ; SD_Read + 104
        0x000011c8:    2004        .       MOVS     r0,#4
        0x000011ca:    6060        ``      STR      r0,[r4,#4]
        0x000011cc:    2000        .       MOVS     r0,#0
        0x000011ce:    9000        ..      STR      r0,[sp,#0]
        0x000011d0:    f000f86a    ..j.    BL       SPI_Release ; 0x12a8
        0x000011d4:    8930        0.      LDRH     r0,[r6,#8]
        0x000011d6:    1c40        @.      ADDS     r0,r0,#1
        0x000011d8:    8130        0.      STRH     r0,[r6,#8]
        0x000011da:    2004        .       MOVS     r0,#4
        0x000011dc:    60a0        .`      STR      r0,[r4,#8]
        0x000011de:    9800        ..      LDR      r0,[sp,#0]
        0x000011e0:    e7c3        ..      B        0x116a ; SD_Read + 50
    $d
        0x000011e2:    0000        ..      DCW    0
        0x000011e4:    400ff040    @..@    DCD    1074786368
        0x000011e8:    00000202    ....    DCD    514
    $t
    i.SPI_CS_High
    SPI_CS_High
        0x000011ec:    4802        .H      LDR      r0,[pc,#8] ; [0x11f8] = 0x400ff100
        0x000011ee:    6801        .h      LDR      r1,[r0,#0]
        0x000011f0:    2210        ."      MOVS     r2,#0x10
        0x000011f2:    4311        .C      ORRS     r1,r1,r2
        0x000011f4:    6001        .`      STR      r1,[r0,#0]
        0x000011f6:    4770        pG      BX       lr
    $d
        0x000011f8:    400ff100    ...@    DCD    1074786560
    $t
    i.SPI_CS_Low
    SPI_CS_Low
        0x000011fc:    4802        .H      LDR      r0,[pc,#8] ; [0x1208] = 0x400ff100
        0x000011fe:    6801        .h      LDR      r1,[r0,#0]
        0x00001200:    2210        ."      MOVS     r2,#0x10
        0x00001202:    4391        .C      BICS     r1,r1,r2
        0x00001204:    6001        .`      STR      r1,[r0,#0]
        0x00001206:    4770        pG      BX       lr
    $d
        0x00001208:    400ff100    ...@    DCD    1074786560
    $t
    i.SPI_Freq_High
    SPI_Freq_High
        0x0000120c:    4901        .I      LDR      r1,[pc,#4] ; [0x1214] = 0x40077000
        0x0000120e:    2001        .       MOVS     r0,#1
        0x00001210:    7088        .p      STRB     r0,[r1,#2]
        0x00001212:    4770        pG      BX       lr
    $d
        0x00001214:    40077000    .p.@    DCD    1074229248
    $t
    i.SPI_Freq_Low
    SPI_Freq_Low
        0x00001218:    4901        .I      LDR      r1,[pc,#4] ; [0x1220] = 0x40077000
        0x0000121a:    2044        D       MOVS     r0,#0x44
        0x0000121c:    7088        .p      STRB     r0,[r1,#2]
        0x0000121e:    4770        pG      BX       lr
    $d
        0x00001220:    40077000    .p.@    DCD    1074229248
    $t
    i.SPI_Init
    SPI_Init
        0x00001224:    480f        .H      LDR      r0,[pc,#60] ; [0x1264] = 0x40048000
        0x00001226:    6b81        .k      LDR      r1,[r0,#0x38]
        0x00001228:    2201        ."      MOVS     r2,#1
        0x0000122a:    0352        R.      LSLS     r2,r2,#13
        0x0000122c:    4311        .C      ORRS     r1,r1,r2
        0x0000122e:    6381        .c      STR      r1,[r0,#0x38]
        0x00001230:    6b41        Ak      LDR      r1,[r0,#0x34]
        0x00001232:    0292        ..      LSLS     r2,r2,#10
        0x00001234:    4311        .C      ORRS     r1,r1,r2
        0x00001236:    6341        Ac      STR      r1,[r0,#0x34]
        0x00001238:    21ff        .!      MOVS     r1,#0xff
        0x0000123a:    480b        .H      LDR      r0,[pc,#44] ; [0x1268] = 0x4004d000
        0x0000123c:    3141        A1      ADDS     r1,r1,#0x41
        0x0000123e:    6101        .a      STR      r1,[r0,#0x10]
        0x00001240:    490a        .I      LDR      r1,[pc,#40] ; [0x126c] = 0x400ff100
        0x00001242:    694a        Ji      LDR      r2,[r1,#0x14]
        0x00001244:    2310        .#      MOVS     r3,#0x10
        0x00001246:    431a        .C      ORRS     r2,r2,r3
        0x00001248:    614a        Ja      STR      r2,[r1,#0x14]
        0x0000124a:    2109        .!      MOVS     r1,#9
        0x0000124c:    0189        ..      LSLS     r1,r1,#6
        0x0000124e:    6081        .`      STR      r1,[r0,#8]
        0x00001250:    6041        A`      STR      r1,[r0,#4]
        0x00001252:    4907        .I      LDR      r1,[pc,#28] ; [0x1270] = 0x203
        0x00001254:    60c1        .`      STR      r1,[r0,#0xc]
        0x00001256:    4807        .H      LDR      r0,[pc,#28] ; [0x1274] = 0x40077000
        0x00001258:    21d0        .!      MOVS     r1,#0xd0
        0x0000125a:    7001        .p      STRB     r1,[r0,#0]
        0x0000125c:    2100        .!      MOVS     r1,#0
        0x0000125e:    7041        Ap      STRB     r1,[r0,#1]
        0x00001260:    70c1        .p      STRB     r1,[r0,#3]
        0x00001262:    4770        pG      BX       lr
    $d
        0x00001264:    40048000    ...@    DCD    1074036736
        0x00001268:    4004d000    ...@    DCD    1074057216
        0x0000126c:    400ff100    ...@    DCD    1074786560
        0x00001270:    00000203    ....    DCD    515
        0x00001274:    40077000    .p.@    DCD    1074229248
    $t
    i.SPI_RW
    SPI_RW
        0x00001278:    b510        ..      PUSH     {r4,lr}
        0x0000127a:    4b09        .K      LDR      r3,[pc,#36] ; [0x12a0] = 0x400ff040
        0x0000127c:    2102        .!      MOVS     r1,#2
        0x0000127e:    6059        Y`      STR      r1,[r3,#4]
        0x00001280:    4a08        .J      LDR      r2,[pc,#32] ; [0x12a4] = 0x40077000
        0x00001282:    e000        ..      B        0x1286 ; SPI_RW + 14
        0x00001284:    60d9        .`      STR      r1,[r3,#0xc]
        0x00001286:    78d4        .x      LDRB     r4,[r2,#3]
        0x00001288:    06a4        ..      LSLS     r4,r4,#26
        0x0000128a:    d5fb        ..      BPL      0x1284 ; SPI_RW + 12
        0x0000128c:    6059        Y`      STR      r1,[r3,#4]
        0x0000128e:    7150        Pq      STRB     r0,[r2,#5]
        0x00001290:    e000        ..      B        0x1294 ; SPI_RW + 28
        0x00001292:    60d9        .`      STR      r1,[r3,#0xc]
        0x00001294:    78d0        .x      LDRB     r0,[r2,#3]
        0x00001296:    0600        ..      LSLS     r0,r0,#24
        0x00001298:    d5fb        ..      BPL      0x1292 ; SPI_RW + 26
        0x0000129a:    6099        .`      STR      r1,[r3,#8]
        0x0000129c:    7950        Py      LDRB     r0,[r2,#5]
        0x0000129e:    bd10        ..      POP      {r4,pc}
    $d
        0x000012a0:    400ff040    @..@    DCD    1074786368
        0x000012a4:    40077000    .p.@    DCD    1074229248
    $t
    i.SPI_Release
    SPI_Release
        0x000012a8:    b510        ..      PUSH     {r4,lr}
        0x000012aa:    2401        .$      MOVS     r4,#1
        0x000012ac:    0264        d.      LSLS     r4,r4,#9
        0x000012ae:    e003        ..      B        0x12b8 ; SPI_Release + 16
        0x000012b0:    1e64        d.      SUBS     r4,r4,#1
        0x000012b2:    0424        $.      LSLS     r4,r4,#16
        0x000012b4:    0c24        $.      LSRS     r4,r4,#16
        0x000012b6:    d004        ..      BEQ      0x12c2 ; SPI_Release + 26
        0x000012b8:    20ff        .       MOVS     r0,#0xff
        0x000012ba:    f7ffffdd    ....    BL       SPI_RW ; 0x1278
        0x000012be:    28ff        .(      CMP      r0,#0xff
        0x000012c0:    d1f6        ..      BNE      0x12b0 ; SPI_Release + 8
        0x000012c2:    bd10        ..      POP      {r4,pc}
    i.SPI_Timer_Off
    SPI_Timer_Off
        0x000012c4:    4901        .I      LDR      r1,[pc,#4] ; [0x12cc] = 0x40040000
        0x000012c6:    2000        .       MOVS     r0,#0
        0x000012c8:    6008        .`      STR      r0,[r1,#0]
        0x000012ca:    4770        pG      BX       lr
    $d
        0x000012cc:    40040000    ...@    DCD    1074003968
    $t
    i.SPI_Timer_On
    SPI_Timer_On
        0x000012d0:    4906        .I      LDR      r1,[pc,#24] ; [0x12ec] = 0x40048000
        0x000012d2:    6b8b        .k      LDR      r3,[r1,#0x38]
        0x000012d4:    2201        ."      MOVS     r2,#1
        0x000012d6:    4313        .C      ORRS     r3,r3,r2
        0x000012d8:    638b        .c      STR      r3,[r1,#0x38]
        0x000012da:    4905        .I      LDR      r1,[pc,#20] ; [0x12f0] = 0x40040000
        0x000012dc:    2300        .#      MOVS     r3,#0
        0x000012de:    600b        .`      STR      r3,[r1,#0]
        0x000012e0:    6088        .`      STR      r0,[r1,#8]
        0x000012e2:    2005        .       MOVS     r0,#5
        0x000012e4:    6048        H`      STR      r0,[r1,#4]
        0x000012e6:    600a        .`      STR      r2,[r1,#0]
        0x000012e8:    4770        pG      BX       lr
    $d
        0x000012ea:    0000        ..      DCW    0
        0x000012ec:    40048000    ...@    DCD    1074036736
        0x000012f0:    40040000    ...@    DCD    1074003968
    $t
    i.SPI_Timer_Status
    SPI_Timer_Status
        0x000012f4:    4802        .H      LDR      r0,[pc,#8] ; [0x1300] = 0x40040000
        0x000012f6:    6800        .h      LDR      r0,[r0,#0]
        0x000012f8:    0600        ..      LSLS     r0,r0,#24
        0x000012fa:    17c0        ..      ASRS     r0,r0,#31
        0x000012fc:    1c40        @.      ADDS     r0,r0,#1
        0x000012fe:    4770        pG      BX       lr
    $d
        0x00001300:    40040000    ...@    DCD    1074003968
    $t
    i.Sort_Profile_Regions
    Sort_Profile_Regions
        0x00001304:    4a25        %J      LDR      r2,[pc,#148] ; [0x139c] = 0x4db8
        0x00001306:    6810        .h      LDR      r0,[r2,#0]
        0x00001308:    2800        .(      CMP      r0,#0
        0x0000130a:    d046        F.      BEQ      0x139a ; Sort_Profile_Regions + 150
        0x0000130c:    b4f0        ..      PUSH     {r4-r7}
        0x0000130e:    7814        .x      LDRB     r4,[r2,#0]
        0x00001310:    4923        #I      LDR      r1,[pc,#140] ; [0x13a0] = 0x1ffff4c0
        0x00001312:    2000        .       MOVS     r0,#0
        0x00001314:    07e4        ..      LSLS     r4,r4,#31
        0x00001316:    d002        ..      BEQ      0x131e ; Sort_Profile_Regions + 26
        0x00001318:    6048        H`      STR      r0,[r1,#4]
        0x0000131a:    2001        .       MOVS     r0,#1
        0x0000131c:    1d09        ..      ADDS     r1,r1,#4
        0x0000131e:    6814        .h      LDR      r4,[r2,#0]
        0x00001320:    0864        d.      LSRS     r4,r4,#1
        0x00001322:    46a4        .F      MOV      r12,r4
        0x00001324:    d00c        ..      BEQ      0x1340 ; Sort_Profile_Regions + 60
        0x00001326:    1c44        D.      ADDS     r4,r0,#1
        0x00001328:    608c        .`      STR      r4,[r1,#8]
        0x0000132a:    6048        H`      STR      r0,[r1,#4]
        0x0000132c:    4664        dF      MOV      r4,r12
        0x0000132e:    1e64        d.      SUBS     r4,r4,#1
        0x00001330:    1c80        ..      ADDS     r0,r0,#2
        0x00001332:    3108        .1      ADDS     r1,r1,#8
        0x00001334:    46a4        .F      MOV      r12,r4
        0x00001336:    2c00        .,      CMP      r4,#0
        0x00001338:    d1f5        ..      BNE      0x1326 ; Sort_Profile_Regions + 34
        0x0000133a:    6810        .h      LDR      r0,[r2,#0]
        0x0000133c:    2800        .(      CMP      r0,#0
        0x0000133e:    d02a        *.      BEQ      0x1396 ; Sort_Profile_Regions + 146
        0x00001340:    6810        .h      LDR      r0,[r2,#0]
        0x00001342:    2800        .(      CMP      r0,#0
        0x00001344:    d927        '.      BLS      0x1396 ; Sort_Profile_Regions + 146
        0x00001346:    4917        .I      LDR      r1,[pc,#92] ; [0x13a4] = 0x1ffff2dc
        0x00001348:    4814        .H      LDR      r0,[pc,#80] ; [0x139c] = 0x4db8
        0x0000134a:    6802        .h      LDR      r2,[r0,#0]
        0x0000134c:    4660        `F      MOV      r0,r12
        0x0000134e:    1c40        @.      ADDS     r0,r0,#1
        0x00001350:    4282        .B      CMP      r2,r0
        0x00001352:    d919        ..      BLS      0x1388 ; Sort_Profile_Regions + 132
        0x00001354:    4a11        .J      LDR      r2,[pc,#68] ; [0x139c] = 0x4db8
        0x00001356:    4660        `F      MOV      r0,r12
        0x00001358:    6813        .h      LDR      r3,[r2,#0]
        0x0000135a:    1c40        @.      ADDS     r0,r0,#1
        0x0000135c:    4298        .B      CMP      r0,r3
        0x0000135e:    d213        ..      BCS      0x1388 ; Sort_Profile_Regions + 132
        0x00001360:    4662        bF      MOV      r2,r12
        0x00001362:    0094        ..      LSLS     r4,r2,#2
        0x00001364:    4b10        .K      LDR      r3,[pc,#64] ; [0x13a8] = 0x1ffff4c4
        0x00001366:    591a        .Y      LDR      r2,[r3,r4]
        0x00001368:    0095        ..      LSLS     r5,r2,#2
        0x0000136a:    594e        NY      LDR      r6,[r1,r5]
        0x0000136c:    0085        ..      LSLS     r5,r0,#2
        0x0000136e:    595b        [Y      LDR      r3,[r3,r5]
        0x00001370:    009f        ..      LSLS     r7,r3,#2
        0x00001372:    59cf        .Y      LDR      r7,[r1,r7]
        0x00001374:    42be        .B      CMP      r6,r7
        0x00001376:    d202        ..      BCS      0x137e ; Sort_Profile_Regions + 122
        0x00001378:    4e0b        .N      LDR      r6,[pc,#44] ; [0x13a8] = 0x1ffff4c4
        0x0000137a:    5133        3Q      STR      r3,[r6,r4]
        0x0000137c:    5172        rQ      STR      r2,[r6,r5]
        0x0000137e:    4a07        .J      LDR      r2,[pc,#28] ; [0x139c] = 0x4db8
        0x00001380:    1c40        @.      ADDS     r0,r0,#1
        0x00001382:    6812        .h      LDR      r2,[r2,#0]
        0x00001384:    4290        .B      CMP      r0,r2
        0x00001386:    d3ed        ..      BCC      0x1364 ; Sort_Profile_Regions + 96
        0x00001388:    4a04        .J      LDR      r2,[pc,#16] ; [0x139c] = 0x4db8
        0x0000138a:    4660        `F      MOV      r0,r12
        0x0000138c:    1c40        @.      ADDS     r0,r0,#1
        0x0000138e:    6812        .h      LDR      r2,[r2,#0]
        0x00001390:    4684        .F      MOV      r12,r0
        0x00001392:    4290        .B      CMP      r0,r2
        0x00001394:    d3d8        ..      BCC      0x1348 ; Sort_Profile_Regions + 68
        0x00001396:    bcf0        ..      POP      {r4-r7}
        0x00001398:    4770        pG      BX       lr
        0x0000139a:    4770        pG      BX       lr
    $d
        0x0000139c:    00004db8    .M..    DCD    19896
        0x000013a0:    1ffff4c0    ....    DCD    536868032
        0x000013a4:    1ffff2dc    ....    DCD    536867548
        0x000013a8:    1ffff4c4    ....    DCD    536868036
    $t
    i.SystemInit
    SystemInit
        0x000013ac:    482e        .H      LDR      r0,[pc,#184] ; [0x1468] = 0x40048100
        0x000013ae:    2100        .!      MOVS     r1,#0
        0x000013b0:    6001        .`      STR      r1,[r0,#0]
        0x000013b2:    482e        .H      LDR      r0,[pc,#184] ; [0x146c] = 0x4007f000
        0x000013b4:    7800        .x      LDRB     r0,[r0,#0]
        0x000013b6:    07c0        ..      LSLS     r0,r0,#31
        0x000013b8:    d007        ..      BEQ      0x13ca ; SystemInit + 30
        0x000013ba:    482d        -H      LDR      r0,[pc,#180] ; [0x1470] = 0x4007d000
        0x000013bc:    7882        .x      LDRB     r2,[r0,#2]
        0x000013be:    0712        ..      LSLS     r2,r2,#28
        0x000013c0:    d503        ..      BPL      0x13ca ; SystemInit + 30
        0x000013c2:    7882        .x      LDRB     r2,[r0,#2]
        0x000013c4:    2308        .#      MOVS     r3,#8
        0x000013c6:    431a        .C      ORRS     r2,r2,r3
        0x000013c8:    7082        .p      STRB     r2,[r0,#2]
        0x000013ca:    4a2a        *J      LDR      r2,[pc,#168] ; [0x1474] = 0x4007e000
        0x000013cc:    202a        *       MOVS     r0,#0x2a
        0x000013ce:    7010        .p      STRB     r0,[r2,#0]
        0x000013d0:    4a25        %J      LDR      r2,[pc,#148] ; [0x1468] = 0x40048100
        0x000013d2:    4829        )H      LDR      r0,[pc,#164] ; [0x1478] = 0x10010000
        0x000013d4:    3ac0        .:      SUBS     r2,r2,#0xc0
        0x000013d6:    6050        P`      STR      r0,[r2,#4]
        0x000013d8:    4828        (H      LDR      r0,[pc,#160] ; [0x147c] = 0x40047000
        0x000013da:    6802        .h      LDR      r2,[r0,#0]
        0x000013dc:    2303        .#      MOVS     r3,#3
        0x000013de:    049b        ..      LSLS     r3,r3,#18
        0x000013e0:    431a        .C      ORRS     r2,r2,r3
        0x000013e2:    6002        .`      STR      r2,[r0,#0]
        0x000013e4:    4826        &H      LDR      r0,[pc,#152] ; [0x1480] = 0x40048000
        0x000013e6:    6842        Bh      LDR      r2,[r0,#4]
        0x000013e8:    2301        .#      MOVS     r3,#1
        0x000013ea:    041b        ..      LSLS     r3,r3,#16
        0x000013ec:    431a        .C      ORRS     r2,r2,r3
        0x000013ee:    6042        B`      STR      r2,[r0,#4]
        0x000013f0:    6842        Bh      LDR      r2,[r0,#4]
        0x000013f2:    2303        .#      MOVS     r3,#3
        0x000013f4:    061b        ..      LSLS     r3,r3,#24
        0x000013f6:    439a        .C      BICS     r2,r2,r3
        0x000013f8:    2301        .#      MOVS     r3,#1
        0x000013fa:    061b        ..      LSLS     r3,r3,#24
        0x000013fc:    18d2        ..      ADDS     r2,r2,r3
        0x000013fe:    6042        B`      STR      r2,[r0,#4]
        0x00001400:    6b82        .k      LDR      r2,[r0,#0x38]
        0x00001402:    1543        C.      ASRS     r3,r0,#21
        0x00001404:    431a        .C      ORRS     r2,r2,r3
        0x00001406:    6382        .c      STR      r2,[r0,#0x38]
        0x00001408:    481e        .H      LDR      r0,[pc,#120] ; [0x1484] = 0x40049040
        0x0000140a:    6883        .h      LDR      r3,[r0,#8]
        0x0000140c:    4a1e        .J      LDR      r2,[pc,#120] ; [0x1488] = 0xfefff8ff
        0x0000140e:    4013        .@      ANDS     r3,r3,r2
        0x00001410:    6083        .`      STR      r3,[r0,#8]
        0x00001412:    68c3        .h      LDR      r3,[r0,#0xc]
        0x00001414:    4013        .@      ANDS     r3,r3,r2
        0x00001416:    60c3        .`      STR      r3,[r0,#0xc]
        0x00001418:    481c        .H      LDR      r0,[pc,#112] ; [0x148c] = 0x40064000
        0x0000141a:    7201        .r      STRB     r1,[r0,#8]
        0x0000141c:    2224        $"      MOVS     r2,#0x24
        0x0000141e:    7042        Bp      STRB     r2,[r0,#1]
        0x00001420:    4b1b        .K      LDR      r3,[pc,#108] ; [0x1490] = 0x40065000
        0x00001422:    2280        ."      MOVS     r2,#0x80
        0x00001424:    701a        .p      STRB     r2,[r3,#0]
        0x00001426:    229a        ."      MOVS     r2,#0x9a
        0x00001428:    7002        .p      STRB     r2,[r0,#0]
        0x0000142a:    7982        .y      LDRB     r2,[r0,#6]
        0x0000142c:    0792        ..      LSLS     r2,r2,#30
        0x0000142e:    d5fc        ..      BPL      0x142a ; SystemInit + 126
        0x00001430:    7982        .y      LDRB     r2,[r0,#6]
        0x00001432:    06d2        ..      LSLS     r2,r2,#27
        0x00001434:    d4fc        ..      BMI      0x1430 ; SystemInit + 132
        0x00001436:    78c2        .x      LDRB     r2,[r0,#3]
        0x00001438:    06d2        ..      LSLS     r2,r2,#27
        0x0000143a:    0ed2        ..      LSRS     r2,r2,#27
        0x0000143c:    70c2        .p      STRB     r2,[r0,#3]
        0x0000143e:    2201        ."      MOVS     r2,#1
        0x00001440:    7102        .q      STRB     r2,[r0,#4]
        0x00001442:    7141        Aq      STRB     r1,[r0,#5]
        0x00001444:    7941        Ay      LDRB     r1,[r0,#5]
        0x00001446:    2240        @"      MOVS     r2,#0x40
        0x00001448:    4311        .C      ORRS     r1,r1,r2
        0x0000144a:    7141        Aq      STRB     r1,[r0,#5]
        0x0000144c:    7981        .y      LDRB     r1,[r0,#6]
        0x0000144e:    0649        I.      LSLS     r1,r1,#25
        0x00001450:    d5fc        ..      BPL      0x144c ; SystemInit + 160
        0x00001452:    7801        .x      LDRB     r1,[r0,#0]
        0x00001454:    0689        ..      LSLS     r1,r1,#26
        0x00001456:    0e89        ..      LSRS     r1,r1,#26
        0x00001458:    7001        .p      STRB     r1,[r0,#0]
        0x0000145a:    7981        .y      LDRB     r1,[r0,#6]
        0x0000145c:    0709        ..      LSLS     r1,r1,#28
        0x0000145e:    0f89        ..      LSRS     r1,r1,#30
        0x00001460:    2903        .)      CMP      r1,#3
        0x00001462:    d1fa        ..      BNE      0x145a ; SystemInit + 174
        0x00001464:    4770        pG      BX       lr
    $d
        0x00001466:    0000        ..      DCW    0
        0x00001468:    40048100    ...@    DCD    1074036992
        0x0000146c:    4007f000    ...@    DCD    1074262016
        0x00001470:    4007d000    ...@    DCD    1074253824
        0x00001474:    4007e000    ...@    DCD    1074257920
        0x00001478:    10010000    ....    DCD    268500992
        0x0000147c:    40047000    .p.@    DCD    1074032640
        0x00001480:    40048000    ...@    DCD    1074036736
        0x00001484:    40049040    @..@    DCD    1074040896
        0x00001488:    fefff8ff    ....    DCD    4278188287
        0x0000148c:    40064000    .@.@    DCD    1074151424
        0x00001490:    40065000    .P.@    DCD    1074155520
    $t
    i.TPM0_IRQHandler
    TPM0_IRQHandler
        0x00001494:    4802        .H      LDR      r0,[pc,#8] ; [0x14a0] = 0x40038000
        0x00001496:    6801        .h      LDR      r1,[r0,#0]
        0x00001498:    2280        ."      MOVS     r2,#0x80
        0x0000149a:    4311        .C      ORRS     r1,r1,r2
        0x0000149c:    6001        .`      STR      r1,[r0,#0]
        0x0000149e:    4770        pG      BX       lr
    $d
        0x000014a0:    40038000    ...@    DCD    1073971200
    $t
    i.UART0_IRQHandler
    UART0_IRQHandler
        0x000014a4:    b570        p.      PUSH     {r4-r6,lr}
        0x000014a6:    4c15        .L      LDR      r4,[pc,#84] ; [0x14fc] = 0x4006a000
        0x000014a8:    7920         y      LDRB     r0,[r4,#4]
        0x000014aa:    0700        ..      LSLS     r0,r0,#28
        0x000014ac:    d004        ..      BEQ      0x14b8 ; UART0_IRQHandler + 20
        0x000014ae:    7920         y      LDRB     r0,[r4,#4]
        0x000014b0:    210f        .!      MOVS     r1,#0xf
        0x000014b2:    4308        .C      ORRS     r0,r0,r1
        0x000014b4:    7120         q      STRB     r0,[r4,#4]
        0x000014b6:    79e0        .y      LDRB     r0,[r4,#7]
        0x000014b8:    7920         y      LDRB     r0,[r4,#4]
        0x000014ba:    0680        ..      LSLS     r0,r0,#26
        0x000014bc:    d509        ..      BPL      0x14d2 ; UART0_IRQHandler + 46
        0x000014be:    79e5        .y      LDRB     r5,[r4,#7]
        0x000014c0:    480f        .H      LDR      r0,[pc,#60] ; [0x1500] = 0x1ffff1d0
        0x000014c2:    f7fffd47    ..G.    BL       Q_Full ; 0xf54
        0x000014c6:    2800        .(      CMP      r0,#0
        0x000014c8:    d103        ..      BNE      0x14d2 ; UART0_IRQHandler + 46
        0x000014ca:    4629        )F      MOV      r1,r5
        0x000014cc:    480c        .H      LDR      r0,[pc,#48] ; [0x1500] = 0x1ffff1d0
        0x000014ce:    f7fffd26    ..&.    BL       Q_Enqueue ; 0xf1e
        0x000014d2:    78e0        .x      LDRB     r0,[r4,#3]
        0x000014d4:    0600        ..      LSLS     r0,r0,#24
        0x000014d6:    d50b        ..      BPL      0x14f0 ; UART0_IRQHandler + 76
        0x000014d8:    7920         y      LDRB     r0,[r4,#4]
        0x000014da:    0600        ..      LSLS     r0,r0,#24
        0x000014dc:    d508        ..      BPL      0x14f0 ; UART0_IRQHandler + 76
        0x000014de:    4809        .H      LDR      r0,[pc,#36] ; [0x1504] = 0x1ffff0c4
        0x000014e0:    f7fffd16    ....    BL       Q_Empty ; 0xf10
        0x000014e4:    2800        .(      CMP      r0,#0
        0x000014e6:    d004        ..      BEQ      0x14f2 ; UART0_IRQHandler + 78
        0x000014e8:    78e0        .x      LDRB     r0,[r4,#3]
        0x000014ea:    0640        @.      LSLS     r0,r0,#25
        0x000014ec:    0e40        @.      LSRS     r0,r0,#25
        0x000014ee:    70e0        .p      STRB     r0,[r4,#3]
        0x000014f0:    bd70        p.      POP      {r4-r6,pc}
        0x000014f2:    4804        .H      LDR      r0,[pc,#16] ; [0x1504] = 0x1ffff0c4
        0x000014f4:    f7fffcee    ....    BL       Q_Dequeue ; 0xed4
        0x000014f8:    71e0        .q      STRB     r0,[r4,#7]
        0x000014fa:    bd70        p.      POP      {r4-r6,pc}
    $d
        0x000014fc:    4006a000    ...@    DCD    1074176000
        0x00001500:    1ffff1d0    ....    DCD    536867280
        0x00001504:    1ffff0c4    ....    DCD    536867012
    $t
    i.__0snprintf$6
    __0snprintf$6
    __1snprintf$6
    __2snprintf
        0x00001508:    b40f        ..      PUSH     {r0-r3}
        0x0000150a:    b51c        ..      PUSH     {r2-r4,lr}
        0x0000150c:    4602        .F      MOV      r2,r0
        0x0000150e:    2000        .       MOVS     r0,#0
        0x00001510:    ac07        ..      ADD      r4,sp,#0x1c
        0x00001512:    2900        .)      CMP      r1,#0
        0x00001514:    d00b        ..      BEQ      0x152e ; __0snprintf$6 + 38
        0x00001516:    1e49        I.      SUBS     r1,r1,#1
        0x00001518:    9101        ..      STR      r1,[sp,#4]
        0x0000151a:    9200        ..      STR      r2,[sp,#0]
        0x0000151c:    4b06        .K      LDR      r3,[pc,#24] ; [0x1538] = 0x1a6d
        0x0000151e:    466a        jF      MOV      r2,sp
        0x00001520:    4621        !F      MOV      r1,r4
        0x00001522:    9806        ..      LDR      r0,[sp,#0x18]
        0x00001524:    f000f8fa    ....    BL       _printf_core ; 0x171c
        0x00001528:    9a00        ..      LDR      r2,[sp,#0]
        0x0000152a:    2100        .!      MOVS     r1,#0
        0x0000152c:    7011        .p      STRB     r1,[r2,#0]
        0x0000152e:    bc1c        ..      POP      {r2-r4}
        0x00001530:    bc08        ..      POP      {r3}
        0x00001532:    b004        ..      ADD      sp,sp,#0x10
        0x00001534:    4718        .G      BX       r3
    $d
        0x00001536:    0000        ..      DCW    0
        0x00001538:    00001a6d    m...    DCD    6765
    $t
    i.__0sprintf$6
    __0sprintf$6
    __1sprintf$6
    __2sprintf
        0x0000153c:    b40f        ..      PUSH     {r0-r3}
        0x0000153e:    b510        ..      PUSH     {r4,lr}
        0x00001540:    a904        ..      ADD      r1,sp,#0x10
        0x00001542:    4b07        .K      LDR      r3,[pc,#28] ; [0x1560] = 0x1a83
        0x00001544:    aa02        ..      ADD      r2,sp,#8
        0x00001546:    9803        ..      LDR      r0,[sp,#0xc]
        0x00001548:    f000f8e8    ....    BL       _printf_core ; 0x171c
        0x0000154c:    4604        .F      MOV      r4,r0
        0x0000154e:    a902        ..      ADD      r1,sp,#8
        0x00001550:    2000        .       MOVS     r0,#0
        0x00001552:    f000fa96    ....    BL       _sputc ; 0x1a82
        0x00001556:    4620         F      MOV      r0,r4
        0x00001558:    bc10        ..      POP      {r4}
        0x0000155a:    bc08        ..      POP      {r3}
        0x0000155c:    b004        ..      ADD      sp,sp,#0x10
        0x0000155e:    4718        .G      BX       r3
    $d
        0x00001560:    00001a83    ....    DCD    6787
    $t
    i.__ARM_common_switch8
    __ARM_common_switch8
        0x00001564:    b430        0.      PUSH     {r4,r5}
        0x00001566:    4674        tF      MOV      r4,lr
        0x00001568:    1e64        d.      SUBS     r4,r4,#1
        0x0000156a:    7825        %x      LDRB     r5,[r4,#0]
        0x0000156c:    1c64        d.      ADDS     r4,r4,#1
        0x0000156e:    42ab        .B      CMP      r3,r5
        0x00001570:    d200        ..      BCS      0x1574 ; __ARM_common_switch8 + 16
        0x00001572:    461d        .F      MOV      r5,r3
        0x00001574:    5d63        c]      LDRB     r3,[r4,r5]
        0x00001576:    005b        [.      LSLS     r3,r3,#1
        0x00001578:    18e3        ..      ADDS     r3,r4,r3
        0x0000157a:    bc30        0.      POP      {r4,r5}
        0x0000157c:    4718        .G      BX       r3
    i.__SD_Power_Of_Two
    __SD_Power_Of_Two
        0x0000157e:    4602        .F      MOV      r2,r0
        0x00001580:    2001        .       MOVS     r0,#1
        0x00001582:    2100        .!      MOVS     r1,#0
        0x00001584:    e002        ..      B        0x158c ; __SD_Power_Of_Two + 14
        0x00001586:    0040        @.      LSLS     r0,r0,#1
        0x00001588:    1c49        I.      ADDS     r1,r1,#1
        0x0000158a:    b2c9        ..      UXTB     r1,r1
        0x0000158c:    4291        .B      CMP      r1,r2
        0x0000158e:    d1fa        ..      BNE      0x1586 ; __SD_Power_Of_Two + 8
        0x00001590:    4770        pG      BX       lr
    i.__SD_Sectors
    __SD_Sectors
        0x00001592:    b5f1        ..      PUSH     {r0,r4-r7,lr}
        0x00001594:    2400        .$      MOVS     r4,#0
        0x00001596:    b084        ..      SUB      sp,sp,#0x10
        0x00001598:    4625        %F      MOV      r5,r4
        0x0000159a:    4627        'F      MOV      r7,r4
        0x0000159c:    4621        !F      MOV      r1,r4
        0x0000159e:    2049        I       MOVS     r0,#0x49
        0x000015a0:    f000f854    ..T.    BL       __SD_Send_Cmd ; 0x164c
        0x000015a4:    2800        .(      CMP      r0,#0
        0x000015a6:    d002        ..      BEQ      0x15ae ; __SD_Sectors + 28
        0x000015a8:    2000        .       MOVS     r0,#0
        0x000015aa:    b005        ..      ADD      sp,sp,#0x14
        0x000015ac:    bdf0        ..      POP      {r4-r7,pc}
        0x000015ae:    20ff        .       MOVS     r0,#0xff
        0x000015b0:    f7fffe62    ..b.    BL       SPI_RW ; 0x1278
        0x000015b4:    28ff        .(      CMP      r0,#0xff
        0x000015b6:    d0fa        ..      BEQ      0x15ae ; __SD_Sectors + 28
        0x000015b8:    2600        .&      MOVS     r6,#0
        0x000015ba:    20ff        .       MOVS     r0,#0xff
        0x000015bc:    f7fffe5c    ..\.    BL       SPI_RW ; 0x1278
        0x000015c0:    4669        iF      MOV      r1,sp
        0x000015c2:    5588        .U      STRB     r0,[r1,r6]
        0x000015c4:    1c76        v.      ADDS     r6,r6,#1
        0x000015c6:    b2f6        ..      UXTB     r6,r6
        0x000015c8:    2e10        ..      CMP      r6,#0x10
        0x000015ca:    d1f6        ..      BNE      0x15ba ; __SD_Sectors + 40
        0x000015cc:    20ff        .       MOVS     r0,#0xff
        0x000015ce:    f7fffe53    ..S.    BL       SPI_RW ; 0x1278
        0x000015d2:    20ff        .       MOVS     r0,#0xff
        0x000015d4:    f7fffe50    ..P.    BL       SPI_RW ; 0x1278
        0x000015d8:    f7fffe66    ..f.    BL       SPI_Release ; 0x12a8
        0x000015dc:    9804        ..      LDR      r0,[sp,#0x10]
        0x000015de:    7840        @x      LDRB     r0,[r0,#1]
        0x000015e0:    0781        ..      LSLS     r1,r0,#30
        0x000015e2:    d518        ..      BPL      0x1616 ; __SD_Sectors + 132
        0x000015e4:    4668        hF      MOV      r0,sp
        0x000015e6:    7940        @y      LDRB     r0,[r0,#5]
        0x000015e8:    0707        ..      LSLS     r7,r0,#28
        0x000015ea:    4668        hF      MOV      r0,sp
        0x000015ec:    7980        .y      LDRB     r0,[r0,#6]
        0x000015ee:    0f3f        ?.      LSRS     r7,r7,#28
        0x000015f0:    0780        ..      LSLS     r0,r0,#30
        0x000015f2:    0d81        ..      LSRS     r1,r0,#22
        0x000015f4:    4668        hF      MOV      r0,sp
        0x000015f6:    79c0        .y      LDRB     r0,[r0,#7]
        0x000015f8:    4308        .C      ORRS     r0,r0,r1
        0x000015fa:    0081        ..      LSLS     r1,r0,#2
        0x000015fc:    4668        hF      MOV      r0,sp
        0x000015fe:    7a00        .z      LDRB     r0,[r0,#8]
        0x00001600:    0984        ..      LSRS     r4,r0,#6
        0x00001602:    4668        hF      MOV      r0,sp
        0x00001604:    7a40        @z      LDRB     r0,[r0,#9]
        0x00001606:    430c        .C      ORRS     r4,r4,r1
        0x00001608:    0780        ..      LSLS     r0,r0,#30
        0x0000160a:    0f41        A.      LSRS     r1,r0,#29
        0x0000160c:    4668        hF      MOV      r0,sp
        0x0000160e:    7a80        .z      LDRB     r0,[r0,#0xa]
        0x00001610:    09c5        ..      LSRS     r5,r0,#7
        0x00001612:    430d        .C      ORRS     r5,r5,r1
        0x00001614:    e00d        ..      B        0x1632 ; __SD_Sectors + 160
        0x00001616:    0740        @.      LSLS     r0,r0,#29
        0x00001618:    d50b        ..      BPL      0x1632 ; __SD_Sectors + 160
        0x0000161a:    4668        hF      MOV      r0,sp
        0x0000161c:    79c0        .y      LDRB     r0,[r0,#7]
        0x0000161e:    0201        ..      LSLS     r1,r0,#8
        0x00001620:    4668        hF      MOV      r0,sp
        0x00001622:    7a00        .z      LDRB     r0,[r0,#8]
        0x00001624:    4308        .C      ORRS     r0,r0,r1
        0x00001626:    0600        ..      LSLS     r0,r0,#24
        0x00001628:    0c01        ..      LSRS     r1,r0,#16
        0x0000162a:    4668        hF      MOV      r0,sp
        0x0000162c:    7a44        Dz      LDRB     r4,[r0,#9]
        0x0000162e:    430c        .C      ORRS     r4,r4,r1
        0x00001630:    2508        .%      MOVS     r5,#8
        0x00001632:    1ca8        ..      ADDS     r0,r5,#2
        0x00001634:    1c64        d.      ADDS     r4,r4,#1
        0x00001636:    f7ffffa2    ....    BL       __SD_Power_Of_Two ; 0x157e
        0x0000163a:    4360        `C      MULS     r0,r4,r0
        0x0000163c:    4603        .F      MOV      r3,r0
        0x0000163e:    4638        8F      MOV      r0,r7
        0x00001640:    f7ffff9d    ....    BL       __SD_Power_Of_Two ; 0x157e
        0x00001644:    4601        .F      MOV      r1,r0
        0x00001646:    4359        YC      MULS     r1,r3,r1
        0x00001648:    4608        .F      MOV      r0,r1
        0x0000164a:    e7ae        ..      B        0x15aa ; __SD_Sectors + 24
    i.__SD_Send_Cmd
    __SD_Send_Cmd
        0x0000164c:    b5f8        ..      PUSH     {r3-r7,lr}
        0x0000164e:    24ff        .$      MOVS     r4,#0xff
        0x00001650:    4f25        %O      LDR      r7,[pc,#148] ; [0x16e8] = 0x400ff040
        0x00001652:    3401        .4      ADDS     r4,#1
        0x00001654:    460e        .F      MOV      r6,r1
        0x00001656:    4605        .F      MOV      r5,r0
        0x00001658:    607c        |`      STR      r4,[r7,#4]
        0x0000165a:    0600        ..      LSLS     r0,r0,#24
        0x0000165c:    d509        ..      BPL      0x1672 ; __SD_Send_Cmd + 38
        0x0000165e:    066d        m.      LSLS     r5,r5,#25
        0x00001660:    0e6d        m.      LSRS     r5,r5,#25
        0x00001662:    2100        .!      MOVS     r1,#0
        0x00001664:    2077        w       MOVS     r0,#0x77
        0x00001666:    f7fffff1    ....    BL       __SD_Send_Cmd ; 0x164c
        0x0000166a:    2801        .(      CMP      r0,#1
        0x0000166c:    d901        ..      BLS      0x1672 ; __SD_Send_Cmd + 38
        0x0000166e:    60bc        .`      STR      r4,[r7,#8]
        0x00001670:    bdf8        ..      POP      {r3-r7,pc}
        0x00001672:    f7fffdbb    ....    BL       SPI_CS_High ; 0x11ec
        0x00001676:    20ff        .       MOVS     r0,#0xff
        0x00001678:    f7fffdfe    ....    BL       SPI_RW ; 0x1278
        0x0000167c:    f7fffdbe    ....    BL       SPI_CS_Low ; 0x11fc
        0x00001680:    20ff        .       MOVS     r0,#0xff
        0x00001682:    f7fffdf9    ....    BL       SPI_RW ; 0x1278
        0x00001686:    4628        (F      MOV      r0,r5
        0x00001688:    f7fffdf6    ....    BL       SPI_RW ; 0x1278
        0x0000168c:    0e30        0.      LSRS     r0,r6,#24
        0x0000168e:    f7fffdf3    ....    BL       SPI_RW ; 0x1278
        0x00001692:    0230        0.      LSLS     r0,r6,#8
        0x00001694:    0e00        ..      LSRS     r0,r0,#24
        0x00001696:    f7fffdef    ....    BL       SPI_RW ; 0x1278
        0x0000169a:    0430        0.      LSLS     r0,r6,#16
        0x0000169c:    0e00        ..      LSRS     r0,r0,#24
        0x0000169e:    f7fffdeb    ....    BL       SPI_RW ; 0x1278
        0x000016a2:    b2f0        ..      UXTB     r0,r6
        0x000016a4:    f7fffde8    ....    BL       SPI_RW ; 0x1278
        0x000016a8:    2001        .       MOVS     r0,#1
        0x000016aa:    2d40        @-      CMP      r5,#0x40
        0x000016ac:    d002        ..      BEQ      0x16b4 ; __SD_Send_Cmd + 104
        0x000016ae:    2d48        H-      CMP      r5,#0x48
        0x000016b0:    d002        ..      BEQ      0x16b8 ; __SD_Send_Cmd + 108
        0x000016b2:    e002        ..      B        0x16ba ; __SD_Send_Cmd + 110
        0x000016b4:    2095        .       MOVS     r0,#0x95
        0x000016b6:    e000        ..      B        0x16ba ; __SD_Send_Cmd + 110
        0x000016b8:    2087        .       MOVS     r0,#0x87
        0x000016ba:    f7fffddd    ....    BL       SPI_RW ; 0x1278
        0x000016be:    2005        .       MOVS     r0,#5
        0x000016c0:    f7fffe06    ....    BL       SPI_Timer_On ; 0x12d0
        0x000016c4:    60fc        .`      STR      r4,[r7,#0xc]
        0x000016c6:    20ff        .       MOVS     r0,#0xff
        0x000016c8:    f7fffdd6    ....    BL       SPI_RW ; 0x1278
        0x000016cc:    4605        .F      MOV      r5,r0
        0x000016ce:    0600        ..      LSLS     r0,r0,#24
        0x000016d0:    d503        ..      BPL      0x16da ; __SD_Send_Cmd + 142
        0x000016d2:    f7fffe0f    ....    BL       SPI_Timer_Status ; 0x12f4
        0x000016d6:    2801        .(      CMP      r0,#1
        0x000016d8:    d0f4        ..      BEQ      0x16c4 ; __SD_Send_Cmd + 120
        0x000016da:    607c        |`      STR      r4,[r7,#4]
        0x000016dc:    f7fffdf2    ....    BL       SPI_Timer_Off ; 0x12c4
        0x000016e0:    60bc        .`      STR      r4,[r7,#8]
        0x000016e2:    4628        (F      MOV      r0,r5
        0x000016e4:    bdf8        ..      POP      {r3-r7,pc}
    $d
        0x000016e6:    0000        ..      DCW    0
        0x000016e8:    400ff040    @..@    DCD    1074786368
    $t
    i.__SD_Speed_Transfer
    __SD_Speed_Transfer
        0x000016ec:    b510        ..      PUSH     {r4,lr}
        0x000016ee:    2801        .(      CMP      r0,#1
        0x000016f0:    d002        ..      BEQ      0x16f8 ; __SD_Speed_Transfer + 12
        0x000016f2:    f7fffd91    ....    BL       SPI_Freq_Low ; 0x1218
        0x000016f6:    bd10        ..      POP      {r4,pc}
        0x000016f8:    f7fffd88    ....    BL       SPI_Freq_High ; 0x120c
        0x000016fc:    bd10        ..      POP      {r4,pc}
    i.__scatterload_copy
    __scatterload_copy
        0x000016fe:    e002        ..      B        0x1706 ; __scatterload_copy + 8
        0x00001700:    c808        ..      LDM      r0!,{r3}
        0x00001702:    1f12        ..      SUBS     r2,r2,#4
        0x00001704:    c108        ..      STM      r1!,{r3}
        0x00001706:    2a00        .*      CMP      r2,#0
        0x00001708:    d1fa        ..      BNE      0x1700 ; __scatterload_copy + 2
        0x0000170a:    4770        pG      BX       lr
    i.__scatterload_zeroinit
    __scatterload_zeroinit
        0x0000170c:    2000        .       MOVS     r0,#0
        0x0000170e:    e001        ..      B        0x1714 ; __scatterload_zeroinit + 8
        0x00001710:    c101        ..      STM      r1!,{r0}
        0x00001712:    1f12        ..      SUBS     r2,r2,#4
        0x00001714:    2a00        .*      CMP      r2,#0
        0x00001716:    d1fb        ..      BNE      0x1710 ; __scatterload_zeroinit + 4
        0x00001718:    4770        pG      BX       lr
        0x0000171a:    0000        ..      MOVS     r0,r0
    i._printf_core
    _printf_core
        0x0000171c:    b5ff        ..      PUSH     {r0-r7,lr}
        0x0000171e:    b08f        ..      SUB      sp,sp,#0x3c
        0x00001720:    4605        .F      MOV      r5,r0
        0x00001722:    2600        .&      MOVS     r6,#0
        0x00001724:    e006        ..      B        0x1734 ; _printf_core + 24
        0x00001726:    2825        %(      CMP      r0,#0x25
        0x00001728:    d00a        ..      BEQ      0x1740 ; _printf_core + 36
        0x0000172a:    9a12        ..      LDR      r2,[sp,#0x48]
        0x0000172c:    9911        ..      LDR      r1,[sp,#0x44]
        0x0000172e:    4790        .G      BLX      r2
        0x00001730:    1c6d        m.      ADDS     r5,r5,#1
        0x00001732:    1c76        v.      ADDS     r6,r6,#1
        0x00001734:    7828        (x      LDRB     r0,[r5,#0]
        0x00001736:    2800        .(      CMP      r0,#0
        0x00001738:    d1f5        ..      BNE      0x1726 ; _printf_core + 10
        0x0000173a:    4630        0F      MOV      r0,r6
        0x0000173c:    b013        ..      ADD      sp,sp,#0x4c
        0x0000173e:    bdf0        ..      POP      {r4-r7,pc}
        0x00001740:    2400        .$      MOVS     r4,#0
        0x00001742:    9402        ..      STR      r4,[sp,#8]
        0x00001744:    2101        .!      MOVS     r1,#1
        0x00001746:    4ab5        .J      LDR      r2,[pc,#724] ; [0x1a1c] = 0x12809
        0x00001748:    9400        ..      STR      r4,[sp,#0]
        0x0000174a:    e000        ..      B        0x174e ; _printf_core + 50
        0x0000174c:    4304        .C      ORRS     r4,r4,r0
        0x0000174e:    1c6d        m.      ADDS     r5,r5,#1
        0x00001750:    782b        +x      LDRB     r3,[r5,#0]
        0x00001752:    4608        .F      MOV      r0,r1
        0x00001754:    3b20         ;      SUBS     r3,r3,#0x20
        0x00001756:    4098        .@      LSLS     r0,r0,r3
        0x00001758:    4210        .B      TST      r0,r2
        0x0000175a:    d1f7        ..      BNE      0x174c ; _printf_core + 48
        0x0000175c:    7828        (x      LDRB     r0,[r5,#0]
        0x0000175e:    282a        *(      CMP      r0,#0x2a
        0x00001760:    d00e        ..      BEQ      0x1780 ; _printf_core + 100
        0x00001762:    2202        ."      MOVS     r2,#2
        0x00001764:    7828        (x      LDRB     r0,[r5,#0]
        0x00001766:    4601        .F      MOV      r1,r0
        0x00001768:    3930        09      SUBS     r1,r1,#0x30
        0x0000176a:    2909        .)      CMP      r1,#9
        0x0000176c:    d816        ..      BHI      0x179c ; _printf_core + 128
        0x0000176e:    9902        ..      LDR      r1,[sp,#8]
        0x00001770:    230a        .#      MOVS     r3,#0xa
        0x00001772:    4359        YC      MULS     r1,r3,r1
        0x00001774:    3930        09      SUBS     r1,r1,#0x30
        0x00001776:    1840        @.      ADDS     r0,r0,r1
        0x00001778:    4314        .C      ORRS     r4,r4,r2
        0x0000177a:    1c6d        m.      ADDS     r5,r5,#1
        0x0000177c:    9002        ..      STR      r0,[sp,#8]
        0x0000177e:    e7f1        ..      B        0x1764 ; _printf_core + 72
        0x00001780:    9810        ..      LDR      r0,[sp,#0x40]
        0x00001782:    c802        ..      LDM      r0!,{r1}
        0x00001784:    9102        ..      STR      r1,[sp,#8]
        0x00001786:    9010        ..      STR      r0,[sp,#0x40]
        0x00001788:    2900        .)      CMP      r1,#0
        0x0000178a:    da04        ..      BGE      0x1796 ; _printf_core + 122
        0x0000178c:    2001        .       MOVS     r0,#1
        0x0000178e:    0340        @.      LSLS     r0,r0,#13
        0x00001790:    4304        .C      ORRS     r4,r4,r0
        0x00001792:    4248        HB      RSBS     r0,r1,#0
        0x00001794:    9002        ..      STR      r0,[sp,#8]
        0x00001796:    2002        .       MOVS     r0,#2
        0x00001798:    4304        .C      ORRS     r4,r4,r0
        0x0000179a:    1c6d        m.      ADDS     r5,r5,#1
        0x0000179c:    7828        (x      LDRB     r0,[r5,#0]
        0x0000179e:    282e        .(      CMP      r0,#0x2e
        0x000017a0:    d117        ..      BNE      0x17d2 ; _printf_core + 182
        0x000017a2:    2004        .       MOVS     r0,#4
        0x000017a4:    4304        .C      ORRS     r4,r4,r0
        0x000017a6:    7868        hx      LDRB     r0,[r5,#1]
        0x000017a8:    1c6d        m.      ADDS     r5,r5,#1
        0x000017aa:    282a        *(      CMP      r0,#0x2a
        0x000017ac:    d10c        ..      BNE      0x17c8 ; _printf_core + 172
        0x000017ae:    9810        ..      LDR      r0,[sp,#0x40]
        0x000017b0:    1c6d        m.      ADDS     r5,r5,#1
        0x000017b2:    c802        ..      LDM      r0!,{r1}
        0x000017b4:    9100        ..      STR      r1,[sp,#0]
        0x000017b6:    9010        ..      STR      r0,[sp,#0x40]
        0x000017b8:    e00b        ..      B        0x17d2 ; _printf_core + 182
        0x000017ba:    9900        ..      LDR      r1,[sp,#0]
        0x000017bc:    220a        ."      MOVS     r2,#0xa
        0x000017be:    4351        QC      MULS     r1,r2,r1
        0x000017c0:    3930        09      SUBS     r1,r1,#0x30
        0x000017c2:    1840        @.      ADDS     r0,r0,r1
        0x000017c4:    1c6d        m.      ADDS     r5,r5,#1
        0x000017c6:    9000        ..      STR      r0,[sp,#0]
        0x000017c8:    7828        (x      LDRB     r0,[r5,#0]
        0x000017ca:    4601        .F      MOV      r1,r0
        0x000017cc:    3930        09      SUBS     r1,r1,#0x30
        0x000017ce:    2909        .)      CMP      r1,#9
        0x000017d0:    d9f3        ..      BLS      0x17ba ; _printf_core + 158
        0x000017d2:    7828        (x      LDRB     r0,[r5,#0]
        0x000017d4:    286c        l(      CMP      r0,#0x6c
        0x000017d6:    d010        ..      BEQ      0x17fa ; _printf_core + 222
        0x000017d8:    dc06        ..      BGT      0x17e8 ; _printf_core + 204
        0x000017da:    284c        L(      CMP      r0,#0x4c
        0x000017dc:    d01a        ..      BEQ      0x1814 ; _printf_core + 248
        0x000017de:    2868        h(      CMP      r0,#0x68
        0x000017e0:    d00e        ..      BEQ      0x1800 ; _printf_core + 228
        0x000017e2:    286a        j(      CMP      r0,#0x6a
        0x000017e4:    d117        ..      BNE      0x1816 ; _printf_core + 250
        0x000017e6:    e004        ..      B        0x17f2 ; _printf_core + 214
        0x000017e8:    2874        t(      CMP      r0,#0x74
        0x000017ea:    d013        ..      BEQ      0x1814 ; _printf_core + 248
        0x000017ec:    287a        z(      CMP      r0,#0x7a
        0x000017ee:    d112        ..      BNE      0x1816 ; _printf_core + 250
        0x000017f0:    e010        ..      B        0x1814 ; _printf_core + 248
        0x000017f2:    2001        .       MOVS     r0,#1
        0x000017f4:    0540        @.      LSLS     r0,r0,#21
        0x000017f6:    4304        .C      ORRS     r4,r4,r0
        0x000017f8:    e00c        ..      B        0x1814 ; _printf_core + 248
        0x000017fa:    2101        .!      MOVS     r1,#1
        0x000017fc:    0509        ..      LSLS     r1,r1,#20
        0x000017fe:    e001        ..      B        0x1804 ; _printf_core + 232
        0x00001800:    2103        .!      MOVS     r1,#3
        0x00001802:    0509        ..      LSLS     r1,r1,#20
        0x00001804:    430c        .C      ORRS     r4,r4,r1
        0x00001806:    7869        ix      LDRB     r1,[r5,#1]
        0x00001808:    4281        .B      CMP      r1,r0
        0x0000180a:    d103        ..      BNE      0x1814 ; _printf_core + 248
        0x0000180c:    2001        .       MOVS     r0,#1
        0x0000180e:    0500        ..      LSLS     r0,r0,#20
        0x00001810:    1824        $.      ADDS     r4,r4,r0
        0x00001812:    1c6d        m.      ADDS     r5,r5,#1
        0x00001814:    1c6d        m.      ADDS     r5,r5,#1
        0x00001816:    7828        (x      LDRB     r0,[r5,#0]
        0x00001818:    2869        i(      CMP      r0,#0x69
        0x0000181a:    d074        t.      BEQ      0x1906 ; _printf_core + 490
        0x0000181c:    dc06        ..      BGT      0x182c ; _printf_core + 272
        0x0000181e:    2800        .(      CMP      r0,#0
        0x00001820:    d08b        ..      BEQ      0x173a ; _printf_core + 30
        0x00001822:    2863        c(      CMP      r0,#0x63
        0x00001824:    d027        '.      BEQ      0x1876 ; _printf_core + 346
        0x00001826:    2864        d(      CMP      r0,#0x64
        0x00001828:    d106        ..      BNE      0x1838 ; _printf_core + 284
        0x0000182a:    e06c        l.      B        0x1906 ; _printf_core + 490
        0x0000182c:    286e        n(      CMP      r0,#0x6e
        0x0000182e:    d008        ..      BEQ      0x1842 ; _printf_core + 294
        0x00001830:    2873        s(      CMP      r0,#0x73
        0x00001832:    d02c        ,.      BEQ      0x188e ; _printf_core + 370
        0x00001834:    2875        u(      CMP      r0,#0x75
        0x00001836:    d078        x.      BEQ      0x192a ; _printf_core + 526
        0x00001838:    9a12        ..      LDR      r2,[sp,#0x48]
        0x0000183a:    9911        ..      LDR      r1,[sp,#0x44]
        0x0000183c:    4790        .G      BLX      r2
        0x0000183e:    1c76        v.      ADDS     r6,r6,#1
        0x00001840:    e05f        _.      B        0x1902 ; _printf_core + 486
        0x00001842:    0260        `.      LSLS     r0,r4,#9
        0x00001844:    0f40        @.      LSRS     r0,r0,#29
        0x00001846:    2802        .(      CMP      r0,#2
        0x00001848:    d009        ..      BEQ      0x185e ; _printf_core + 322
        0x0000184a:    2803        .(      CMP      r0,#3
        0x0000184c:    d00d        ..      BEQ      0x186a ; _printf_core + 334
        0x0000184e:    2804        .(      CMP      r0,#4
        0x00001850:    9810        ..      LDR      r0,[sp,#0x40]
        0x00001852:    6801        .h      LDR      r1,[r0,#0]
        0x00001854:    d00d        ..      BEQ      0x1872 ; _printf_core + 342
        0x00001856:    600e        .`      STR      r6,[r1,#0]
        0x00001858:    1d00        ..      ADDS     r0,r0,#4
        0x0000185a:    9010        ..      STR      r0,[sp,#0x40]
        0x0000185c:    e051        Q.      B        0x1902 ; _printf_core + 486
        0x0000185e:    9810        ..      LDR      r0,[sp,#0x40]
        0x00001860:    17f2        ..      ASRS     r2,r6,#31
        0x00001862:    6801        .h      LDR      r1,[r0,#0]
        0x00001864:    600e        .`      STR      r6,[r1,#0]
        0x00001866:    604a        J`      STR      r2,[r1,#4]
        0x00001868:    e7f6        ..      B        0x1858 ; _printf_core + 316
        0x0000186a:    9810        ..      LDR      r0,[sp,#0x40]
        0x0000186c:    6801        .h      LDR      r1,[r0,#0]
        0x0000186e:    800e        ..      STRH     r6,[r1,#0]
        0x00001870:    e7f2        ..      B        0x1858 ; _printf_core + 316
        0x00001872:    700e        .p      STRB     r6,[r1,#0]
        0x00001874:    e7f0        ..      B        0x1858 ; _printf_core + 316
        0x00001876:    9810        ..      LDR      r0,[sp,#0x40]
        0x00001878:    466a        jF      MOV      r2,sp
        0x0000187a:    7801        .x      LDRB     r1,[r0,#0]
        0x0000187c:    7311        .s      STRB     r1,[r2,#0xc]
        0x0000187e:    1d00        ..      ADDS     r0,r0,#4
        0x00001880:    9010        ..      STR      r0,[sp,#0x40]
        0x00001882:    2000        .       MOVS     r0,#0
        0x00001884:    7350        Ps      STRB     r0,[r2,#0xd]
        0x00001886:    a803        ..      ADD      r0,sp,#0xc
        0x00001888:    9001        ..      STR      r0,[sp,#4]
        0x0000188a:    2001        .       MOVS     r0,#1
        0x0000188c:    e005        ..      B        0x189a ; _printf_core + 382
        0x0000188e:    9810        ..      LDR      r0,[sp,#0x40]
        0x00001890:    c802        ..      LDM      r0!,{r1}
        0x00001892:    9101        ..      STR      r1,[sp,#4]
        0x00001894:    9010        ..      STR      r0,[sp,#0x40]
        0x00001896:    2000        .       MOVS     r0,#0
        0x00001898:    43c0        .C      MVNS     r0,r0
        0x0000189a:    0761        a.      LSLS     r1,r4,#29
        0x0000189c:    d50c        ..      BPL      0x18b8 ; _printf_core + 412
        0x0000189e:    2700        .'      MOVS     r7,#0
        0x000018a0:    e000        ..      B        0x18a4 ; _printf_core + 392
        0x000018a2:    1c7f        ..      ADDS     r7,r7,#1
        0x000018a4:    9900        ..      LDR      r1,[sp,#0]
        0x000018a6:    428f        .B      CMP      r7,r1
        0x000018a8:    da0f        ..      BGE      0x18ca ; _printf_core + 430
        0x000018aa:    4287        .B      CMP      r7,r0
        0x000018ac:    dbf9        ..      BLT      0x18a2 ; _printf_core + 390
        0x000018ae:    9901        ..      LDR      r1,[sp,#4]
        0x000018b0:    5dc9        .]      LDRB     r1,[r1,r7]
        0x000018b2:    2900        .)      CMP      r1,#0
        0x000018b4:    d1f5        ..      BNE      0x18a2 ; _printf_core + 390
        0x000018b6:    e008        ..      B        0x18ca ; _printf_core + 430
        0x000018b8:    2700        .'      MOVS     r7,#0
        0x000018ba:    e000        ..      B        0x18be ; _printf_core + 418
        0x000018bc:    1c7f        ..      ADDS     r7,r7,#1
        0x000018be:    4287        .B      CMP      r7,r0
        0x000018c0:    dbfc        ..      BLT      0x18bc ; _printf_core + 416
        0x000018c2:    9901        ..      LDR      r1,[sp,#4]
        0x000018c4:    5dc9        .]      LDRB     r1,[r1,r7]
        0x000018c6:    2900        .)      CMP      r1,#0
        0x000018c8:    d1f8        ..      BNE      0x18bc ; _printf_core + 416
        0x000018ca:    9802        ..      LDR      r0,[sp,#8]
        0x000018cc:    4621        !F      MOV      r1,r4
        0x000018ce:    1bc0        ..      SUBS     r0,r0,r7
        0x000018d0:    9002        ..      STR      r0,[sp,#8]
        0x000018d2:    9b12        ..      LDR      r3,[sp,#0x48]
        0x000018d4:    9a11        ..      LDR      r2,[sp,#0x44]
        0x000018d6:    f000f8b3    ....    BL       _printf_pre_padding ; 0x1a40
        0x000018da:    1980        ..      ADDS     r0,r0,r6
        0x000018dc:    19c6        ..      ADDS     r6,r0,r7
        0x000018de:    e007        ..      B        0x18f0 ; _printf_core + 468
        0x000018e0:    9801        ..      LDR      r0,[sp,#4]
        0x000018e2:    9901        ..      LDR      r1,[sp,#4]
        0x000018e4:    7800        .x      LDRB     r0,[r0,#0]
        0x000018e6:    1c49        I.      ADDS     r1,r1,#1
        0x000018e8:    9101        ..      STR      r1,[sp,#4]
        0x000018ea:    9a12        ..      LDR      r2,[sp,#0x48]
        0x000018ec:    9911        ..      LDR      r1,[sp,#0x44]
        0x000018ee:    4790        .G      BLX      r2
        0x000018f0:    1e7f        ..      SUBS     r7,r7,#1
        0x000018f2:    d2f5        ..      BCS      0x18e0 ; _printf_core + 452
        0x000018f4:    4621        !F      MOV      r1,r4
        0x000018f6:    9b12        ..      LDR      r3,[sp,#0x48]
        0x000018f8:    9a11        ..      LDR      r2,[sp,#0x44]
        0x000018fa:    9802        ..      LDR      r0,[sp,#8]
        0x000018fc:    f000f890    ....    BL       _printf_post_padding ; 0x1a20
        0x00001900:    1986        ..      ADDS     r6,r0,r6
        0x00001902:    1c6d        m.      ADDS     r5,r5,#1
        0x00001904:    e716        ..      B        0x1734 ; _printf_core + 24
        0x00001906:    200a        .       MOVS     r0,#0xa
        0x00001908:    9001        ..      STR      r0,[sp,#4]
        0x0000190a:    9910        ..      LDR      r1,[sp,#0x40]
        0x0000190c:    c901        ..      LDM      r1!,{r0}
        0x0000190e:    9110        ..      STR      r1,[sp,#0x40]
        0x00001910:    0261        a.      LSLS     r1,r4,#9
        0x00001912:    0f49        I.      LSRS     r1,r1,#29
        0x00001914:    2903        .)      CMP      r1,#3
        0x00001916:    d100        ..      BNE      0x191a ; _printf_core + 510
        0x00001918:    b200        ..      SXTH     r0,r0
        0x0000191a:    2904        .)      CMP      r1,#4
        0x0000191c:    d100        ..      BNE      0x1920 ; _printf_core + 516
        0x0000191e:    b240        @.      SXTB     r0,r0
        0x00001920:    2800        .(      CMP      r0,#0
        0x00001922:    da03        ..      BGE      0x192c ; _printf_core + 528
        0x00001924:    4240        @B      RSBS     r0,r0,#0
        0x00001926:    212d        -!      MOVS     r1,#0x2d
        0x00001928:    e003        ..      B        0x1932 ; _printf_core + 534
        0x0000192a:    e00d        ..      B        0x1948 ; _printf_core + 556
        0x0000192c:    0521        !.      LSLS     r1,r4,#20
        0x0000192e:    d504        ..      BPL      0x193a ; _printf_core + 542
        0x00001930:    212b        +!      MOVS     r1,#0x2b
        0x00001932:    466a        jF      MOV      r2,sp
        0x00001934:    7311        .s      STRB     r1,[r2,#0xc]
        0x00001936:    2101        .!      MOVS     r1,#1
        0x00001938:    e003        ..      B        0x1942 ; _printf_core + 550
        0x0000193a:    07e1        ..      LSLS     r1,r4,#31
        0x0000193c:    d011        ..      BEQ      0x1962 ; _printf_core + 582
        0x0000193e:    2120         !      MOVS     r1,#0x20
        0x00001940:    e7f7        ..      B        0x1932 ; _printf_core + 534
        0x00001942:    af0c        ..      ADD      r7,sp,#0x30
        0x00001944:    910c        ..      STR      r1,[sp,#0x30]
        0x00001946:    e014        ..      B        0x1972 ; _printf_core + 598
        0x00001948:    200a        .       MOVS     r0,#0xa
        0x0000194a:    9001        ..      STR      r0,[sp,#4]
        0x0000194c:    9910        ..      LDR      r1,[sp,#0x40]
        0x0000194e:    c901        ..      LDM      r1!,{r0}
        0x00001950:    9110        ..      STR      r1,[sp,#0x40]
        0x00001952:    0261        a.      LSLS     r1,r4,#9
        0x00001954:    0f49        I.      LSRS     r1,r1,#29
        0x00001956:    2903        .)      CMP      r1,#3
        0x00001958:    d100        ..      BNE      0x195c ; _printf_core + 576
        0x0000195a:    b280        ..      UXTH     r0,r0
        0x0000195c:    2904        .)      CMP      r1,#4
        0x0000195e:    d100        ..      BNE      0x1962 ; _printf_core + 582
        0x00001960:    b2c0        ..      UXTB     r0,r0
        0x00001962:    2100        .!      MOVS     r1,#0
        0x00001964:    e7ed        ..      B        0x1942 ; _printf_core + 550
        0x00001966:    9901        ..      LDR      r1,[sp,#4]
        0x00001968:    f7fefbc8    ....    BL       __aeabi_uidiv ; 0xfc
        0x0000196c:    3130        01      ADDS     r1,r1,#0x30
        0x0000196e:    1e7f        ..      SUBS     r7,r7,#1
        0x00001970:    7039        9p      STRB     r1,[r7,#0]
        0x00001972:    2800        .(      CMP      r0,#0
        0x00001974:    d1f7        ..      BNE      0x1966 ; _printf_core + 586
        0x00001976:    a804        ..      ADD      r0,sp,#0x10
        0x00001978:    1bc0        ..      SUBS     r0,r0,r7
        0x0000197a:    3020         0      ADDS     r0,r0,#0x20
        0x0000197c:    9001        ..      STR      r0,[sp,#4]
        0x0000197e:    0760        `.      LSLS     r0,r4,#29
        0x00001980:    d504        ..      BPL      0x198c ; _printf_core + 624
        0x00001982:    2001        .       MOVS     r0,#1
        0x00001984:    0400        ..      LSLS     r0,r0,#16
        0x00001986:    4384        .C      BICS     r4,r4,r0
        0x00001988:    9800        ..      LDR      r0,[sp,#0]
        0x0000198a:    e001        ..      B        0x1990 ; _printf_core + 628
        0x0000198c:    2001        .       MOVS     r0,#1
        0x0000198e:    9000        ..      STR      r0,[sp,#0]
        0x00001990:    9901        ..      LDR      r1,[sp,#4]
        0x00001992:    4288        .B      CMP      r0,r1
        0x00001994:    dd01        ..      BLE      0x199a ; _printf_core + 638
        0x00001996:    1a40        @.      SUBS     r0,r0,r1
        0x00001998:    e000        ..      B        0x199c ; _printf_core + 640
        0x0000199a:    2000        .       MOVS     r0,#0
        0x0000199c:    1841        A.      ADDS     r1,r0,r1
        0x0000199e:    9000        ..      STR      r0,[sp,#0]
        0x000019a0:    980c        ..      LDR      r0,[sp,#0x30]
        0x000019a2:    1809        ..      ADDS     r1,r1,r0
        0x000019a4:    9802        ..      LDR      r0,[sp,#8]
        0x000019a6:    1a40        @.      SUBS     r0,r0,r1
        0x000019a8:    9002        ..      STR      r0,[sp,#8]
        0x000019aa:    03e0        ..      LSLS     r0,r4,#15
        0x000019ac:    d406        ..      BMI      0x19bc ; _printf_core + 672
        0x000019ae:    4621        !F      MOV      r1,r4
        0x000019b0:    9b12        ..      LDR      r3,[sp,#0x48]
        0x000019b2:    9a11        ..      LDR      r2,[sp,#0x44]
        0x000019b4:    9802        ..      LDR      r0,[sp,#8]
        0x000019b6:    f000f843    ..C.    BL       _printf_pre_padding ; 0x1a40
        0x000019ba:    1986        ..      ADDS     r6,r0,r6
        0x000019bc:    2000        .       MOVS     r0,#0
        0x000019be:    900d        ..      STR      r0,[sp,#0x34]
        0x000019c0:    e008        ..      B        0x19d4 ; _printf_core + 696
        0x000019c2:    a903        ..      ADD      r1,sp,#0xc
        0x000019c4:    5c08        .\      LDRB     r0,[r1,r0]
        0x000019c6:    9a12        ..      LDR      r2,[sp,#0x48]
        0x000019c8:    9911        ..      LDR      r1,[sp,#0x44]
        0x000019ca:    4790        .G      BLX      r2
        0x000019cc:    980d        ..      LDR      r0,[sp,#0x34]
        0x000019ce:    1c40        @.      ADDS     r0,r0,#1
        0x000019d0:    1c76        v.      ADDS     r6,r6,#1
        0x000019d2:    900d        ..      STR      r0,[sp,#0x34]
        0x000019d4:    990c        ..      LDR      r1,[sp,#0x30]
        0x000019d6:    4288        .B      CMP      r0,r1
        0x000019d8:    dbf3        ..      BLT      0x19c2 ; _printf_core + 678
        0x000019da:    03e0        ..      LSLS     r0,r4,#15
        0x000019dc:    d50c        ..      BPL      0x19f8 ; _printf_core + 732
        0x000019de:    4621        !F      MOV      r1,r4
        0x000019e0:    9b12        ..      LDR      r3,[sp,#0x48]
        0x000019e2:    9a11        ..      LDR      r2,[sp,#0x44]
        0x000019e4:    9802        ..      LDR      r0,[sp,#8]
        0x000019e6:    f000f82b    ..+.    BL       _printf_pre_padding ; 0x1a40
        0x000019ea:    1986        ..      ADDS     r6,r0,r6
        0x000019ec:    e004        ..      B        0x19f8 ; _printf_core + 732
        0x000019ee:    9a12        ..      LDR      r2,[sp,#0x48]
        0x000019f0:    2030        0       MOVS     r0,#0x30
        0x000019f2:    9911        ..      LDR      r1,[sp,#0x44]
        0x000019f4:    4790        .G      BLX      r2
        0x000019f6:    1c76        v.      ADDS     r6,r6,#1
        0x000019f8:    9900        ..      LDR      r1,[sp,#0]
        0x000019fa:    1e48        H.      SUBS     r0,r1,#1
        0x000019fc:    9000        ..      STR      r0,[sp,#0]
        0x000019fe:    2900        .)      CMP      r1,#0
        0x00001a00:    dcf5        ..      BGT      0x19ee ; _printf_core + 722
        0x00001a02:    e005        ..      B        0x1a10 ; _printf_core + 756
        0x00001a04:    7838        8x      LDRB     r0,[r7,#0]
        0x00001a06:    9a12        ..      LDR      r2,[sp,#0x48]
        0x00001a08:    1c7f        ..      ADDS     r7,r7,#1
        0x00001a0a:    9911        ..      LDR      r1,[sp,#0x44]
        0x00001a0c:    4790        .G      BLX      r2
        0x00001a0e:    1c76        v.      ADDS     r6,r6,#1
        0x00001a10:    9901        ..      LDR      r1,[sp,#4]
        0x00001a12:    1e48        H.      SUBS     r0,r1,#1
        0x00001a14:    9001        ..      STR      r0,[sp,#4]
        0x00001a16:    2900        .)      CMP      r1,#0
        0x00001a18:    dcf4        ..      BGT      0x1a04 ; _printf_core + 744
        0x00001a1a:    e76b        k.      B        0x18f4 ; _printf_core + 472
    $d
        0x00001a1c:    00012809    .(..    DCD    75785
    $t
    i._printf_post_padding
    _printf_post_padding
        0x00001a20:    b5f8        ..      PUSH     {r3-r7,lr}
        0x00001a22:    4604        .F      MOV      r4,r0
        0x00001a24:    2500        .%      MOVS     r5,#0
        0x00001a26:    461e        .F      MOV      r6,r3
        0x00001a28:    4617        .F      MOV      r7,r2
        0x00001a2a:    0488        ..      LSLS     r0,r1,#18
        0x00001a2c:    d404        ..      BMI      0x1a38 ; _printf_post_padding + 24
        0x00001a2e:    e005        ..      B        0x1a3c ; _printf_post_padding + 28
        0x00001a30:    4639        9F      MOV      r1,r7
        0x00001a32:    2020                MOVS     r0,#0x20
        0x00001a34:    47b0        .G      BLX      r6
        0x00001a36:    1c6d        m.      ADDS     r5,r5,#1
        0x00001a38:    1e64        d.      SUBS     r4,r4,#1
        0x00001a3a:    d5f9        ..      BPL      0x1a30 ; _printf_post_padding + 16
        0x00001a3c:    4628        (F      MOV      r0,r5
        0x00001a3e:    bdf8        ..      POP      {r3-r7,pc}
    i._printf_pre_padding
    _printf_pre_padding
        0x00001a40:    b5ff        ..      PUSH     {r0-r7,lr}
        0x00001a42:    4604        .F      MOV      r4,r0
        0x00001a44:    2500        .%      MOVS     r5,#0
        0x00001a46:    b081        ..      SUB      sp,sp,#4
        0x00001a48:    461e        .F      MOV      r6,r3
        0x00001a4a:    03c8        ..      LSLS     r0,r1,#15
        0x00001a4c:    d501        ..      BPL      0x1a52 ; _printf_pre_padding + 18
        0x00001a4e:    2730        0'      MOVS     r7,#0x30
        0x00001a50:    e000        ..      B        0x1a54 ; _printf_pre_padding + 20
        0x00001a52:    2720         '      MOVS     r7,#0x20
        0x00001a54:    0488        ..      LSLS     r0,r1,#18
        0x00001a56:    d504        ..      BPL      0x1a62 ; _printf_pre_padding + 34
        0x00001a58:    e005        ..      B        0x1a66 ; _printf_pre_padding + 38
        0x00001a5a:    4638        8F      MOV      r0,r7
        0x00001a5c:    9903        ..      LDR      r1,[sp,#0xc]
        0x00001a5e:    47b0        .G      BLX      r6
        0x00001a60:    1c6d        m.      ADDS     r5,r5,#1
        0x00001a62:    1e64        d.      SUBS     r4,r4,#1
        0x00001a64:    d5f9        ..      BPL      0x1a5a ; _printf_pre_padding + 26
        0x00001a66:    4628        (F      MOV      r0,r5
        0x00001a68:    b005        ..      ADD      sp,sp,#0x14
        0x00001a6a:    bdf0        ..      POP      {r4-r7,pc}
    i._snputc
    _snputc
        0x00001a6c:    684a        Jh      LDR      r2,[r1,#4]
        0x00001a6e:    2a00        .*      CMP      r2,#0
        0x00001a70:    d006        ..      BEQ      0x1a80 ; _snputc + 20
        0x00001a72:    680a        .h      LDR      r2,[r1,#0]
        0x00001a74:    1c53        S.      ADDS     r3,r2,#1
        0x00001a76:    600b        .`      STR      r3,[r1,#0]
        0x00001a78:    7010        .p      STRB     r0,[r2,#0]
        0x00001a7a:    6848        Hh      LDR      r0,[r1,#4]
        0x00001a7c:    1e40        @.      SUBS     r0,r0,#1
        0x00001a7e:    6048        H`      STR      r0,[r1,#4]
        0x00001a80:    4770        pG      BX       lr
    i._sputc
    _sputc
        0x00001a82:    680a        .h      LDR      r2,[r1,#0]
        0x00001a84:    1c53        S.      ADDS     r3,r2,#1
        0x00001a86:    600b        .`      STR      r3,[r1,#0]
        0x00001a88:    7010        .p      STRB     r0,[r2,#0]
        0x00001a8a:    4770        pG      BX       lr
    i.addAndClamp
    addAndClamp
        0x00001a8c:    1840        @.      ADDS     r0,r0,r1
        0x00001a8e:    b200        ..      SXTH     r0,r0
        0x00001a90:    b281        ..      UXTH     r1,r0
        0x00001a92:    29ff        .)      CMP      r1,#0xff
        0x00001a94:    d907        ..      BLS      0x1aa6 ; addAndClamp + 26
        0x00001a96:    2800        .(      CMP      r0,#0
        0x00001a98:    da01        ..      BGE      0x1a9e ; addAndClamp + 18
        0x00001a9a:    2000        .       MOVS     r0,#0
        0x00001a9c:    4770        pG      BX       lr
        0x00001a9e:    28ff        .(      CMP      r0,#0xff
        0x00001aa0:    dd01        ..      BLE      0x1aa6 ; addAndClamp + 26
        0x00001aa2:    20ff        .       MOVS     r0,#0xff
        0x00001aa4:    4770        pG      BX       lr
        0x00001aa6:    b2c0        ..      UXTB     r0,r0
        0x00001aa8:    4770        pG      BX       lr
        0x00001aaa:    0000        ..      MOVS     r0,r0
    i.check_fs
    check_fs
        0x00001aac:    b570        p.      PUSH     {r4-r6,lr}
        0x00001aae:    22ff        ."      MOVS     r2,#0xff
        0x00001ab0:    460d        .F      MOV      r5,r1
        0x00001ab2:    4604        .F      MOV      r4,r0
        0x00001ab4:    2302        .#      MOVS     r3,#2
        0x00001ab6:    32ff        .2      ADDS     r2,r2,#0xff
        0x00001ab8:    f000fa5e    ..^.    BL       disk_readp ; 0x1f78
        0x00001abc:    2800        .(      CMP      r0,#0
        0x00001abe:    d001        ..      BEQ      0x1ac4 ; check_fs + 24
        0x00001ac0:    2003        .       MOVS     r0,#3
        0x00001ac2:    bd70        p.      POP      {r4-r6,pc}
        0x00001ac4:    4620         F      MOV      r0,r4
        0x00001ac6:    f000ff00    ....    BL       ld_word ; 0x28ca
        0x00001aca:    490b        .I      LDR      r1,[pc,#44] ; [0x1af8] = 0xaa55
        0x00001acc:    4288        .B      CMP      r0,r1
        0x00001ace:    d001        ..      BEQ      0x1ad4 ; check_fs + 40
        0x00001ad0:    2002        .       MOVS     r0,#2
        0x00001ad2:    bd70        p.      POP      {r4-r6,pc}
        0x00001ad4:    2302        .#      MOVS     r3,#2
        0x00001ad6:    2252        R"      MOVS     r2,#0x52
        0x00001ad8:    4629        )F      MOV      r1,r5
        0x00001ada:    4620         F      MOV      r0,r4
        0x00001adc:    f000fa4c    ..L.    BL       disk_readp ; 0x1f78
        0x00001ae0:    2800        .(      CMP      r0,#0
        0x00001ae2:    d107        ..      BNE      0x1af4 ; check_fs + 72
        0x00001ae4:    4620         F      MOV      r0,r4
        0x00001ae6:    f000fef0    ....    BL       ld_word ; 0x28ca
        0x00001aea:    4904        .I      LDR      r1,[pc,#16] ; [0x1afc] = 0x4146
        0x00001aec:    4288        .B      CMP      r0,r1
        0x00001aee:    d101        ..      BNE      0x1af4 ; check_fs + 72
        0x00001af0:    2000        .       MOVS     r0,#0
        0x00001af2:    bd70        p.      POP      {r4-r6,pc}
        0x00001af4:    2001        .       MOVS     r0,#1
        0x00001af6:    bd70        p.      POP      {r4-r6,pc}
    $d
        0x00001af8:    0000aa55    U...    DCD    43605
        0x00001afc:    00004146    FA..    DCD    16710
    $t
    i.clamp
    clamp
        0x00001b00:    b281        ..      UXTH     r1,r0
        0x00001b02:    29ff        .)      CMP      r1,#0xff
        0x00001b04:    d907        ..      BLS      0x1b16 ; clamp + 22
        0x00001b06:    2800        .(      CMP      r0,#0
        0x00001b08:    da01        ..      BGE      0x1b0e ; clamp + 14
        0x00001b0a:    2000        .       MOVS     r0,#0
        0x00001b0c:    4770        pG      BX       lr
        0x00001b0e:    28ff        .(      CMP      r0,#0xff
        0x00001b10:    dd01        ..      BLE      0x1b16 ; clamp + 22
        0x00001b12:    20ff        .       MOVS     r0,#0xff
        0x00001b14:    4770        pG      BX       lr
        0x00001b16:    b2c0        ..      UXTB     r0,r0
        0x00001b18:    4770        pG      BX       lr
        0x00001b1a:    0000        ..      MOVS     r0,r0
    i.clust2sect
    clust2sect
        0x00001b1c:    4906        .I      LDR      r1,[pc,#24] ; [0x1b38] = 0x1ffff0b4
        0x00001b1e:    1e80        ..      SUBS     r0,r0,#2
        0x00001b20:    6809        .h      LDR      r1,[r1,#0]
        0x00001b22:    688a        .h      LDR      r2,[r1,#8]
        0x00001b24:    1e92        ..      SUBS     r2,r2,#2
        0x00001b26:    4282        .B      CMP      r2,r0
        0x00001b28:    d801        ..      BHI      0x1b2e ; clust2sect + 18
        0x00001b2a:    2000        .       MOVS     r0,#0
        0x00001b2c:    4770        pG      BX       lr
        0x00001b2e:    788a        .x      LDRB     r2,[r1,#2]
        0x00001b30:    4342        BC      MULS     r2,r0,r2
        0x00001b32:    6948        Hi      LDR      r0,[r1,#0x14]
        0x00001b34:    1810        ..      ADDS     r0,r2,r0
        0x00001b36:    4770        pG      BX       lr
    $d
        0x00001b38:    1ffff0b4    ....    DCD    536866996
    $t
    i.convertCb
    convertCb
    __tagsym$$noinline
        0x00001b3c:    b5f8        ..      PUSH     {r3-r7,lr}
        0x00001b3e:    4912        .I      LDR      r1,[pc,#72] ; [0x1b88] = 0x1ffff82c
        0x00001b40:    4f12        .O      LDR      r7,[pc,#72] ; [0x1b8c] = 0x1ffff6ac
        0x00001b42:    180e        ..      ADDS     r6,r1,r0
        0x00001b44:    31ff        .1      ADDS     r1,r1,#0xff
        0x00001b46:    3101        .1      ADDS     r1,#1
        0x00001b48:    180d        ..      ADDS     r5,r1,r0
        0x00001b4a:    2040        @       MOVS     r0,#0x40
        0x00001b4c:    9000        ..      STR      r0,[sp,#0]
        0x00001b4e:    783c        <x      LDRB     r4,[r7,#0]
        0x00001b50:    2058        X       MOVS     r0,#0x58
        0x00001b52:    4360        `C      MULS     r0,r4,r0
        0x00001b54:    0a01        ..      LSRS     r1,r0,#8
        0x00001b56:    7830        0x      LDRB     r0,[r6,#0]
        0x00001b58:    392c        ,9      SUBS     r1,r1,#0x2c
        0x00001b5a:    1cbf        ..      ADDS     r7,r7,#2
        0x00001b5c:    f001fd96    ....    BL       subAndClamp ; 0x368c
        0x00001b60:    7030        0p      STRB     r0,[r6,#0]
        0x00001b62:    20c6        .       MOVS     r0,#0xc6
        0x00001b64:    4360        `C      MULS     r0,r4,r0
        0x00001b66:    0a00        ..      LSRS     r0,r0,#8
        0x00001b68:    1901        ..      ADDS     r1,r0,r4
        0x00001b6a:    7828        (x      LDRB     r0,[r5,#0]
        0x00001b6c:    39e3        .9      SUBS     r1,r1,#0xe3
        0x00001b6e:    1c76        v.      ADDS     r6,r6,#1
        0x00001b70:    f7ffff8c    ....    BL       addAndClamp ; 0x1a8c
        0x00001b74:    7028        (p      STRB     r0,[r5,#0]
        0x00001b76:    9800        ..      LDR      r0,[sp,#0]
        0x00001b78:    1c6d        m.      ADDS     r5,r5,#1
        0x00001b7a:    1e40        @.      SUBS     r0,r0,#1
        0x00001b7c:    b2c0        ..      UXTB     r0,r0
        0x00001b7e:    9000        ..      STR      r0,[sp,#0]
        0x00001b80:    2800        .(      CMP      r0,#0
        0x00001b82:    d1e4        ..      BNE      0x1b4e ; convertCb + 18
        0x00001b84:    bdf8        ..      POP      {r3-r7,pc}
    $d
        0x00001b86:    0000        ..      DCW    0
        0x00001b88:    1ffff82c    ,...    DCD    536868908
        0x00001b8c:    1ffff6ac    ....    DCD    536868524
    $t
    i.convertCr
    convertCr
    __tagsym$$noinline
        0x00001b90:    b5f8        ..      PUSH     {r3-r7,lr}
        0x00001b92:    4912        .I      LDR      r1,[pc,#72] ; [0x1bdc] = 0x1ffff72c
        0x00001b94:    4f11        .O      LDR      r7,[pc,#68] ; [0x1bdc] = 0x1ffff72c
        0x00001b96:    180e        ..      ADDS     r6,r1,r0
        0x00001b98:    31ff        .1      ADDS     r1,r1,#0xff
        0x00001b9a:    3101        .1      ADDS     r1,#1
        0x00001b9c:    180d        ..      ADDS     r5,r1,r0
        0x00001b9e:    3f80        .?      SUBS     r7,r7,#0x80
        0x00001ba0:    2040        @       MOVS     r0,#0x40
        0x00001ba2:    9000        ..      STR      r0,[sp,#0]
        0x00001ba4:    783c        <x      LDRB     r4,[r7,#0]
        0x00001ba6:    2067        g       MOVS     r0,#0x67
        0x00001ba8:    4360        `C      MULS     r0,r4,r0
        0x00001baa:    0a00        ..      LSRS     r0,r0,#8
        0x00001bac:    1901        ..      ADDS     r1,r0,r4
        0x00001bae:    7830        0x      LDRB     r0,[r6,#0]
        0x00001bb0:    39b3        .9      SUBS     r1,r1,#0xb3
        0x00001bb2:    1cbf        ..      ADDS     r7,r7,#2
        0x00001bb4:    f7ffff6a    ..j.    BL       addAndClamp ; 0x1a8c
        0x00001bb8:    7030        0p      STRB     r0,[r6,#0]
        0x00001bba:    20b7        .       MOVS     r0,#0xb7
        0x00001bbc:    4344        DC      MULS     r4,r0,r4
        0x00001bbe:    0a21        !.      LSRS     r1,r4,#8
        0x00001bc0:    7828        (x      LDRB     r0,[r5,#0]
        0x00001bc2:    395b        [9      SUBS     r1,r1,#0x5b
        0x00001bc4:    1c76        v.      ADDS     r6,r6,#1
        0x00001bc6:    f001fd61    ..a.    BL       subAndClamp ; 0x368c
        0x00001bca:    7028        (p      STRB     r0,[r5,#0]
        0x00001bcc:    9800        ..      LDR      r0,[sp,#0]
        0x00001bce:    1c6d        m.      ADDS     r5,r5,#1
        0x00001bd0:    1e40        @.      SUBS     r0,r0,#1
        0x00001bd2:    b2c0        ..      UXTB     r0,r0
        0x00001bd4:    9000        ..      STR      r0,[sp,#0]
        0x00001bd6:    2800        .(      CMP      r0,#0
        0x00001bd8:    d1e4        ..      BNE      0x1ba4 ; convertCr + 20
        0x00001bda:    bdf8        ..      POP      {r3-r7,pc}
    $d
        0x00001bdc:    1ffff72c    ,...    DCD    536868652
    $t
    i.copyY
    copyY
        0x00001be0:    490c        .I      LDR      r1,[pc,#48] ; [0x1c14] = 0x1ffff72c
        0x00001be2:    b530        0.      PUSH     {r4,r5,lr}
        0x00001be4:    180b        ..      ADDS     r3,r1,r0
        0x00001be6:    31ff        .1      ADDS     r1,r1,#0xff
        0x00001be8:    3101        .1      ADDS     r1,#1
        0x00001bea:    180a        ..      ADDS     r2,r1,r0
        0x00001bec:    31ff        .1      ADDS     r1,r1,#0xff
        0x00001bee:    3101        .1      ADDS     r1,#1
        0x00001bf0:    4c08        .L      LDR      r4,[pc,#32] ; [0x1c14] = 0x1ffff72c
        0x00001bf2:    180d        ..      ADDS     r5,r1,r0
        0x00001bf4:    3c80        .<      SUBS     r4,r4,#0x80
        0x00001bf6:    2040        @       MOVS     r0,#0x40
        0x00001bf8:    7821        !x      LDRB     r1,[r4,#0]
        0x00001bfa:    7019        .p      STRB     r1,[r3,#0]
        0x00001bfc:    7011        .p      STRB     r1,[r2,#0]
        0x00001bfe:    1e40        @.      SUBS     r0,r0,#1
        0x00001c00:    7029        )p      STRB     r1,[r5,#0]
        0x00001c02:    1c52        R.      ADDS     r2,r2,#1
        0x00001c04:    1c5b        [.      ADDS     r3,r3,#1
        0x00001c06:    1ca4        ..      ADDS     r4,r4,#2
        0x00001c08:    1c6d        m.      ADDS     r5,r5,#1
        0x00001c0a:    0600        ..      LSLS     r0,r0,#24
        0x00001c0c:    0e00        ..      LSRS     r0,r0,#24
        0x00001c0e:    d1f3        ..      BNE      0x1bf8 ; copyY + 24
        0x00001c10:    bd30        0.      POP      {r4,r5,pc}
    $d
        0x00001c12:    0000        ..      DCW    0
        0x00001c14:    1ffff72c    ,...    DCD    536868652
    $t
    i.create_name
    create_name
        0x00001c18:    b5f0        ..      PUSH     {r4-r7,lr}
        0x00001c1a:    6844        Dh      LDR      r4,[r0,#4]
        0x00001c1c:    2020                MOVS     r0,#0x20
        0x00001c1e:    220b        ."      MOVS     r2,#0xb
        0x00001c20:    4623        #F      MOV      r3,r4
        0x00001c22:    e001        ..      B        0x1c28 ; create_name + 16
        0x00001c24:    7018        .p      STRB     r0,[r3,#0]
        0x00001c26:    1c5b        [.      ADDS     r3,r3,#1
        0x00001c28:    1e52        R.      SUBS     r2,r2,#1
        0x00001c2a:    d2fb        ..      BCS      0x1c24 ; create_name + 12
        0x00001c2c:    2200        ."      MOVS     r2,#0
        0x00001c2e:    680e        .h      LDR      r6,[r1,#0]
        0x00001c30:    4613        .F      MOV      r3,r2
        0x00001c32:    2508        .%      MOVS     r5,#8
        0x00001c34:    5cf0        .\      LDRB     r0,[r6,r3]
        0x00001c36:    1c5b        [.      ADDS     r3,r3,#1
        0x00001c38:    b2db        ..      UXTB     r3,r3
        0x00001c3a:    2820         (      CMP      r0,#0x20
        0x00001c3c:    d909        ..      BLS      0x1c52 ; create_name + 58
        0x00001c3e:    282f        /(      CMP      r0,#0x2f
        0x00001c40:    d007        ..      BEQ      0x1c52 ; create_name + 58
        0x00001c42:    282e        .(      CMP      r0,#0x2e
        0x00001c44:    d001        ..      BEQ      0x1c4a ; create_name + 50
        0x00001c46:    42aa        .B      CMP      r2,r5
        0x00001c48:    d30c        ..      BCC      0x1c64 ; create_name + 76
        0x00001c4a:    2d08        .-      CMP      r5,#8
        0x00001c4c:    d101        ..      BNE      0x1c52 ; create_name + 58
        0x00001c4e:    282e        .(      CMP      r0,#0x2e
        0x00001c50:    d005        ..      BEQ      0x1c5e ; create_name + 70
        0x00001c52:    18f2        ..      ADDS     r2,r6,r3
        0x00001c54:    600a        .`      STR      r2,[r1,#0]
        0x00001c56:    2820         (      CMP      r0,#0x20
        0x00001c58:    d814        ..      BHI      0x1c84 ; create_name + 108
        0x00001c5a:    2001        .       MOVS     r0,#1
        0x00001c5c:    e013        ..      B        0x1c86 ; create_name + 110
        0x00001c5e:    2208        ."      MOVS     r2,#8
        0x00001c60:    250b        .%      MOVS     r5,#0xb
        0x00001c62:    e7e7        ..      B        0x1c34 ; create_name + 28
        0x00001c64:    2880        .(      CMP      r0,#0x80
        0x00001c66:    d303        ..      BCC      0x1c70 ; create_name + 88
        0x00001c68:    4f08        .O      LDR      r7,[pc,#32] ; [0x1c8c] = 0x5dc1
        0x00001c6a:    1838        8.      ADDS     r0,r7,r0
        0x00001c6c:    3880        .8      SUBS     r0,r0,#0x80
        0x00001c6e:    7800        .x      LDRB     r0,[r0,#0]
        0x00001c70:    4607        .F      MOV      r7,r0
        0x00001c72:    3f61        a?      SUBS     r7,r7,#0x61
        0x00001c74:    2f19        ./      CMP      r7,#0x19
        0x00001c76:    d801        ..      BHI      0x1c7c ; create_name + 100
        0x00001c78:    3820         8      SUBS     r0,r0,#0x20
        0x00001c7a:    b2c0        ..      UXTB     r0,r0
        0x00001c7c:    54a0        .T      STRB     r0,[r4,r2]
        0x00001c7e:    1c52        R.      ADDS     r2,r2,#1
        0x00001c80:    b2d2        ..      UXTB     r2,r2
        0x00001c82:    e7d7        ..      B        0x1c34 ; create_name + 28
        0x00001c84:    2000        .       MOVS     r0,#0
        0x00001c86:    72e0        .r      STRB     r0,[r4,#0xb]
        0x00001c88:    2000        .       MOVS     r0,#0
        0x00001c8a:    bdf0        ..      POP      {r4-r7,pc}
    $d
        0x00001c8c:    00005dc1    .]..    DCD    24001
    $t
    i.decodeNextMCU
    decodeNextMCU
    __tagsym$$noinline
        0x00001c90:    b5fe        ..      PUSH     {r1-r7,lr}
        0x00001c92:    4c70        pL      LDR      r4,[pc,#448] ; [0x1e54] = 0x1ffff058
        0x00001c94:    8aa0        ..      LDRH     r0,[r4,#0x14]
        0x00001c96:    2800        .(      CMP      r0,#0
        0x00001c98:    d009        ..      BEQ      0x1cae ; decodeNextMCU + 30
        0x00001c9a:    8b20         .      LDRH     r0,[r4,#0x18]
        0x00001c9c:    2800        .(      CMP      r0,#0
        0x00001c9e:    d103        ..      BNE      0x1ca8 ; decodeNextMCU + 24
        0x00001ca0:    f001fae4    ....    BL       processRestart ; 0x326c
        0x00001ca4:    2800        .(      CMP      r0,#0
        0x00001ca6:    d170        p.      BNE      0x1d8a ; decodeNextMCU + 250
        0x00001ca8:    8b20         .      LDRH     r0,[r4,#0x18]
        0x00001caa:    1e40        @.      SUBS     r0,r0,#1
        0x00001cac:    8320         .      STRH     r0,[r4,#0x18]
        0x00001cae:    2000        .       MOVS     r0,#0
        0x00001cb0:    e0c8        ..      B        0x1e44 ; decodeNextMCU + 436
        0x00001cb2:    4968        hI      LDR      r1,[pc,#416] ; [0x1e54] = 0x1ffff058
        0x00001cb4:    314a        J1      ADDS     r1,r1,#0x4a
        0x00001cb6:    5c0c        .\      LDRB     r4,[r1,r0]
        0x00001cb8:    4608        .F      MOV      r0,r1
        0x00001cba:    3821        !8      SUBS     r0,r0,#0x21
        0x00001cbc:    5d00        .]      LDRB     r0,[r0,r4]
        0x00001cbe:    391b        .9      SUBS     r1,r1,#0x1b
        0x00001cc0:    5d09        .]      LDRB     r1,[r1,r4]
        0x00001cc2:    2800        .(      CMP      r0,#0
        0x00001cc4:    d001        ..      BEQ      0x1cca ; decodeNextMCU + 58
        0x00001cc6:    4864        dH      LDR      r0,[pc,#400] ; [0x1e58] = 0x1ffffaac
        0x00001cc8:    e001        ..      B        0x1cce ; decodeNextMCU + 62
        0x00001cca:    4863        cH      LDR      r0,[pc,#396] ; [0x1e58] = 0x1ffffaac
        0x00001ccc:    3880        .8      SUBS     r0,r0,#0x80
        0x00001cce:    9001        ..      STR      r0,[sp,#4]
        0x00001cd0:    2900        .)      CMP      r1,#0
        0x00001cd2:    d003        ..      BEQ      0x1cdc ; decodeNextMCU + 76
        0x00001cd4:    4961        aI      LDR      r1,[pc,#388] ; [0x1e5c] = 0x1ffffbdc
        0x00001cd6:    4608        .F      MOV      r0,r1
        0x00001cd8:    3850        P8      SUBS     r0,r0,#0x50
        0x00001cda:    e003        ..      B        0x1ce4 ; decodeNextMCU + 84
        0x00001cdc:    495f        _I      LDR      r1,[pc,#380] ; [0x1e5c] = 0x1ffffbdc
        0x00001cde:    3960        `9      SUBS     r1,r1,#0x60
        0x00001ce0:    4608        .F      MOV      r0,r1
        0x00001ce2:    3850        P8      SUBS     r0,r0,#0x50
        0x00001ce4:    f000fb36    ..6.    BL       huffDecode ; 0x2354
        0x00001ce8:    4606        .F      MOV      r6,r0
        0x00001cea:    2000        .       MOVS     r0,#0
        0x00001cec:    0731        1.      LSLS     r1,r6,#28
        0x00001cee:    0f09        ..      LSRS     r1,r1,#28
        0x00001cf0:    d002        ..      BEQ      0x1cf8 ; decodeNextMCU + 104
        0x00001cf2:    4608        .F      MOV      r0,r1
        0x00001cf4:    f000fa0b    ....    BL       getBits2 ; 0x210e
        0x00001cf8:    4631        1F      MOV      r1,r6
        0x00001cfa:    f000fb59    ..Y.    BL       huffExtend ; 0x23b0
        0x00001cfe:    4a55        UJ      LDR      r2,[pc,#340] ; [0x1e54] = 0x1ffff058
        0x00001d00:    0061        a.      LSLS     r1,r4,#1
        0x00001d02:    3244        D2      ADDS     r2,r2,#0x44
        0x00001d04:    5a53        SZ      LDRH     r3,[r2,r1]
        0x00001d06:    1818        ..      ADDS     r0,r3,r0
        0x00001d08:    5250        PR      STRH     r0,[r2,r1]
        0x00001d0a:    9901        ..      LDR      r1,[sp,#4]
        0x00001d0c:    8809        ..      LDRH     r1,[r1,#0]
        0x00001d0e:    4341        AC      MULS     r1,r0,r1
        0x00001d10:    4853        SH      LDR      r0,[pc,#332] ; [0x1e60] = 0x1ffff6ac
        0x00001d12:    8001        ..      STRH     r1,[r0,#0]
        0x00001d14:    4610        .F      MOV      r0,r2
        0x00001d16:    3812        .8      SUBS     r0,r0,#0x12
        0x00001d18:    5d06        .]      LDRB     r6,[r0,r4]
        0x00001d1a:    7b68        h{      LDRB     r0,[r5,#0xd]
        0x00001d1c:    2800        .(      CMP      r0,#0
        0x00001d1e:    d02d        -.      BEQ      0x1d7c ; decodeNextMCU + 236
        0x00001d20:    2401        .$      MOVS     r4,#1
        0x00001d22:    2e00        ..      CMP      r6,#0
        0x00001d24:    d003        ..      BEQ      0x1d2e ; decodeNextMCU + 158
        0x00001d26:    494f        OI      LDR      r1,[pc,#316] ; [0x1e64] = 0x1ffffd8c
        0x00001d28:    4608        .F      MOV      r0,r1
        0x00001d2a:    3850        P8      SUBS     r0,r0,#0x50
        0x00001d2c:    e003        ..      B        0x1d36 ; decodeNextMCU + 166
        0x00001d2e:    494b        KI      LDR      r1,[pc,#300] ; [0x1e5c] = 0x1ffffbdc
        0x00001d30:    3160        `1      ADDS     r1,r1,#0x60
        0x00001d32:    4608        .F      MOV      r0,r1
        0x00001d34:    3850        P8      SUBS     r0,r0,#0x50
        0x00001d36:    f000fb0d    ....    BL       huffDecode ; 0x2354
        0x00001d3a:    0705        ..      LSLS     r5,r0,#28
        0x00001d3c:    4607        .F      MOV      r7,r0
        0x00001d3e:    0f2d        -.      LSRS     r5,r5,#28
        0x00001d40:    d002        ..      BEQ      0x1d48 ; decodeNextMCU + 184
        0x00001d42:    4628        (F      MOV      r0,r5
        0x00001d44:    f000f9e3    ....    BL       getBits2 ; 0x210e
        0x00001d48:    0938        8.      LSRS     r0,r7,#4
        0x00001d4a:    2d00        .-      CMP      r5,#0
        0x00001d4c:    d006        ..      BEQ      0x1d5c ; decodeNextMCU + 204
        0x00001d4e:    2800        .(      CMP      r0,#0
        0x00001d50:    d00c        ..      BEQ      0x1d6c ; decodeNextMCU + 220
        0x00001d52:    1820         .      ADDS     r0,r4,r0
        0x00001d54:    283f        ?(      CMP      r0,#0x3f
        0x00001d56:    d85a        Z.      BHI      0x1e0e ; decodeNextMCU + 382
        0x00001d58:    b2c4        ..      UXTB     r4,r0
        0x00001d5a:    e007        ..      B        0x1d6c ; decodeNextMCU + 220
        0x00001d5c:    280f        .(      CMP      r0,#0xf
        0x00001d5e:    d109        ..      BNE      0x1d74 ; decodeNextMCU + 228
        0x00001d60:    4620         F      MOV      r0,r4
        0x00001d62:    3010        .0      ADDS     r0,r0,#0x10
        0x00001d64:    2840        @(      CMP      r0,#0x40
        0x00001d66:    d852        R.      BHI      0x1e0e ; decodeNextMCU + 382
        0x00001d68:    340f        .4      ADDS     r4,r4,#0xf
        0x00001d6a:    b2e4        ..      UXTB     r4,r4
        0x00001d6c:    1c64        d.      ADDS     r4,r4,#1
        0x00001d6e:    b2e4        ..      UXTB     r4,r4
        0x00001d70:    2c40        @,      CMP      r4,#0x40
        0x00001d72:    d3d6        ..      BCC      0x1d22 ; decodeNextMCU + 146
        0x00001d74:    9800        ..      LDR      r0,[sp,#0]
        0x00001d76:    f001fd21    ..!.    BL       transformBlockReduce ; 0x37bc
        0x00001d7a:    e060        `.      B        0x1e3e ; decodeNextMCU + 430
        0x00001d7c:    2401        .$      MOVS     r4,#1
        0x00001d7e:    2e00        ..      CMP      r6,#0
        0x00001d80:    d004        ..      BEQ      0x1d8c ; decodeNextMCU + 252
        0x00001d82:    4938        8I      LDR      r1,[pc,#224] ; [0x1e64] = 0x1ffffd8c
        0x00001d84:    4608        .F      MOV      r0,r1
        0x00001d86:    3850        P8      SUBS     r0,r0,#0x50
        0x00001d88:    e004        ..      B        0x1d94 ; decodeNextMCU + 260
        0x00001d8a:    e041        A.      B        0x1e10 ; decodeNextMCU + 384
        0x00001d8c:    4933        3I      LDR      r1,[pc,#204] ; [0x1e5c] = 0x1ffffbdc
        0x00001d8e:    3160        `1      ADDS     r1,r1,#0x60
        0x00001d90:    4608        .F      MOV      r0,r1
        0x00001d92:    3850        P8      SUBS     r0,r0,#0x50
        0x00001d94:    f000fade    ....    BL       huffDecode ; 0x2354
        0x00001d98:    4607        .F      MOV      r7,r0
        0x00001d9a:    2200        ."      MOVS     r2,#0
        0x00001d9c:    0700        ..      LSLS     r0,r0,#28
        0x00001d9e:    0f00        ..      LSRS     r0,r0,#28
        0x00001da0:    4605        .F      MOV      r5,r0
        0x00001da2:    d002        ..      BEQ      0x1daa ; decodeNextMCU + 282
        0x00001da4:    f000f9b3    ....    BL       getBits2 ; 0x210e
        0x00001da8:    4602        .F      MOV      r2,r0
        0x00001daa:    0938        8.      LSRS     r0,r7,#4
        0x00001dac:    0029        ).      MOVS     r1,r5
        0x00001dae:    d01d        ..      BEQ      0x1dec ; decodeNextMCU + 348
        0x00001db0:    2800        .(      CMP      r0,#0
        0x00001db2:    d00e        ..      BEQ      0x1dd2 ; decodeNextMCU + 322
        0x00001db4:    1823        #.      ADDS     r3,r4,r0
        0x00001db6:    2b3f        ?+      CMP      r3,#0x3f
        0x00001db8:    d829        ).      BHI      0x1e0e ; decodeNextMCU + 382
        0x00001dba:    2300        .#      MOVS     r3,#0
        0x00001dbc:    4d2a        *M      LDR      r5,[pc,#168] ; [0x1e68] = 0x5d41
        0x00001dbe:    572d        -W      LDRSB    r5,[r5,r4]
        0x00001dc0:    1c64        d.      ADDS     r4,r4,#1
        0x00001dc2:    006f        o.      LSLS     r7,r5,#1
        0x00001dc4:    4d26        &M      LDR      r5,[pc,#152] ; [0x1e60] = 0x1ffff6ac
        0x00001dc6:    1e40        @.      SUBS     r0,r0,#1
        0x00001dc8:    0400        ..      LSLS     r0,r0,#16
        0x00001dca:    53eb        .S      STRH     r3,[r5,r7]
        0x00001dcc:    b2e4        ..      UXTB     r4,r4
        0x00001dce:    0c00        ..      LSRS     r0,r0,#16
        0x00001dd0:    d1f4        ..      BNE      0x1dbc ; decodeNextMCU + 300
        0x00001dd2:    4610        .F      MOV      r0,r2
        0x00001dd4:    f000faec    ....    BL       huffExtend ; 0x23b0
        0x00001dd8:    9901        ..      LDR      r1,[sp,#4]
        0x00001dda:    0062        b.      LSLS     r2,r4,#1
        0x00001ddc:    5a89        .Z      LDRH     r1,[r1,r2]
        0x00001dde:    4341        AC      MULS     r1,r0,r1
        0x00001de0:    4821        !H      LDR      r0,[pc,#132] ; [0x1e68] = 0x5d41
        0x00001de2:    5700        .W      LDRSB    r0,[r0,r4]
        0x00001de4:    0042        B.      LSLS     r2,r0,#1
        0x00001de6:    481e        .H      LDR      r0,[pc,#120] ; [0x1e60] = 0x1ffff6ac
        0x00001de8:    5281        .R      STRH     r1,[r0,r2]
        0x00001dea:    e021        !.      B        0x1e30 ; decodeNextMCU + 416
        0x00001dec:    280f        .(      CMP      r0,#0xf
        0x00001dee:    d00a        ..      BEQ      0x1e06 ; decodeNextMCU + 374
        0x00001df0:    481b        .H      LDR      r0,[pc,#108] ; [0x1e60] = 0x1ffff6ac
        0x00001df2:    4a1d        .J      LDR      r2,[pc,#116] ; [0x1e68] = 0x5d41
        0x00001df4:    2100        .!      MOVS     r1,#0
        0x00001df6:    2c40        @,      CMP      r4,#0x40
        0x00001df8:    d21e        ..      BCS      0x1e38 ; decodeNextMCU + 424
        0x00001dfa:    5713        .W      LDRSB    r3,[r2,r4]
        0x00001dfc:    005b        [.      LSLS     r3,r3,#1
        0x00001dfe:    1c64        d.      ADDS     r4,r4,#1
        0x00001e00:    52c1        .R      STRH     r1,[r0,r3]
        0x00001e02:    b2e4        ..      UXTB     r4,r4
        0x00001e04:    e7f7        ..      B        0x1df6 ; decodeNextMCU + 358
        0x00001e06:    4620         F      MOV      r0,r4
        0x00001e08:    3010        .0      ADDS     r0,r0,#0x10
        0x00001e0a:    2840        @(      CMP      r0,#0x40
        0x00001e0c:    d901        ..      BLS      0x1e12 ; decodeNextMCU + 386
        0x00001e0e:    201c        .       MOVS     r0,#0x1c
        0x00001e10:    bdfe        ..      POP      {r1-r7,pc}
        0x00001e12:    2010        .       MOVS     r0,#0x10
        0x00001e14:    4a12        .J      LDR      r2,[pc,#72] ; [0x1e60] = 0x1ffff6ac
        0x00001e16:    4b14        .K      LDR      r3,[pc,#80] ; [0x1e68] = 0x5d41
        0x00001e18:    2100        .!      MOVS     r1,#0
        0x00001e1a:    571d        .W      LDRSB    r5,[r3,r4]
        0x00001e1c:    1c64        d.      ADDS     r4,r4,#1
        0x00001e1e:    006d        m.      LSLS     r5,r5,#1
        0x00001e20:    1e40        @.      SUBS     r0,r0,#1
        0x00001e22:    0400        ..      LSLS     r0,r0,#16
        0x00001e24:    5351        QS      STRH     r1,[r2,r5]
        0x00001e26:    b2e4        ..      UXTB     r4,r4
        0x00001e28:    0c00        ..      LSRS     r0,r0,#16
        0x00001e2a:    d1f6        ..      BNE      0x1e1a ; decodeNextMCU + 394
        0x00001e2c:    1e64        d.      SUBS     r4,r4,#1
        0x00001e2e:    b2e4        ..      UXTB     r4,r4
        0x00001e30:    1c64        d.      ADDS     r4,r4,#1
        0x00001e32:    b2e4        ..      UXTB     r4,r4
        0x00001e34:    2c40        @,      CMP      r4,#0x40
        0x00001e36:    d3a2        ..      BCC      0x1d7e ; decodeNextMCU + 238
        0x00001e38:    9800        ..      LDR      r0,[sp,#0]
        0x00001e3a:    f001fc37    ..7.    BL       transformBlock ; 0x36ac
        0x00001e3e:    9800        ..      LDR      r0,[sp,#0]
        0x00001e40:    1c40        @.      ADDS     r0,r0,#1
        0x00001e42:    b2c0        ..      UXTB     r0,r0
        0x00001e44:    4d03        .M      LDR      r5,[pc,#12] ; [0x1e54] = 0x1ffff058
        0x00001e46:    9000        ..      STR      r0,[sp,#0]
        0x00001e48:    7a69        iz      LDRB     r1,[r5,#9]
        0x00001e4a:    4288        .B      CMP      r0,r1
        0x00001e4c:    d200        ..      BCS      0x1e50 ; decodeNextMCU + 448
        0x00001e4e:    e730        0.      B        0x1cb2 ; decodeNextMCU + 34
        0x00001e50:    2000        .       MOVS     r0,#0
        0x00001e52:    bdfe        ..      POP      {r1-r7,pc}
    $d
        0x00001e54:    1ffff058    X...    DCD    536866904
        0x00001e58:    1ffffaac    ....    DCD    536869548
        0x00001e5c:    1ffffbdc    ....    DCD    536869852
        0x00001e60:    1ffff6ac    ....    DCD    536868524
        0x00001e64:    1ffffd8c    ....    DCD    536870284
        0x00001e68:    00005d41    A]..    DCD    23873
    $t
    i.dir_find
    dir_find
        0x00001e6c:    b5f8        ..      PUSH     {r3-r7,lr}
        0x00001e6e:    460d        .F      MOV      r5,r1
        0x00001e70:    4606        .F      MOV      r6,r0
        0x00001e72:    f000f85d    ..].    BL       dir_rewind ; 0x1f30
        0x00001e76:    2800        .(      CMP      r0,#0
        0x00001e78:    d10a        ..      BNE      0x1e90 ; dir_find + 36
        0x00001e7a:    7830        0x      LDRB     r0,[r6,#0]
        0x00001e7c:    2320         #      MOVS     r3,#0x20
        0x00001e7e:    0700        ..      LSLS     r0,r0,#28
        0x00001e80:    0dc2        ..      LSRS     r2,r0,#23
        0x00001e82:    4628        (F      MOV      r0,r5
        0x00001e84:    6931        1i      LDR      r1,[r6,#0x10]
        0x00001e86:    f000f877    ..w.    BL       disk_readp ; 0x1f78
        0x00001e8a:    2800        .(      CMP      r0,#0
        0x00001e8c:    d001        ..      BEQ      0x1e92 ; dir_find + 38
        0x00001e8e:    2001        .       MOVS     r0,#1
        0x00001e90:    bdf8        ..      POP      {r3-r7,pc}
        0x00001e92:    7829        )x      LDRB     r1,[r5,#0]
        0x00001e94:    2000        .       MOVS     r0,#0
        0x00001e96:    2900        .)      CMP      r1,#0
        0x00001e98:    d006        ..      BEQ      0x1ea8 ; dir_find + 60
        0x00001e9a:    7ae9        .z      LDRB     r1,[r5,#0xb]
        0x00001e9c:    0709        ..      LSLS     r1,r1,#28
        0x00001e9e:    d410        ..      BMI      0x1ec2 ; dir_find + 86
        0x00001ea0:    462c        ,F      MOV      r4,r5
        0x00001ea2:    210a        .!      MOVS     r1,#0xa
        0x00001ea4:    6872        rh      LDR      r2,[r6,#4]
        0x00001ea6:    e003        ..      B        0x1eb0 ; dir_find + 68
        0x00001ea8:    2003        .       MOVS     r0,#3
        0x00001eaa:    bdf8        ..      POP      {r3-r7,pc}
        0x00001eac:    1e49        I.      SUBS     r1,r1,#1
        0x00001eae:    d306        ..      BCC      0x1ebe ; dir_find + 82
        0x00001eb0:    7823        #x      LDRB     r3,[r4,#0]
        0x00001eb2:    7817        .x      LDRB     r7,[r2,#0]
        0x00001eb4:    1c52        R.      ADDS     r2,r2,#1
        0x00001eb6:    1c64        d.      ADDS     r4,r4,#1
        0x00001eb8:    1bdb        ..      SUBS     r3,r3,r7
        0x00001eba:    d0f7        ..      BEQ      0x1eac ; dir_find + 64
        0x00001ebc:    e001        ..      B        0x1ec2 ; dir_find + 86
        0x00001ebe:    2b00        .+      CMP      r3,#0
        0x00001ec0:    d0f3        ..      BEQ      0x1eaa ; dir_find + 62
        0x00001ec2:    4630        0F      MOV      r0,r6
        0x00001ec4:    f000f804    ....    BL       dir_next ; 0x1ed0
        0x00001ec8:    2800        .(      CMP      r0,#0
        0x00001eca:    d0d6        ..      BEQ      0x1e7a ; dir_find + 14
        0x00001ecc:    bdf8        ..      POP      {r3-r7,pc}
        0x00001ece:    0000        ..      MOVS     r0,r0
    i.dir_next
    dir_next
        0x00001ed0:    b570        p.      PUSH     {r4-r6,lr}
        0x00001ed2:    4604        .F      MOV      r4,r0
        0x00001ed4:    4815        .H      LDR      r0,[pc,#84] ; [0x1f2c] = 0x1ffff0b4
        0x00001ed6:    6806        .h      LDR      r6,[r0,#0]
        0x00001ed8:    8820         .      LDRH     r0,[r4,#0]
        0x00001eda:    1c40        @.      ADDS     r0,r0,#1
        0x00001edc:    0405        ..      LSLS     r5,r0,#16
        0x00001ede:    0c2d        -.      LSRS     r5,r5,#16
        0x00001ee0:    d01b        ..      BEQ      0x1f1a ; dir_next + 74
        0x00001ee2:    6920         i      LDR      r0,[r4,#0x10]
        0x00001ee4:    2800        .(      CMP      r0,#0
        0x00001ee6:    d018        ..      BEQ      0x1f1a ; dir_next + 74
        0x00001ee8:    0729        ).      LSLS     r1,r5,#28
        0x00001eea:    d11c        ..      BNE      0x1f26 ; dir_next + 86
        0x00001eec:    1c40        @.      ADDS     r0,r0,#1
        0x00001eee:    6120         a      STR      r0,[r4,#0x10]
        0x00001ef0:    68e0        .h      LDR      r0,[r4,#0xc]
        0x00001ef2:    2800        .(      CMP      r0,#0
        0x00001ef4:    d00a        ..      BEQ      0x1f0c ; dir_next + 60
        0x00001ef6:    78b2        .x      LDRB     r2,[r6,#2]
        0x00001ef8:    0929        ).      LSRS     r1,r5,#4
        0x00001efa:    1e52        R.      SUBS     r2,r2,#1
        0x00001efc:    4211        .B      TST      r1,r2
        0x00001efe:    d112        ..      BNE      0x1f26 ; dir_next + 86
        0x00001f00:    f000f9ce    ....    BL       get_fat ; 0x22a0
        0x00001f04:    2801        .(      CMP      r0,#1
        0x00001f06:    d805        ..      BHI      0x1f14 ; dir_next + 68
        0x00001f08:    2001        .       MOVS     r0,#1
        0x00001f0a:    bd70        p.      POP      {r4-r6,pc}
        0x00001f0c:    88b0        ..      LDRH     r0,[r6,#4]
        0x00001f0e:    42a8        .B      CMP      r0,r5
        0x00001f10:    d903        ..      BLS      0x1f1a ; dir_next + 74
        0x00001f12:    e008        ..      B        0x1f26 ; dir_next + 86
        0x00001f14:    68b1        .h      LDR      r1,[r6,#8]
        0x00001f16:    4281        .B      CMP      r1,r0
        0x00001f18:    d801        ..      BHI      0x1f1e ; dir_next + 78
        0x00001f1a:    2003        .       MOVS     r0,#3
        0x00001f1c:    bd70        p.      POP      {r4-r6,pc}
        0x00001f1e:    60e0        .`      STR      r0,[r4,#0xc]
        0x00001f20:    f7fffdfc    ....    BL       clust2sect ; 0x1b1c
        0x00001f24:    6120         a      STR      r0,[r4,#0x10]
        0x00001f26:    8025        %.      STRH     r5,[r4,#0]
        0x00001f28:    2000        .       MOVS     r0,#0
        0x00001f2a:    bd70        p.      POP      {r4-r6,pc}
    $d
        0x00001f2c:    1ffff0b4    ....    DCD    536866996
    $t
    i.dir_rewind
    dir_rewind
        0x00001f30:    b510        ..      PUSH     {r4,lr}
        0x00001f32:    4604        .F      MOV      r4,r0
        0x00001f34:    480a        .H      LDR      r0,[pc,#40] ; [0x1f60] = 0x1ffff0b4
        0x00001f36:    6801        .h      LDR      r1,[r0,#0]
        0x00001f38:    2000        .       MOVS     r0,#0
        0x00001f3a:    8020         .      STRH     r0,[r4,#0]
        0x00001f3c:    68a0        .h      LDR      r0,[r4,#8]
        0x00001f3e:    2801        .(      CMP      r0,#1
        0x00001f40:    d002        ..      BEQ      0x1f48 ; dir_rewind + 24
        0x00001f42:    688a        .h      LDR      r2,[r1,#8]
        0x00001f44:    4282        .B      CMP      r2,r0
        0x00001f46:    d801        ..      BHI      0x1f4c ; dir_rewind + 28
        0x00001f48:    2001        .       MOVS     r0,#1
        0x00001f4a:    bd10        ..      POP      {r4,pc}
        0x00001f4c:    2800        .(      CMP      r0,#0
        0x00001f4e:    d100        ..      BNE      0x1f52 ; dir_rewind + 34
        0x00001f50:    6908        .i      LDR      r0,[r1,#0x10]
        0x00001f52:    60e0        .`      STR      r0,[r4,#0xc]
        0x00001f54:    f7fffde2    ....    BL       clust2sect ; 0x1b1c
        0x00001f58:    6120         a      STR      r0,[r4,#0x10]
        0x00001f5a:    2000        .       MOVS     r0,#0
        0x00001f5c:    bd10        ..      POP      {r4,pc}
    $d
        0x00001f5e:    0000        ..      DCW    0
        0x00001f60:    1ffff0b4    ....    DCD    536866996
    $t
    i.disk_initialize
    disk_initialize
        0x00001f64:    b510        ..      PUSH     {r4,lr}
        0x00001f66:    4803        .H      LDR      r0,[pc,#12] ; [0x1f74] = 0x1fffff8c
        0x00001f68:    f7fefffc    ....    BL       SD_Init ; 0xf64
        0x00001f6c:    2800        .(      CMP      r0,#0
        0x00001f6e:    d000        ..      BEQ      0x1f72 ; disk_initialize + 14
        0x00001f70:    2001        .       MOVS     r0,#1
        0x00001f72:    bd10        ..      POP      {r4,pc}
    $d
        0x00001f74:    1fffff8c    ....    DCD    536870796
    $t
    i.disk_readp
    disk_readp
        0x00001f78:    b508        ..      PUSH     {r3,lr}
        0x00001f7a:    9300        ..      STR      r3,[sp,#0]
        0x00001f7c:    4613        .F      MOV      r3,r2
        0x00001f7e:    460a        .F      MOV      r2,r1
        0x00001f80:    4601        .F      MOV      r1,r0
        0x00001f82:    4803        .H      LDR      r0,[pc,#12] ; [0x1f90] = 0x1fffff8c
        0x00001f84:    f7fff8d8    ....    BL       SD_Read ; 0x1138
        0x00001f88:    2800        .(      CMP      r0,#0
        0x00001f8a:    d000        ..      BEQ      0x1f8e ; disk_readp + 22
        0x00001f8c:    2001        .       MOVS     r0,#1
        0x00001f8e:    bd08        ..      POP      {r3,pc}
    $d
        0x00001f90:    1fffff8c    ....    DCD    536870796
    $t
    i.follow_path
    follow_path
        0x00001f94:    b5f7        ..      PUSH     {r0-r2,r4-r7,lr}
        0x00001f96:    4604        .F      MOV      r4,r0
        0x00001f98:    460d        .F      MOV      r5,r1
        0x00001f9a:    9802        ..      LDR      r0,[sp,#8]
        0x00001f9c:    e001        ..      B        0x1fa2 ; follow_path + 14
        0x00001f9e:    1c40        @.      ADDS     r0,r0,#1
        0x00001fa0:    9002        ..      STR      r0,[sp,#8]
        0x00001fa2:    7801        .x      LDRB     r1,[r0,#0]
        0x00001fa4:    2920         )      CMP      r1,#0x20
        0x00001fa6:    d0fa        ..      BEQ      0x1f9e ; follow_path + 10
        0x00001fa8:    7801        .x      LDRB     r1,[r0,#0]
        0x00001faa:    292f        /)      CMP      r1,#0x2f
        0x00001fac:    d101        ..      BNE      0x1fb2 ; follow_path + 30
        0x00001fae:    1c40        @.      ADDS     r0,r0,#1
        0x00001fb0:    9002        ..      STR      r0,[sp,#8]
        0x00001fb2:    2600        .&      MOVS     r6,#0
        0x00001fb4:    60a6        .`      STR      r6,[r4,#8]
        0x00001fb6:    9802        ..      LDR      r0,[sp,#8]
        0x00001fb8:    7800        .x      LDRB     r0,[r0,#0]
        0x00001fba:    2820         (      CMP      r0,#0x20
        0x00001fbc:    d204        ..      BCS      0x1fc8 ; follow_path + 52
        0x00001fbe:    4620         F      MOV      r0,r4
        0x00001fc0:    f7ffffb6    ....    BL       dir_rewind ; 0x1f30
        0x00001fc4:    702e        .p      STRB     r6,[r5,#0]
        0x00001fc6:    bdfe        ..      POP      {r1-r7,pc}
        0x00001fc8:    a902        ..      ADD      r1,sp,#8
        0x00001fca:    4620         F      MOV      r0,r4
        0x00001fcc:    f7fffe24    ..$.    BL       create_name ; 0x1c18
        0x00001fd0:    2800        .(      CMP      r0,#0
        0x00001fd2:    d1f8        ..      BNE      0x1fc6 ; follow_path + 50
        0x00001fd4:    4629        )F      MOV      r1,r5
        0x00001fd6:    4620         F      MOV      r0,r4
        0x00001fd8:    f7ffff48    ..H.    BL       dir_find ; 0x1e6c
        0x00001fdc:    2800        .(      CMP      r0,#0
        0x00001fde:    d1f2        ..      BNE      0x1fc6 ; follow_path + 50
        0x00001fe0:    6861        ah      LDR      r1,[r4,#4]
        0x00001fe2:    7ac9        .z      LDRB     r1,[r1,#0xb]
        0x00001fe4:    2900        .)      CMP      r1,#0
        0x00001fe6:    d1ee        ..      BNE      0x1fc6 ; follow_path + 50
        0x00001fe8:    7ae8        .z      LDRB     r0,[r5,#0xb]
        0x00001fea:    06c0        ..      LSLS     r0,r0,#27
        0x00001fec:    d401        ..      BMI      0x1ff2 ; follow_path + 94
        0x00001fee:    2003        .       MOVS     r0,#3
        0x00001ff0:    bdfe        ..      POP      {r1-r7,pc}
        0x00001ff2:    4628        (F      MOV      r0,r5
        0x00001ff4:    f000f948    ..H.    BL       get_clust ; 0x2288
        0x00001ff8:    60a0        .`      STR      r0,[r4,#8]
        0x00001ffa:    e7e5        ..      B        0x1fc8 ; follow_path + 52
    i.free
    free
        0x00001ffc:    b510        ..      PUSH     {r4,lr}
        0x00001ffe:    2800        .(      CMP      r0,#0
        0x00002000:    d023        #.      BEQ      0x204a ; free + 78
        0x00002002:    4b12        .K      LDR      r3,[pc,#72] ; [0x204c] = 0x1ffff0bc
        0x00002004:    2200        ."      MOVS     r2,#0
        0x00002006:    1f00        ..      SUBS     r0,r0,#4
        0x00002008:    6819        .h      LDR      r1,[r3,#0]
        0x0000200a:    e003        ..      B        0x2014 ; free + 24
        0x0000200c:    4281        .B      CMP      r1,r0
        0x0000200e:    d803        ..      BHI      0x2018 ; free + 28
        0x00002010:    460a        .F      MOV      r2,r1
        0x00002012:    6849        Ih      LDR      r1,[r1,#4]
        0x00002014:    2900        .)      CMP      r1,#0
        0x00002016:    d1f9        ..      BNE      0x200c ; free + 16
        0x00002018:    2a00        .*      CMP      r2,#0
        0x0000201a:    d00a        ..      BEQ      0x2032 ; free + 54
        0x0000201c:    6813        .h      LDR      r3,[r2,#0]
        0x0000201e:    1a84        ..      SUBS     r4,r0,r2
        0x00002020:    429c        .B      CMP      r4,r3
        0x00002022:    d104        ..      BNE      0x202e ; free + 50
        0x00002024:    6800        .h      LDR      r0,[r0,#0]
        0x00002026:    1818        ..      ADDS     r0,r3,r0
        0x00002028:    6010        .`      STR      r0,[r2,#0]
        0x0000202a:    4610        .F      MOV      r0,r2
        0x0000202c:    e002        ..      B        0x2034 ; free + 56
        0x0000202e:    6050        P`      STR      r0,[r2,#4]
        0x00002030:    e000        ..      B        0x2034 ; free + 56
        0x00002032:    6018        .`      STR      r0,[r3,#0]
        0x00002034:    2900        .)      CMP      r1,#0
        0x00002036:    d007        ..      BEQ      0x2048 ; free + 76
        0x00002038:    6802        .h      LDR      r2,[r0,#0]
        0x0000203a:    1a0b        ..      SUBS     r3,r1,r0
        0x0000203c:    4293        .B      CMP      r3,r2
        0x0000203e:    d103        ..      BNE      0x2048 ; free + 76
        0x00002040:    680b        .h      LDR      r3,[r1,#0]
        0x00002042:    18d2        ..      ADDS     r2,r2,r3
        0x00002044:    6002        .`      STR      r2,[r0,#0]
        0x00002046:    6849        Ih      LDR      r1,[r1,#4]
        0x00002048:    6041        A`      STR      r1,[r0,#4]
        0x0000204a:    bd10        ..      POP      {r4,pc}
    $d
        0x0000204c:    1ffff0bc    ....    DCD    536867004
    $t
    i.getBit
    getBit
        0x00002050:    b570        p.      PUSH     {r4-r6,lr}
        0x00002052:    4c0c        .L      LDR      r4,[pc,#48] ; [0x2084] = 0x1ffff058
        0x00002054:    2500        .%      MOVS     r5,#0
        0x00002056:    89e1        ..      LDRH     r1,[r4,#0xe]
        0x00002058:    0408        ..      LSLS     r0,r1,#16
        0x0000205a:    d500        ..      BPL      0x205e ; getBit + 14
        0x0000205c:    2501        .%      MOVS     r5,#1
        0x0000205e:    7960        `y      LDRB     r0,[r4,#5]
        0x00002060:    2800        .(      CMP      r0,#0
        0x00002062:    d005        ..      BEQ      0x2070 ; getBit + 32
        0x00002064:    1e40        @.      SUBS     r0,r0,#1
        0x00002066:    7160        `q      STRB     r0,[r4,#5]
        0x00002068:    0048        H.      LSLS     r0,r1,#1
        0x0000206a:    81e0        ..      STRH     r0,[r4,#0xe]
        0x0000206c:    4628        (F      MOV      r0,r5
        0x0000206e:    bd70        p.      POP      {r4-r6,pc}
        0x00002070:    2001        .       MOVS     r0,#1
        0x00002072:    f000f8f5    ....    BL       getOctet ; 0x2260
        0x00002076:    89e1        ..      LDRH     r1,[r4,#0xe]
        0x00002078:    4308        .C      ORRS     r0,r0,r1
        0x0000207a:    7961        ay      LDRB     r1,[r4,#5]
        0x0000207c:    1dc9        ..      ADDS     r1,r1,#7
        0x0000207e:    7161        aq      STRB     r1,[r4,#5]
        0x00002080:    0040        @.      LSLS     r0,r0,#1
        0x00002082:    e7f2        ..      B        0x206a ; getBit + 26
    $d
        0x00002084:    1ffff058    X...    DCD    536866904
    $t
    i.getBits
    getBits
    __tagsym$$noinline
        0x00002088:    b5f3        ..      PUSH     {r0,r1,r4-r7,lr}
        0x0000208a:    4c1d        .L      LDR      r4,[pc,#116] ; [0x2100] = 0x1ffff058
        0x0000208c:    b081        ..      SUB      sp,sp,#4
        0x0000208e:    89e6        ..      LDRH     r6,[r4,#0xe]
        0x00002090:    4605        .F      MOV      r5,r0
        0x00002092:    4607        .F      MOV      r7,r0
        0x00002094:    2808        .(      CMP      r0,#8
        0x00002096:    d915        ..      BLS      0x20c4 ; getBits + 60
        0x00002098:    463d        =F      MOV      r5,r7
        0x0000209a:    3d08        .=      SUBS     r5,r5,#8
        0x0000209c:    7961        ay      LDRB     r1,[r4,#5]
        0x0000209e:    4630        0F      MOV      r0,r6
        0x000020a0:    4088        .@      LSLS     r0,r0,r1
        0x000020a2:    81e0        ..      STRH     r0,[r4,#0xe]
        0x000020a4:    b2ed        ..      UXTB     r5,r5
        0x000020a6:    9802        ..      LDR      r0,[sp,#8]
        0x000020a8:    f000f8da    ....    BL       getOctet ; 0x2260
        0x000020ac:    89e1        ..      LDRH     r1,[r4,#0xe]
        0x000020ae:    7962        by      LDRB     r2,[r4,#5]
        0x000020b0:    4308        .C      ORRS     r0,r0,r1
        0x000020b2:    2108        .!      MOVS     r1,#8
        0x000020b4:    1a89        ..      SUBS     r1,r1,r2
        0x000020b6:    4088        .@      LSLS     r0,r0,r1
        0x000020b8:    b280        ..      UXTH     r0,r0
        0x000020ba:    0a36        6.      LSRS     r6,r6,#8
        0x000020bc:    81e0        ..      STRH     r0,[r4,#0xe]
        0x000020be:    0236        6.      LSLS     r6,r6,#8
        0x000020c0:    0a00        ..      LSRS     r0,r0,#8
        0x000020c2:    4306        .C      ORRS     r6,r6,r0
        0x000020c4:    7960        `y      LDRB     r0,[r4,#5]
        0x000020c6:    42a8        .B      CMP      r0,r5
        0x000020c8:    d20f        ..      BCS      0x20ea ; getBits + 98
        0x000020ca:    89e1        ..      LDRH     r1,[r4,#0xe]
        0x000020cc:    4081        .@      LSLS     r1,r1,r0
        0x000020ce:    81e1        ..      STRH     r1,[r4,#0xe]
        0x000020d0:    9802        ..      LDR      r0,[sp,#8]
        0x000020d2:    f000f8c5    ....    BL       getOctet ; 0x2260
        0x000020d6:    89e1        ..      LDRH     r1,[r4,#0xe]
        0x000020d8:    4308        .C      ORRS     r0,r0,r1
        0x000020da:    7961        ay      LDRB     r1,[r4,#5]
        0x000020dc:    1a69        i.      SUBS     r1,r5,r1
        0x000020de:    4088        .@      LSLS     r0,r0,r1
        0x000020e0:    81e0        ..      STRH     r0,[r4,#0xe]
        0x000020e2:    2008        .       MOVS     r0,#8
        0x000020e4:    1a40        @.      SUBS     r0,r0,r1
        0x000020e6:    7160        `q      STRB     r0,[r4,#5]
        0x000020e8:    e004        ..      B        0x20f4 ; getBits + 108
        0x000020ea:    1b40        @.      SUBS     r0,r0,r5
        0x000020ec:    7160        `q      STRB     r0,[r4,#5]
        0x000020ee:    89e0        ..      LDRH     r0,[r4,#0xe]
        0x000020f0:    40a8        .@      LSLS     r0,r0,r5
        0x000020f2:    81e0        ..      STRH     r0,[r4,#0xe]
        0x000020f4:    2010        .       MOVS     r0,#0x10
        0x000020f6:    1bc1        ..      SUBS     r1,r0,r7
        0x000020f8:    4630        0F      MOV      r0,r6
        0x000020fa:    40c8        .@      LSRS     r0,r0,r1
        0x000020fc:    bdfe        ..      POP      {r1-r7,pc}
    $d
        0x000020fe:    0000        ..      DCW    0
        0x00002100:    1ffff058    X...    DCD    536866904
    $t
    i.getBits1
    getBits1
    __tagsym$$noinline
        0x00002104:    b510        ..      PUSH     {r4,lr}
        0x00002106:    2100        .!      MOVS     r1,#0
        0x00002108:    f7ffffbe    ....    BL       getBits ; 0x2088
        0x0000210c:    bd10        ..      POP      {r4,pc}
    i.getBits2
    getBits2
    __tagsym$$noinline
        0x0000210e:    b510        ..      PUSH     {r4,lr}
        0x00002110:    2101        .!      MOVS     r1,#1
        0x00002112:    f7ffffb9    ....    BL       getBits ; 0x2088
        0x00002116:    bd10        ..      POP      {r4,pc}
    i.getChar
    getChar
        0x00002118:    b570        p.      PUSH     {r4-r6,lr}
        0x0000211a:    4c13        .L      LDR      r4,[pc,#76] ; [0x2168] = 0x1ffff058
        0x0000211c:    4d13        .M      LDR      r5,[pc,#76] ; [0x216c] = 0x1ffffe8c
        0x0000211e:    7920         y      LDRB     r0,[r4,#4]
        0x00002120:    2800        .(      CMP      r0,#0
        0x00002122:    d10f        ..      BNE      0x2144 ; getChar + 44
        0x00002124:    2004        .       MOVS     r0,#4
        0x00002126:    70e0        .p      STRB     r0,[r4,#3]
        0x00002128:    2000        .       MOVS     r0,#0
        0x0000212a:    7120         q      STRB     r0,[r4,#4]
        0x0000212c:    21fc        .!      MOVS     r1,#0xfc
        0x0000212e:    1d28        (.      ADDS     r0,r5,#4
        0x00002130:    6be6        .k      LDR      r6,[r4,#0x3c]
        0x00002132:    1d22        ".      ADDS     r2,r4,#4
        0x00002134:    6c23        #l      LDR      r3,[r4,#0x40]
        0x00002136:    47b0        .G      BLX      r6
        0x00002138:    2800        .(      CMP      r0,#0
        0x0000213a:    d000        ..      BEQ      0x213e ; getChar + 38
        0x0000213c:    7320         s      STRB     r0,[r4,#0xc]
        0x0000213e:    7920         y      LDRB     r0,[r4,#4]
        0x00002140:    2800        .(      CMP      r0,#0
        0x00002142:    d007        ..      BEQ      0x2154 ; getChar + 60
        0x00002144:    b2c0        ..      UXTB     r0,r0
        0x00002146:    1e40        @.      SUBS     r0,r0,#1
        0x00002148:    7120         q      STRB     r0,[r4,#4]
        0x0000214a:    78e1        .x      LDRB     r1,[r4,#3]
        0x0000214c:    5c68        h\      LDRB     r0,[r5,r1]
        0x0000214e:    1c49        I.      ADDS     r1,r1,#1
        0x00002150:    70e1        .p      STRB     r1,[r4,#3]
        0x00002152:    bd70        p.      POP      {r4-r6,pc}
        0x00002154:    78a0        .x      LDRB     r0,[r4,#2]
        0x00002156:    43c0        .C      MVNS     r0,r0
        0x00002158:    0600        ..      LSLS     r0,r0,#24
        0x0000215a:    0e00        ..      LSRS     r0,r0,#24
        0x0000215c:    70a0        .p      STRB     r0,[r4,#2]
        0x0000215e:    d001        ..      BEQ      0x2164 ; getChar + 76
        0x00002160:    20ff        .       MOVS     r0,#0xff
        0x00002162:    bd70        p.      POP      {r4-r6,pc}
        0x00002164:    20d9        .       MOVS     r0,#0xd9
        0x00002166:    bd70        p.      POP      {r4-r6,pc}
    $d
        0x00002168:    1ffff058    X...    DCD    536866904
        0x0000216c:    1ffffe8c    ....    DCD    536870540
    $t
    i.getExtendOffset
    getExtendOffset
        0x00002170:    b500        ..      PUSH     {lr}
        0x00002172:    0003        ..      MOVS     r3,r0
        0x00002174:    f7fff9f6    ....    BL       __ARM_common_switch8 ; 0x1564
    $d
        0x00002178:    0c092f10    ./..    DCD    201928464
        0x0000217c:    1815120f    ....    DCD    404034063
        0x00002180:    23211e1b    ..!#    DCD    589372955
        0x00002184:    2b292725    %')+    DCD    724117285
        0x00002188:    2f2d        -/      DCW    12077
    $t
        0x0000218a:    2000        .       MOVS     r0,#0
        0x0000218c:    43c0        .C      MVNS     r0,r0
        0x0000218e:    bd00        ..      POP      {pc}
        0x00002190:    2002        .       MOVS     r0,#2
        0x00002192:    43c0        .C      MVNS     r0,r0
        0x00002194:    bd00        ..      POP      {pc}
        0x00002196:    2006        .       MOVS     r0,#6
        0x00002198:    43c0        .C      MVNS     r0,r0
        0x0000219a:    bd00        ..      POP      {pc}
        0x0000219c:    200e        .       MOVS     r0,#0xe
        0x0000219e:    43c0        .C      MVNS     r0,r0
        0x000021a0:    bd00        ..      POP      {pc}
        0x000021a2:    201e        .       MOVS     r0,#0x1e
        0x000021a4:    43c0        .C      MVNS     r0,r0
        0x000021a6:    bd00        ..      POP      {pc}
        0x000021a8:    203e        >       MOVS     r0,#0x3e
        0x000021aa:    43c0        .C      MVNS     r0,r0
        0x000021ac:    bd00        ..      POP      {pc}
        0x000021ae:    207e        ~       MOVS     r0,#0x7e
        0x000021b0:    43c0        .C      MVNS     r0,r0
        0x000021b2:    bd00        ..      POP      {pc}
        0x000021b4:    20fe        .       MOVS     r0,#0xfe
        0x000021b6:    43c0        .C      MVNS     r0,r0
        0x000021b8:    bd00        ..      POP      {pc}
        0x000021ba:    4808        .H      LDR      r0,[pc,#32] ; [0x21dc] = 0xfffffe01
        0x000021bc:    bd00        ..      POP      {pc}
        0x000021be:    4808        .H      LDR      r0,[pc,#32] ; [0x21e0] = 0xfffffc01
        0x000021c0:    bd00        ..      POP      {pc}
        0x000021c2:    4808        .H      LDR      r0,[pc,#32] ; [0x21e4] = 0xfffff801
        0x000021c4:    bd00        ..      POP      {pc}
        0x000021c6:    4808        .H      LDR      r0,[pc,#32] ; [0x21e8] = 0xfffff001
        0x000021c8:    bd00        ..      POP      {pc}
        0x000021ca:    4808        .H      LDR      r0,[pc,#32] ; [0x21ec] = 0xffffe001
        0x000021cc:    bd00        ..      POP      {pc}
        0x000021ce:    4808        .H      LDR      r0,[pc,#32] ; [0x21f0] = 0xffffc001
        0x000021d0:    bd00        ..      POP      {pc}
        0x000021d2:    4808        .H      LDR      r0,[pc,#32] ; [0x21f4] = 0xffff8001
        0x000021d4:    bd00        ..      POP      {pc}
        0x000021d6:    2000        .       MOVS     r0,#0
        0x000021d8:    bd00        ..      POP      {pc}
    $d
        0x000021da:    0000        ..      DCW    0
        0x000021dc:    fffffe01    ....    DCD    4294966785
        0x000021e0:    fffffc01    ....    DCD    4294966273
        0x000021e4:    fffff801    ....    DCD    4294965249
        0x000021e8:    fffff001    ....    DCD    4294963201
        0x000021ec:    ffffe001    ....    DCD    4294959105
        0x000021f0:    ffffc001    ....    DCD    4294950913
        0x000021f4:    ffff8001    ....    DCD    4294934529
    $t
    i.getExtendTest
    getExtendTest
        0x000021f8:    b500        ..      PUSH     {lr}
        0x000021fa:    0003        ..      MOVS     r3,r0
        0x000021fc:    f7fff9b2    ....    BL       __ARM_common_switch8 ; 0x1564
    $d
        0x00002200:    0b092e10    ....    DCD    185150992
        0x00002204:    13110f0d    ....    DCD    319885069
        0x00002208:    1c191715    ....    DCD    471406357
        0x0000220c:    2825221f    ."%(    DCD    673522207
        0x00002210:    2e2b        +.      DCW    11819
    $t
        0x00002212:    2001        .       MOVS     r0,#1
        0x00002214:    bd00        ..      POP      {pc}
        0x00002216:    2002        .       MOVS     r0,#2
        0x00002218:    bd00        ..      POP      {pc}
        0x0000221a:    2004        .       MOVS     r0,#4
        0x0000221c:    bd00        ..      POP      {pc}
        0x0000221e:    2008        .       MOVS     r0,#8
        0x00002220:    bd00        ..      POP      {pc}
        0x00002222:    2010        .       MOVS     r0,#0x10
        0x00002224:    bd00        ..      POP      {pc}
        0x00002226:    2020                MOVS     r0,#0x20
        0x00002228:    bd00        ..      POP      {pc}
        0x0000222a:    2040        @       MOVS     r0,#0x40
        0x0000222c:    bd00        ..      POP      {pc}
        0x0000222e:    2080        .       MOVS     r0,#0x80
        0x00002230:    bd00        ..      POP      {pc}
        0x00002232:    20ff        .       MOVS     r0,#0xff
        0x00002234:    3001        .0      ADDS     r0,#1
        0x00002236:    bd00        ..      POP      {pc}
        0x00002238:    2001        .       MOVS     r0,#1
        0x0000223a:    0240        @.      LSLS     r0,r0,#9
        0x0000223c:    bd00        ..      POP      {pc}
        0x0000223e:    2001        .       MOVS     r0,#1
        0x00002240:    0280        ..      LSLS     r0,r0,#10
        0x00002242:    bd00        ..      POP      {pc}
        0x00002244:    2001        .       MOVS     r0,#1
        0x00002246:    02c0        ..      LSLS     r0,r0,#11
        0x00002248:    bd00        ..      POP      {pc}
        0x0000224a:    2001        .       MOVS     r0,#1
        0x0000224c:    0300        ..      LSLS     r0,r0,#12
        0x0000224e:    bd00        ..      POP      {pc}
        0x00002250:    2001        .       MOVS     r0,#1
        0x00002252:    0340        @.      LSLS     r0,r0,#13
        0x00002254:    bd00        ..      POP      {pc}
        0x00002256:    2001        .       MOVS     r0,#1
        0x00002258:    0380        ..      LSLS     r0,r0,#14
        0x0000225a:    bd00        ..      POP      {pc}
        0x0000225c:    2000        .       MOVS     r0,#0
        0x0000225e:    bd00        ..      POP      {pc}
    i.getOctet
    getOctet
        0x00002260:    b570        p.      PUSH     {r4-r6,lr}
        0x00002262:    4605        .F      MOV      r5,r0
        0x00002264:    f7ffff58    ..X.    BL       getChar ; 0x2118
        0x00002268:    4604        .F      MOV      r4,r0
        0x0000226a:    2d00        .-      CMP      r5,#0
        0x0000226c:    d00a        ..      BEQ      0x2284 ; getOctet + 36
        0x0000226e:    2cff        .,      CMP      r4,#0xff
        0x00002270:    d108        ..      BNE      0x2284 ; getOctet + 36
        0x00002272:    f7ffff51    ..Q.    BL       getChar ; 0x2118
        0x00002276:    2800        .(      CMP      r0,#0
        0x00002278:    d004        ..      BEQ      0x2284 ; getOctet + 36
        0x0000227a:    f001f9f7    ....    BL       stuffChar ; 0x366c
        0x0000227e:    20ff        .       MOVS     r0,#0xff
        0x00002280:    f001f9f4    ....    BL       stuffChar ; 0x366c
        0x00002284:    4620         F      MOV      r0,r4
        0x00002286:    bd70        p.      POP      {r4-r6,pc}
    i.get_clust
    get_clust
        0x00002288:    b570        p.      PUSH     {r4-r6,lr}
        0x0000228a:    4604        .F      MOV      r4,r0
        0x0000228c:    3014        .0      ADDS     r0,r0,#0x14
        0x0000228e:    f000fb1c    ....    BL       ld_word ; 0x28ca
        0x00002292:    0405        ..      LSLS     r5,r0,#16
        0x00002294:    4620         F      MOV      r0,r4
        0x00002296:    301a        .0      ADDS     r0,r0,#0x1a
        0x00002298:    f000fb17    ....    BL       ld_word ; 0x28ca
        0x0000229c:    4328        (C      ORRS     r0,r0,r5
        0x0000229e:    bd70        p.      POP      {r4-r6,pc}
    i.get_fat
    get_fat
        0x000022a0:    b508        ..      PUSH     {r3,lr}
        0x000022a2:    490e        .I      LDR      r1,[pc,#56] ; [0x22dc] = 0x1ffff0b4
        0x000022a4:    2802        .(      CMP      r0,#2
        0x000022a6:    6809        .h      LDR      r1,[r1,#0]
        0x000022a8:    d310        ..      BCC      0x22cc ; get_fat + 44
        0x000022aa:    688a        .h      LDR      r2,[r1,#8]
        0x000022ac:    4282        .B      CMP      r2,r0
        0x000022ae:    d90d        ..      BLS      0x22cc ; get_fat + 44
        0x000022b0:    780a        .x      LDRB     r2,[r1,#0]
        0x000022b2:    2a03        .*      CMP      r2,#3
        0x000022b4:    d10a        ..      BNE      0x22cc ; get_fat + 44
        0x000022b6:    68c9        .h      LDR      r1,[r1,#0xc]
        0x000022b8:    09c2        ..      LSRS     r2,r0,#7
        0x000022ba:    1889        ..      ADDS     r1,r1,r2
        0x000022bc:    0640        @.      LSLS     r0,r0,#25
        0x000022be:    0dc2        ..      LSRS     r2,r0,#23
        0x000022c0:    2304        .#      MOVS     r3,#4
        0x000022c2:    4668        hF      MOV      r0,sp
        0x000022c4:    f7fffe58    ..X.    BL       disk_readp ; 0x1f78
        0x000022c8:    2800        .(      CMP      r0,#0
        0x000022ca:    d001        ..      BEQ      0x22d0 ; get_fat + 48
        0x000022cc:    2001        .       MOVS     r0,#1
        0x000022ce:    bd08        ..      POP      {r3,pc}
        0x000022d0:    4668        hF      MOV      r0,sp
        0x000022d2:    f000faef    ....    BL       ld_dword ; 0x28b4
        0x000022d6:    0100        ..      LSLS     r0,r0,#4
        0x000022d8:    0900        ..      LSRS     r0,r0,#4
        0x000022da:    bd08        ..      POP      {r3,pc}
    $d
        0x000022dc:    1ffff0b4    ....    DCD    536866996
    $t
    i.get_fileinfo
    get_fileinfo
        0x000022e0:    b570        p.      PUSH     {r4-r6,lr}
        0x000022e2:    4614        .F      MOV      r4,r2
        0x000022e4:    6900        .i      LDR      r0,[r0,#0x10]
        0x000022e6:    3409        .4      ADDS     r4,r4,#9
        0x000022e8:    4616        .F      MOV      r6,r2
        0x000022ea:    460d        .F      MOV      r5,r1
        0x000022ec:    2800        .(      CMP      r0,#0
        0x000022ee:    d02d        -.      BEQ      0x234c ; get_fileinfo + 108
        0x000022f0:    2000        .       MOVS     r0,#0
        0x000022f2:    5c29        )\      LDRB     r1,[r5,r0]
        0x000022f4:    2920         )      CMP      r1,#0x20
        0x000022f6:    d008        ..      BEQ      0x230a ; get_fileinfo + 42
        0x000022f8:    2905        .)      CMP      r1,#5
        0x000022fa:    d100        ..      BNE      0x22fe ; get_fileinfo + 30
        0x000022fc:    21e5        .!      MOVS     r1,#0xe5
        0x000022fe:    7021        !p      STRB     r1,[r4,#0]
        0x00002300:    1c40        @.      ADDS     r0,r0,#1
        0x00002302:    b2c0        ..      UXTB     r0,r0
        0x00002304:    1c64        d.      ADDS     r4,r4,#1
        0x00002306:    2808        .(      CMP      r0,#8
        0x00002308:    d3f3        ..      BCC      0x22f2 ; get_fileinfo + 18
        0x0000230a:    7a28        (z      LDRB     r0,[r5,#8]
        0x0000230c:    2820         (      CMP      r0,#0x20
        0x0000230e:    d00c        ..      BEQ      0x232a ; get_fileinfo + 74
        0x00002310:    202e        .       MOVS     r0,#0x2e
        0x00002312:    7020         p      STRB     r0,[r4,#0]
        0x00002314:    2008        .       MOVS     r0,#8
        0x00002316:    1c64        d.      ADDS     r4,r4,#1
        0x00002318:    5c29        )\      LDRB     r1,[r5,r0]
        0x0000231a:    2920         )      CMP      r1,#0x20
        0x0000231c:    d005        ..      BEQ      0x232a ; get_fileinfo + 74
        0x0000231e:    7021        !p      STRB     r1,[r4,#0]
        0x00002320:    1c40        @.      ADDS     r0,r0,#1
        0x00002322:    b2c0        ..      UXTB     r0,r0
        0x00002324:    1c64        d.      ADDS     r4,r4,#1
        0x00002326:    280b        .(      CMP      r0,#0xb
        0x00002328:    d3f6        ..      BCC      0x2318 ; get_fileinfo + 56
        0x0000232a:    7ae8        .z      LDRB     r0,[r5,#0xb]
        0x0000232c:    7230        0r      STRB     r0,[r6,#8]
        0x0000232e:    4628        (F      MOV      r0,r5
        0x00002330:    301c        .0      ADDS     r0,r0,#0x1c
        0x00002332:    f000fabf    ....    BL       ld_dword ; 0x28b4
        0x00002336:    6030        0`      STR      r0,[r6,#0]
        0x00002338:    4628        (F      MOV      r0,r5
        0x0000233a:    3018        .0      ADDS     r0,r0,#0x18
        0x0000233c:    f000fac5    ....    BL       ld_word ; 0x28ca
        0x00002340:    80b0        ..      STRH     r0,[r6,#4]
        0x00002342:    4628        (F      MOV      r0,r5
        0x00002344:    3016        .0      ADDS     r0,r0,#0x16
        0x00002346:    f000fac0    ....    BL       ld_word ; 0x28ca
        0x0000234a:    80f0        ..      STRH     r0,[r6,#6]
        0x0000234c:    2000        .       MOVS     r0,#0
        0x0000234e:    7020         p      STRB     r0,[r4,#0]
        0x00002350:    bd70        p.      POP      {r4-r6,pc}
        0x00002352:    0000        ..      MOVS     r0,r0
    i.huffDecode
    huffDecode
    __tagsym$$noinline
        0x00002354:    b5f3        ..      PUSH     {r0,r1,r4-r7,lr}
        0x00002356:    b081        ..      SUB      sp,sp,#4
        0x00002358:    4605        .F      MOV      r5,r0
        0x0000235a:    2400        .$      MOVS     r4,#0
        0x0000235c:    f7fffe78    ..x.    BL       getBit ; 0x2050
        0x00002360:    4e11        .N      LDR      r6,[pc,#68] ; [0x23a8] = 0x1ffff058
        0x00002362:    6bb1        .k      LDR      r1,[r6,#0x38]
        0x00002364:    1c49        I.      ADDS     r1,r1,#1
        0x00002366:    63b1        .c      STR      r1,[r6,#0x38]
        0x00002368:    2c10        .,      CMP      r4,#0x10
        0x0000236a:    d012        ..      BEQ      0x2392 ; huffDecode + 62
        0x0000236c:    0061        a.      LSLS     r1,r4,#1
        0x0000236e:    1949        I.      ADDS     r1,r1,r5
        0x00002370:    8c09        ..      LDRH     r1,[r1,#0x20]
        0x00002372:    4288        .B      CMP      r0,r1
        0x00002374:    d80f        ..      BHI      0x2396 ; huffDecode + 66
        0x00002376:    4a0d        .J      LDR      r2,[pc,#52] ; [0x23ac] = 0xffff
        0x00002378:    4291        .B      CMP      r1,r2
        0x0000237a:    d00c        ..      BEQ      0x2396 ; huffDecode + 66
        0x0000237c:    1929        ).      ADDS     r1,r5,r4
        0x0000237e:    0062        b.      LSLS     r2,r4,#1
        0x00002380:    3140        @1      ADDS     r1,r1,#0x40
        0x00002382:    5caa        .\      LDRB     r2,[r5,r2]
        0x00002384:    7809        .x      LDRB     r1,[r1,#0]
        0x00002386:    1a80        ..      SUBS     r0,r0,r2
        0x00002388:    1840        @.      ADDS     r0,r0,r1
        0x0000238a:    9902        ..      LDR      r1,[sp,#8]
        0x0000238c:    b2c0        ..      UXTB     r0,r0
        0x0000238e:    5c08        .\      LDRB     r0,[r1,r0]
        0x00002390:    bdfe        ..      POP      {r1-r7,pc}
        0x00002392:    2000        .       MOVS     r0,#0
        0x00002394:    bdfe        ..      POP      {r1-r7,pc}
        0x00002396:    1c64        d.      ADDS     r4,r4,#1
        0x00002398:    0440        @.      LSLS     r0,r0,#17
        0x0000239a:    b2e4        ..      UXTB     r4,r4
        0x0000239c:    0c07        ..      LSRS     r7,r0,#16
        0x0000239e:    f7fffe57    ..W.    BL       getBit ; 0x2050
        0x000023a2:    4338        8C      ORRS     r0,r0,r7
        0x000023a4:    e7dd        ..      B        0x2362 ; huffDecode + 14
    $d
        0x000023a6:    0000        ..      DCW    0
        0x000023a8:    1ffff058    X...    DCD    536866904
        0x000023ac:    0000ffff    ....    DCD    65535
    $t
    i.huffExtend
    huffExtend
    __tagsym$$noinline
        0x000023b0:    b570        p.      PUSH     {r4-r6,lr}
        0x000023b2:    4605        .F      MOV      r5,r0
        0x000023b4:    460e        .F      MOV      r6,r1
        0x000023b6:    4608        .F      MOV      r0,r1
        0x000023b8:    f7ffff1e    ....    BL       getExtendTest ; 0x21f8
        0x000023bc:    b22c        ,.      SXTH     r4,r5
        0x000023be:    42a8        .B      CMP      r0,r5
        0x000023c0:    d903        ..      BLS      0x23ca ; huffExtend + 26
        0x000023c2:    4630        0F      MOV      r0,r6
        0x000023c4:    f7fffed4    ....    BL       getExtendOffset ; 0x2170
        0x000023c8:    1904        ..      ADDS     r4,r0,r4
        0x000023ca:    b220         .      SXTH     r0,r4
        0x000023cc:    bd70        p.      POP      {r4-r6,pc}
        0x000023ce:    0000        ..      MOVS     r0,r0
    i.idctCols
    idctCols
    __tagsym$$noinline
        0x000023d0:    b5f0        ..      PUSH     {r4-r7,lr}
        0x000023d2:    b08d        ..      SUB      sp,sp,#0x34
        0x000023d4:    4c67        gL      LDR      r4,[pc,#412] ; [0x2574] = 0x1ffff6ac
        0x000023d6:    2000        .       MOVS     r0,#0
        0x000023d8:    900a        ..      STR      r0,[sp,#0x28]
        0x000023da:    2110        .!      MOVS     r1,#0x10
        0x000023dc:    5e61        a^      LDRSH    r1,[r4,r1]
        0x000023de:    2900        .)      CMP      r1,#0
        0x000023e0:    d113        ..      BNE      0x240a ; idctCols + 58
        0x000023e2:    8c20         .      LDRH     r0,[r4,#0x20]
        0x000023e4:    2800        .(      CMP      r0,#0
        0x000023e6:    d110        ..      BNE      0x240a ; idctCols + 58
        0x000023e8:    8e20         .      LDRH     r0,[r4,#0x30]
        0x000023ea:    2800        .(      CMP      r0,#0
        0x000023ec:    d10d        ..      BNE      0x240a ; idctCols + 58
        0x000023ee:    4625        %F      MOV      r5,r4
        0x000023f0:    3540        @5      ADDS     r5,r5,#0x40
        0x000023f2:    8828        (.      LDRH     r0,[r5,#0]
        0x000023f4:    2800        .(      CMP      r0,#0
        0x000023f6:    d108        ..      BNE      0x240a ; idctCols + 58
        0x000023f8:    8a28        (.      LDRH     r0,[r5,#0x10]
        0x000023fa:    2800        .(      CMP      r0,#0
        0x000023fc:    d105        ..      BNE      0x240a ; idctCols + 58
        0x000023fe:    8c28        (.      LDRH     r0,[r5,#0x20]
        0x00002400:    2800        .(      CMP      r0,#0
        0x00002402:    d102        ..      BNE      0x240a ; idctCols + 58
        0x00002404:    8e28        (.      LDRH     r0,[r5,#0x30]
        0x00002406:    2800        .(      CMP      r0,#0
        0x00002408:    d07e        ~.      BEQ      0x2508 ; idctCols + 312
        0x0000240a:    4625        %F      MOV      r5,r4
        0x0000240c:    3540        @5      ADDS     r5,r5,#0x40
        0x0000240e:    8a28        (.      LDRH     r0,[r5,#0x10]
        0x00002410:    8e22        ".      LDRH     r2,[r4,#0x30]
        0x00002412:    1a83        ..      SUBS     r3,r0,r2
        0x00002414:    b21b        ..      SXTH     r3,r3
        0x00002416:    1887        ..      ADDS     r7,r0,r2
        0x00002418:    9300        ..      STR      r3,[sp,#0]
        0x0000241a:    8e28        (.      LDRH     r0,[r5,#0x30]
        0x0000241c:    180e        ..      ADDS     r6,r1,r0
        0x0000241e:    1a08        ..      SUBS     r0,r1,r0
        0x00002420:    b200        ..      SXTH     r0,r0
        0x00002422:    9004        ..      STR      r0,[sp,#0x10]
        0x00002424:    1a18        ..      SUBS     r0,r3,r0
        0x00002426:    b200        ..      SXTH     r0,r0
        0x00002428:    f000f939    ..9.    BL       imul_b5 ; 0x269e
        0x0000242c:    9006        ..      STR      r0,[sp,#0x18]
        0x0000242e:    9804        ..      LDR      r0,[sp,#0x10]
        0x00002430:    f000f92e    ....    BL       imul_b4 ; 0x2690
        0x00002434:    9906        ..      LDR      r1,[sp,#0x18]
        0x00002436:    1a42        B.      SUBS     r2,r0,r1
        0x00002438:    9205        ..      STR      r2,[sp,#0x14]
        0x0000243a:    9800        ..      LDR      r0,[sp,#0]
        0x0000243c:    f000f920    .. .    BL       imul_b2 ; 0x2680
        0x00002440:    9906        ..      LDR      r1,[sp,#0x18]
        0x00002442:    1a08        ..      SUBS     r0,r1,r0
        0x00002444:    19f1        ..      ADDS     r1,r6,r7
        0x00002446:    b209        ..      SXTH     r1,r1
        0x00002448:    9100        ..      STR      r1,[sp,#0]
        0x0000244a:    9a05        ..      LDR      r2,[sp,#0x14]
        0x0000244c:    9004        ..      STR      r0,[sp,#0x10]
        0x0000244e:    1a51        Q.      SUBS     r1,r2,r1
        0x00002450:    1bf0        ..      SUBS     r0,r6,r7
        0x00002452:    b209        ..      SXTH     r1,r1
        0x00002454:    b200        ..      SXTH     r0,r0
        0x00002456:    9103        ..      STR      r1,[sp,#0xc]
        0x00002458:    f000f90a    ....    BL       imul_b1_b3 ; 0x2670
        0x0000245c:    9903        ..      LDR      r1,[sp,#0xc]
        0x0000245e:    1a40        @.      SUBS     r0,r0,r1
        0x00002460:    b207        ..      SXTH     r7,r0
        0x00002462:    9804        ..      LDR      r0,[sp,#0x10]
        0x00002464:    1838        8.      ADDS     r0,r7,r0
        0x00002466:    b200        ..      SXTH     r0,r0
        0x00002468:    9007        ..      STR      r0,[sp,#0x1c]
        0x0000246a:    8820         .      LDRH     r0,[r4,#0]
        0x0000246c:    882a        *.      LDRH     r2,[r5,#0]
        0x0000246e:    1881        ..      ADDS     r1,r0,r2
        0x00002470:    9108        ..      STR      r1,[sp,#0x20]
        0x00002472:    1a81        ..      SUBS     r1,r0,r2
        0x00002474:    9106        ..      STR      r1,[sp,#0x18]
        0x00002476:    8c21        !.      LDRH     r1,[r4,#0x20]
        0x00002478:    8c2a        *.      LDRH     r2,[r5,#0x20]
        0x0000247a:    1a88        ..      SUBS     r0,r1,r2
        0x0000247c:    b200        ..      SXTH     r0,r0
        0x0000247e:    188e        ..      ADDS     r6,r1,r2
        0x00002480:    f000f8f6    ....    BL       imul_b1_b3 ; 0x2670
        0x00002484:    9908        ..      LDR      r1,[sp,#0x20]
        0x00002486:    1b80        ..      SUBS     r0,r0,r6
        0x00002488:    1989        ..      ADDS     r1,r1,r6
        0x0000248a:    b20a        ..      SXTH     r2,r1
        0x0000248c:    9908        ..      LDR      r1,[sp,#0x20]
        0x0000248e:    9204        ..      STR      r2,[sp,#0x10]
        0x00002490:    1b89        ..      SUBS     r1,r1,r6
        0x00002492:    b20e        ..      SXTH     r6,r1
        0x00002494:    9906        ..      LDR      r1,[sp,#0x18]
        0x00002496:    1809        ..      ADDS     r1,r1,r0
        0x00002498:    b20a        ..      SXTH     r2,r1
        0x0000249a:    9906        ..      LDR      r1,[sp,#0x18]
        0x0000249c:    9208        ..      STR      r2,[sp,#0x20]
        0x0000249e:    1a08        ..      SUBS     r0,r1,r0
        0x000024a0:    b200        ..      SXTH     r0,r0
        0x000024a2:    9005        ..      STR      r0,[sp,#0x14]
        0x000024a4:    9a04        ..      LDR      r2,[sp,#0x10]
        0x000024a6:    9900        ..      LDR      r1,[sp,#0]
        0x000024a8:    1850        P.      ADDS     r0,r2,r1
        0x000024aa:    3040        @0      ADDS     r0,r0,#0x40
        0x000024ac:    09c0        ..      LSRS     r0,r0,#7
        0x000024ae:    3080        .0      ADDS     r0,r0,#0x80
        0x000024b0:    b200        ..      SXTH     r0,r0
        0x000024b2:    f7fffb25    ..%.    BL       clamp ; 0x1b00
        0x000024b6:    8020         .      STRH     r0,[r4,#0]
        0x000024b8:    9a08        ..      LDR      r2,[sp,#0x20]
        0x000024ba:    9903        ..      LDR      r1,[sp,#0xc]
        0x000024bc:    1850        P.      ADDS     r0,r2,r1
        0x000024be:    3040        @0      ADDS     r0,r0,#0x40
        0x000024c0:    09c0        ..      LSRS     r0,r0,#7
        0x000024c2:    3080        .0      ADDS     r0,r0,#0x80
        0x000024c4:    b200        ..      SXTH     r0,r0
        0x000024c6:    f7fffb1b    ....    BL       clamp ; 0x1b00
        0x000024ca:    8220         .      STRH     r0,[r4,#0x10]
        0x000024cc:    9805        ..      LDR      r0,[sp,#0x14]
        0x000024ce:    19c0        ..      ADDS     r0,r0,r7
        0x000024d0:    3040        @0      ADDS     r0,r0,#0x40
        0x000024d2:    09c0        ..      LSRS     r0,r0,#7
        0x000024d4:    3080        .0      ADDS     r0,r0,#0x80
        0x000024d6:    b200        ..      SXTH     r0,r0
        0x000024d8:    f7fffb12    ....    BL       clamp ; 0x1b00
        0x000024dc:    8420         .      STRH     r0,[r4,#0x20]
        0x000024de:    9807        ..      LDR      r0,[sp,#0x1c]
        0x000024e0:    1a30        0.      SUBS     r0,r6,r0
        0x000024e2:    3040        @0      ADDS     r0,r0,#0x40
        0x000024e4:    09c0        ..      LSRS     r0,r0,#7
        0x000024e6:    3080        .0      ADDS     r0,r0,#0x80
        0x000024e8:    b200        ..      SXTH     r0,r0
        0x000024ea:    f7fffb09    ....    BL       clamp ; 0x1b00
        0x000024ee:    8620         .      STRH     r0,[r4,#0x30]
        0x000024f0:    9807        ..      LDR      r0,[sp,#0x1c]
        0x000024f2:    1830        0.      ADDS     r0,r6,r0
        0x000024f4:    3040        @0      ADDS     r0,r0,#0x40
        0x000024f6:    09c0        ..      LSRS     r0,r0,#7
        0x000024f8:    3080        .0      ADDS     r0,r0,#0x80
        0x000024fa:    b200        ..      SXTH     r0,r0
        0x000024fc:    f7fffb00    ....    BL       clamp ; 0x1b00
        0x00002500:    8028        (.      STRH     r0,[r5,#0]
        0x00002502:    9805        ..      LDR      r0,[sp,#0x14]
        0x00002504:    1bc0        ..      SUBS     r0,r0,r7
        0x00002506:    e000        ..      B        0x250a ; idctCols + 314
        0x00002508:    e024        $.      B        0x2554 ; idctCols + 388
        0x0000250a:    3040        @0      ADDS     r0,r0,#0x40
        0x0000250c:    09c0        ..      LSRS     r0,r0,#7
        0x0000250e:    3080        .0      ADDS     r0,r0,#0x80
        0x00002510:    b200        ..      SXTH     r0,r0
        0x00002512:    f7fffaf5    ....    BL       clamp ; 0x1b00
        0x00002516:    8228        (.      STRH     r0,[r5,#0x10]
        0x00002518:    9a08        ..      LDR      r2,[sp,#0x20]
        0x0000251a:    9903        ..      LDR      r1,[sp,#0xc]
        0x0000251c:    1a50        P.      SUBS     r0,r2,r1
        0x0000251e:    3040        @0      ADDS     r0,r0,#0x40
        0x00002520:    09c0        ..      LSRS     r0,r0,#7
        0x00002522:    3080        .0      ADDS     r0,r0,#0x80
        0x00002524:    b200        ..      SXTH     r0,r0
        0x00002526:    f7fffaeb    ....    BL       clamp ; 0x1b00
        0x0000252a:    8428        (.      STRH     r0,[r5,#0x20]
        0x0000252c:    9a04        ..      LDR      r2,[sp,#0x10]
        0x0000252e:    9900        ..      LDR      r1,[sp,#0]
        0x00002530:    1a50        P.      SUBS     r0,r2,r1
        0x00002532:    3040        @0      ADDS     r0,r0,#0x40
        0x00002534:    09c0        ..      LSRS     r0,r0,#7
        0x00002536:    3080        .0      ADDS     r0,r0,#0x80
        0x00002538:    b200        ..      SXTH     r0,r0
        0x0000253a:    f7fffae1    ....    BL       clamp ; 0x1b00
        0x0000253e:    8628        (.      STRH     r0,[r5,#0x30]
        0x00002540:    980a        ..      LDR      r0,[sp,#0x28]
        0x00002542:    1ca4        ..      ADDS     r4,r4,#2
        0x00002544:    1c40        @.      ADDS     r0,r0,#1
        0x00002546:    b2c0        ..      UXTB     r0,r0
        0x00002548:    900a        ..      STR      r0,[sp,#0x28]
        0x0000254a:    2808        .(      CMP      r0,#8
        0x0000254c:    d200        ..      BCS      0x2550 ; idctCols + 384
        0x0000254e:    e744        D.      B        0x23da ; idctCols + 10
        0x00002550:    b00d        ..      ADD      sp,sp,#0x34
        0x00002552:    bdf0        ..      POP      {r4-r7,pc}
        0x00002554:    2000        .       MOVS     r0,#0
        0x00002556:    5e20         ^      LDRSH    r0,[r4,r0]
        0x00002558:    3040        @0      ADDS     r0,r0,#0x40
        0x0000255a:    09c0        ..      LSRS     r0,r0,#7
        0x0000255c:    3080        .0      ADDS     r0,r0,#0x80
        0x0000255e:    b200        ..      SXTH     r0,r0
        0x00002560:    f7ffface    ....    BL       clamp ; 0x1b00
        0x00002564:    8020         .      STRH     r0,[r4,#0]
        0x00002566:    8220         .      STRH     r0,[r4,#0x10]
        0x00002568:    8420         .      STRH     r0,[r4,#0x20]
        0x0000256a:    8620         .      STRH     r0,[r4,#0x30]
        0x0000256c:    8028        (.      STRH     r0,[r5,#0]
        0x0000256e:    8228        (.      STRH     r0,[r5,#0x10]
        0x00002570:    8428        (.      STRH     r0,[r5,#0x20]
        0x00002572:    e7e4        ..      B        0x253e ; idctCols + 366
    $d
        0x00002574:    1ffff6ac    ....    DCD    536868524
    $t
    i.idctRows
    idctRows
    __tagsym$$noinline
        0x00002578:    b5f0        ..      PUSH     {r4-r7,lr}
        0x0000257a:    4c3c        <L      LDR      r4,[pc,#240] ; [0x266c] = 0x1ffff6ac
        0x0000257c:    b085        ..      SUB      sp,sp,#0x14
        0x0000257e:    2500        .%      MOVS     r5,#0
        0x00002580:    2002        .       MOVS     r0,#2
        0x00002582:    2104        .!      MOVS     r1,#4
        0x00002584:    2206        ."      MOVS     r2,#6
        0x00002586:    2308        .#      MOVS     r3,#8
        0x00002588:    5e20         ^      LDRSH    r0,[r4,r0]
        0x0000258a:    5e61        a^      LDRSH    r1,[r4,r1]
        0x0000258c:    5ea2        .^      LDRSH    r2,[r4,r2]
        0x0000258e:    5ee3        .^      LDRSH    r3,[r4,r3]
        0x00002590:    4301        .C      ORRS     r1,r1,r0
        0x00002592:    4313        .C      ORRS     r3,r3,r2
        0x00002594:    4319        .C      ORRS     r1,r1,r3
        0x00002596:    260a        .&      MOVS     r6,#0xa
        0x00002598:    5fa6        ._      LDRSH    r6,[r4,r6]
        0x0000259a:    230c        .#      MOVS     r3,#0xc
        0x0000259c:    5ee3        .^      LDRSH    r3,[r4,r3]
        0x0000259e:    4331        1C      ORRS     r1,r1,r6
        0x000025a0:    430b        .C      ORRS     r3,r3,r1
        0x000025a2:    210e        .!      MOVS     r1,#0xe
        0x000025a4:    5e61        a^      LDRSH    r1,[r4,r1]
        0x000025a6:    430b        .C      ORRS     r3,r3,r1
        0x000025a8:    d057        W.      BEQ      0x265a ; idctRows + 226
        0x000025aa:    1ab3        ..      SUBS     r3,r6,r2
        0x000025ac:    18b7        ..      ADDS     r7,r6,r2
        0x000025ae:    1846        F.      ADDS     r6,r0,r1
        0x000025b0:    1a40        @.      SUBS     r0,r0,r1
        0x000025b2:    b21b        ..      SXTH     r3,r3
        0x000025b4:    b200        ..      SXTH     r0,r0
        0x000025b6:    9000        ..      STR      r0,[sp,#0]
        0x000025b8:    1a18        ..      SUBS     r0,r3,r0
        0x000025ba:    9301        ..      STR      r3,[sp,#4]
        0x000025bc:    b200        ..      SXTH     r0,r0
        0x000025be:    f000f86e    ..n.    BL       imul_b5 ; 0x269e
        0x000025c2:    9002        ..      STR      r0,[sp,#8]
        0x000025c4:    9800        ..      LDR      r0,[sp,#0]
        0x000025c6:    f000f863    ..c.    BL       imul_b4 ; 0x2690
        0x000025ca:    9902        ..      LDR      r1,[sp,#8]
        0x000025cc:    1a42        B.      SUBS     r2,r0,r1
        0x000025ce:    9200        ..      STR      r2,[sp,#0]
        0x000025d0:    9801        ..      LDR      r0,[sp,#4]
        0x000025d2:    f000f855    ..U.    BL       imul_b2 ; 0x2680
        0x000025d6:    9902        ..      LDR      r1,[sp,#8]
        0x000025d8:    9a00        ..      LDR      r2,[sp,#0]
        0x000025da:    1a08        ..      SUBS     r0,r1,r0
        0x000025dc:    19f1        ..      ADDS     r1,r6,r7
        0x000025de:    9002        ..      STR      r0,[sp,#8]
        0x000025e0:    9101        ..      STR      r1,[sp,#4]
        0x000025e2:    1bf0        ..      SUBS     r0,r6,r7
        0x000025e4:    1a51        Q.      SUBS     r1,r2,r1
        0x000025e6:    b200        ..      SXTH     r0,r0
        0x000025e8:    9100        ..      STR      r1,[sp,#0]
        0x000025ea:    f000f841    ..A.    BL       imul_b1_b3 ; 0x2670
        0x000025ee:    9900        ..      LDR      r1,[sp,#0]
        0x000025f0:    1a47        G.      SUBS     r7,r0,r1
        0x000025f2:    9802        ..      LDR      r0,[sp,#8]
        0x000025f4:    1839        9.      ADDS     r1,r7,r0
        0x000025f6:    9104        ..      STR      r1,[sp,#0x10]
        0x000025f8:    8820         .      LDRH     r0,[r4,#0]
        0x000025fa:    8921        !.      LDRH     r1,[r4,#8]
        0x000025fc:    1842        B.      ADDS     r2,r0,r1
        0x000025fe:    9203        ..      STR      r2,[sp,#0xc]
        0x00002600:    1a42        B.      SUBS     r2,r0,r1
        0x00002602:    9202        ..      STR      r2,[sp,#8]
        0x00002604:    88a2        ..      LDRH     r2,[r4,#4]
        0x00002606:    89a1        ..      LDRH     r1,[r4,#0xc]
        0x00002608:    1a50        P.      SUBS     r0,r2,r1
        0x0000260a:    b200        ..      SXTH     r0,r0
        0x0000260c:    1856        V.      ADDS     r6,r2,r1
        0x0000260e:    f000f82f    ../.    BL       imul_b1_b3 ; 0x2670
        0x00002612:    9a03        ..      LDR      r2,[sp,#0xc]
        0x00002614:    1b81        ..      SUBS     r1,r0,r6
        0x00002616:    1990        ..      ADDS     r0,r2,r6
        0x00002618:    1b96        ..      SUBS     r6,r2,r6
        0x0000261a:    9a02        ..      LDR      r2,[sp,#8]
        0x0000261c:    1853        S.      ADDS     r3,r2,r1
        0x0000261e:    1a52        R.      SUBS     r2,r2,r1
        0x00002620:    9901        ..      LDR      r1,[sp,#4]
        0x00002622:    1841        A.      ADDS     r1,r0,r1
        0x00002624:    8021        !.      STRH     r1,[r4,#0]
        0x00002626:    9900        ..      LDR      r1,[sp,#0]
        0x00002628:    1859        Y.      ADDS     r1,r3,r1
        0x0000262a:    8061        a.      STRH     r1,[r4,#2]
        0x0000262c:    19d1        ..      ADDS     r1,r2,r7
        0x0000262e:    80a1        ..      STRH     r1,[r4,#4]
        0x00002630:    9904        ..      LDR      r1,[sp,#0x10]
        0x00002632:    1a71        q.      SUBS     r1,r6,r1
        0x00002634:    80e1        ..      STRH     r1,[r4,#6]
        0x00002636:    9904        ..      LDR      r1,[sp,#0x10]
        0x00002638:    1871        q.      ADDS     r1,r6,r1
        0x0000263a:    8121        !.      STRH     r1,[r4,#8]
        0x0000263c:    1bd1        ..      SUBS     r1,r2,r7
        0x0000263e:    8161        a.      STRH     r1,[r4,#0xa]
        0x00002640:    9900        ..      LDR      r1,[sp,#0]
        0x00002642:    1a59        Y.      SUBS     r1,r3,r1
        0x00002644:    81a1        ..      STRH     r1,[r4,#0xc]
        0x00002646:    9901        ..      LDR      r1,[sp,#4]
        0x00002648:    1a40        @.      SUBS     r0,r0,r1
        0x0000264a:    81e0        ..      STRH     r0,[r4,#0xe]
        0x0000264c:    1c6d        m.      ADDS     r5,r5,#1
        0x0000264e:    b2ed        ..      UXTB     r5,r5
        0x00002650:    3410        .4      ADDS     r4,r4,#0x10
        0x00002652:    2d08        .-      CMP      r5,#8
        0x00002654:    d394        ..      BCC      0x2580 ; idctRows + 8
        0x00002656:    b005        ..      ADD      sp,sp,#0x14
        0x00002658:    bdf0        ..      POP      {r4-r7,pc}
        0x0000265a:    8820         .      LDRH     r0,[r4,#0]
        0x0000265c:    8060        `.      STRH     r0,[r4,#2]
        0x0000265e:    80a0        ..      STRH     r0,[r4,#4]
        0x00002660:    80e0        ..      STRH     r0,[r4,#6]
        0x00002662:    8120         .      STRH     r0,[r4,#8]
        0x00002664:    8160        `.      STRH     r0,[r4,#0xa]
        0x00002666:    81a0        ..      STRH     r0,[r4,#0xc]
        0x00002668:    e7ef        ..      B        0x264a ; idctRows + 210
    $d
        0x0000266a:    0000        ..      DCW    0
        0x0000266c:    1ffff6ac    ....    DCD    536868524
    $t
    i.imul_b1_b3
    imul_b1_b3
        0x00002670:    21ff        .!      MOVS     r1,#0xff
        0x00002672:    316b        k1      ADDS     r1,r1,#0x6b
        0x00002674:    4348        HC      MULS     r0,r1,r0
        0x00002676:    3080        .0      ADDS     r0,r0,#0x80
        0x00002678:    1200        ..      ASRS     r0,r0,#8
        0x0000267a:    b200        ..      SXTH     r0,r0
        0x0000267c:    4770        pG      BX       lr
        0x0000267e:    0000        ..      MOVS     r0,r0
    i.imul_b2
    imul_b2
        0x00002680:    4902        .I      LDR      r1,[pc,#8] ; [0x268c] = 0x29d
        0x00002682:    4348        HC      MULS     r0,r1,r0
        0x00002684:    3080        .0      ADDS     r0,r0,#0x80
        0x00002686:    1200        ..      ASRS     r0,r0,#8
        0x00002688:    b200        ..      SXTH     r0,r0
        0x0000268a:    4770        pG      BX       lr
    $d
        0x0000268c:    0000029d    ....    DCD    669
    $t
    i.imul_b4
    imul_b4
        0x00002690:    21ff        .!      MOVS     r1,#0xff
        0x00002692:    3116        .1      ADDS     r1,r1,#0x16
        0x00002694:    4348        HC      MULS     r0,r1,r0
        0x00002696:    3080        .0      ADDS     r0,r0,#0x80
        0x00002698:    1200        ..      ASRS     r0,r0,#8
        0x0000269a:    b200        ..      SXTH     r0,r0
        0x0000269c:    4770        pG      BX       lr
    i.imul_b5
    imul_b5
        0x0000269e:    21c4        .!      MOVS     r1,#0xc4
        0x000026a0:    4348        HC      MULS     r0,r1,r0
        0x000026a2:    3080        .0      ADDS     r0,r0,#0x80
        0x000026a4:    1200        ..      ASRS     r0,r0,#8
        0x000026a6:    b200        ..      SXTH     r0,r0
        0x000026a8:    4770        pG      BX       lr
        0x000026aa:    0000        ..      MOVS     r0,r0
    i.init
    init
        0x000026ac:    b510        ..      PUSH     {r4,lr}
        0x000026ae:    480b        .H      LDR      r0,[pc,#44] ; [0x26dc] = 0x1ffff058
        0x000026b0:    2100        .!      MOVS     r1,#0
        0x000026b2:    8201        ..      STRH     r1,[r0,#0x10]
        0x000026b4:    8241        A.      STRH     r1,[r0,#0x12]
        0x000026b6:    7181        .q      STRB     r1,[r0,#6]
        0x000026b8:    8281        ..      STRH     r1,[r0,#0x14]
        0x000026ba:    71c1        .q      STRB     r1,[r0,#7]
        0x000026bc:    7001        .p      STRB     r1,[r0,#0]
        0x000026be:    7041        Ap      STRB     r1,[r0,#1]
        0x000026c0:    7081        .p      STRB     r1,[r0,#2]
        0x000026c2:    70c1        .p      STRB     r1,[r0,#3]
        0x000026c4:    7101        .q      STRB     r1,[r0,#4]
        0x000026c6:    81c1        ..      STRH     r1,[r0,#0xe]
        0x000026c8:    2108        .!      MOVS     r1,#8
        0x000026ca:    7141        Aq      STRB     r1,[r0,#5]
        0x000026cc:    4608        .F      MOV      r0,r1
        0x000026ce:    f7fffd19    ....    BL       getBits1 ; 0x2104
        0x000026d2:    2008        .       MOVS     r0,#8
        0x000026d4:    f7fffd16    ....    BL       getBits1 ; 0x2104
        0x000026d8:    2000        .       MOVS     r0,#0
        0x000026da:    bd10        ..      POP      {r4,pc}
    $d
        0x000026dc:    1ffff058    X...    DCD    536866904
    $t
    i.initFrame
    initFrame
        0x000026e0:    b5f0        ..      PUSH     {r4-r7,lr}
        0x000026e2:    493f        ?I      LDR      r1,[pc,#252] ; [0x27e0] = 0x1ffff058
        0x000026e4:    2200        ."      MOVS     r2,#0
        0x000026e6:    4608        .F      MOV      r0,r1
        0x000026e8:    304a        J0      ADDS     r0,r0,#0x4a
        0x000026ea:    4605        .F      MOV      r5,r0
        0x000026ec:    3d27        '=      SUBS     r5,r5,#0x27
        0x000026ee:    798c        .y      LDRB     r4,[r1,#6]
        0x000026f0:    782e        .x      LDRB     r6,[r5,#0]
        0x000026f2:    1cef        ..      ADDS     r7,r5,#3
        0x000026f4:    2301        .#      MOVS     r3,#1
        0x000026f6:    783d        =x      LDRB     r5,[r7,#0]
        0x000026f8:    2c01        .,      CMP      r4,#1
        0x000026fa:    d003        ..      BEQ      0x2704 ; initFrame + 36
        0x000026fc:    2c03        .,      CMP      r4,#3
        0x000026fe:    d009        ..      BEQ      0x2714 ; initFrame + 52
        0x00002700:    201a        .       MOVS     r0,#0x1a
        0x00002702:    bdf0        ..      POP      {r4-r7,pc}
        0x00002704:    2e01        ..      CMP      r6,#1
        0x00002706:    d14e        N.      BNE      0x27a6 ; initFrame + 198
        0x00002708:    2d01        .-      CMP      r5,#1
        0x0000270a:    d14c        L.      BNE      0x27a6 ; initFrame + 198
        0x0000270c:    720a        .r      STRB     r2,[r1,#8]
        0x0000270e:    724b        Kr      STRB     r3,[r1,#9]
        0x00002710:    7002        .p      STRB     r2,[r0,#0]
        0x00002712:    e021        !.      B        0x2758 ; initFrame + 120
        0x00002714:    4c32        2L      LDR      r4,[pc,#200] ; [0x27e0] = 0x1ffff058
        0x00002716:    3423        #4      ADDS     r4,r4,#0x23
        0x00002718:    7864        dx      LDRB     r4,[r4,#1]
        0x0000271a:    2c01        .,      CMP      r4,#1
        0x0000271c:    d143        C.      BNE      0x27a6 ; initFrame + 198
        0x0000271e:    787c        |x      LDRB     r4,[r7,#1]
        0x00002720:    2c01        .,      CMP      r4,#1
        0x00002722:    d140        @.      BNE      0x27a6 ; initFrame + 198
        0x00002724:    4c2e        .L      LDR      r4,[pc,#184] ; [0x27e0] = 0x1ffff058
        0x00002726:    3423        #4      ADDS     r4,r4,#0x23
        0x00002728:    78a4        .x      LDRB     r4,[r4,#2]
        0x0000272a:    2c01        .,      CMP      r4,#1
        0x0000272c:    d13b        ;.      BNE      0x27a6 ; initFrame + 198
        0x0000272e:    78bc        .x      LDRB     r4,[r7,#2]
        0x00002730:    2c01        .,      CMP      r4,#1
        0x00002732:    d138        8.      BNE      0x27a6 ; initFrame + 198
        0x00002734:    2402        .$      MOVS     r4,#2
        0x00002736:    2704        .'      MOVS     r7,#4
        0x00002738:    2e01        ..      CMP      r6,#1
        0x0000273a:    d002        ..      BEQ      0x2742 ; initFrame + 98
        0x0000273c:    2e02        ..      CMP      r6,#2
        0x0000273e:    d02e        ..      BEQ      0x279e ; initFrame + 190
        0x00002740:    e031        1.      B        0x27a6 ; initFrame + 198
        0x00002742:    2603        .&      MOVS     r6,#3
        0x00002744:    2d01        .-      CMP      r5,#1
        0x00002746:    d002        ..      BEQ      0x274e ; initFrame + 110
        0x00002748:    2d02        .-      CMP      r5,#2
        0x0000274a:    d007        ..      BEQ      0x275c ; initFrame + 124
        0x0000274c:    e02b        +.      B        0x27a6 ; initFrame + 198
        0x0000274e:    720b        .r      STRB     r3,[r1,#8]
        0x00002750:    724e        Nr      STRB     r6,[r1,#9]
        0x00002752:    7002        .p      STRB     r2,[r0,#0]
        0x00002754:    7043        Cp      STRB     r3,[r0,#1]
        0x00002756:    7084        .p      STRB     r4,[r0,#2]
        0x00002758:    2008        .       MOVS     r0,#8
        0x0000275a:    e03a        :.      B        0x27d2 ; initFrame + 242
        0x0000275c:    720e        .r      STRB     r6,[r1,#8]
        0x0000275e:    724f        Or      STRB     r7,[r1,#9]
        0x00002760:    7002        .p      STRB     r2,[r0,#0]
        0x00002762:    7042        Bp      STRB     r2,[r0,#1]
        0x00002764:    7083        .p      STRB     r3,[r0,#2]
        0x00002766:    70c4        .p      STRB     r4,[r0,#3]
        0x00002768:    2008        .       MOVS     r0,#8
        0x0000276a:    7288        .r      STRB     r0,[r1,#0xa]
        0x0000276c:    2010        .       MOVS     r0,#0x10
        0x0000276e:    72c8        .r      STRB     r0,[r1,#0xb]
        0x00002770:    8a08        ..      LDRH     r0,[r1,#0x10]
        0x00002772:    7a8a        .z      LDRB     r2,[r1,#0xa]
        0x00002774:    1880        ..      ADDS     r0,r0,r2
        0x00002776:    1e40        @.      SUBS     r0,r0,#1
        0x00002778:    2a08        .*      CMP      r2,#8
        0x0000277a:    d02c        ,.      BEQ      0x27d6 ; initFrame + 246
        0x0000277c:    2204        ."      MOVS     r2,#4
        0x0000277e:    4110        .A      ASRS     r0,r0,r2
        0x00002780:    b282        ..      UXTH     r2,r0
        0x00002782:    834a        J.      STRH     r2,[r1,#0x1a]
        0x00002784:    8a48        H.      LDRH     r0,[r1,#0x12]
        0x00002786:    7acb        .z      LDRB     r3,[r1,#0xb]
        0x00002788:    18c0        ..      ADDS     r0,r0,r3
        0x0000278a:    1e40        @.      SUBS     r0,r0,#1
        0x0000278c:    2b08        .+      CMP      r3,#8
        0x0000278e:    d024        $.      BEQ      0x27da ; initFrame + 250
        0x00002790:    2304        .#      MOVS     r3,#4
        0x00002792:    4118        .A      ASRS     r0,r0,r3
        0x00002794:    8388        ..      STRH     r0,[r1,#0x1c]
        0x00002796:    4342        BC      MULS     r2,r0,r2
        0x00002798:    83ca        ..      STRH     r2,[r1,#0x1e]
        0x0000279a:    2000        .       MOVS     r0,#0
        0x0000279c:    bdf0        ..      POP      {r4-r7,pc}
        0x0000279e:    2d01        .-      CMP      r5,#1
        0x000027a0:    d003        ..      BEQ      0x27aa ; initFrame + 202
        0x000027a2:    2d02        .-      CMP      r5,#2
        0x000027a4:    d00b        ..      BEQ      0x27be ; initFrame + 222
        0x000027a6:    201b        .       MOVS     r0,#0x1b
        0x000027a8:    bdf0        ..      POP      {r4-r7,pc}
        0x000027aa:    720c        .r      STRB     r4,[r1,#8]
        0x000027ac:    724f        Or      STRB     r7,[r1,#9]
        0x000027ae:    7002        .p      STRB     r2,[r0,#0]
        0x000027b0:    7042        Bp      STRB     r2,[r0,#1]
        0x000027b2:    7083        .p      STRB     r3,[r0,#2]
        0x000027b4:    70c4        .p      STRB     r4,[r0,#3]
        0x000027b6:    2010        .       MOVS     r0,#0x10
        0x000027b8:    7288        .r      STRB     r0,[r1,#0xa]
        0x000027ba:    2008        .       MOVS     r0,#8
        0x000027bc:    e7d7        ..      B        0x276e ; initFrame + 142
        0x000027be:    720f        .r      STRB     r7,[r1,#8]
        0x000027c0:    2506        .%      MOVS     r5,#6
        0x000027c2:    724d        Mr      STRB     r5,[r1,#9]
        0x000027c4:    7002        .p      STRB     r2,[r0,#0]
        0x000027c6:    7042        Bp      STRB     r2,[r0,#1]
        0x000027c8:    7082        .p      STRB     r2,[r0,#2]
        0x000027ca:    70c2        .p      STRB     r2,[r0,#3]
        0x000027cc:    7103        .q      STRB     r3,[r0,#4]
        0x000027ce:    7144        Dq      STRB     r4,[r0,#5]
        0x000027d0:    2010        .       MOVS     r0,#0x10
        0x000027d2:    7288        .r      STRB     r0,[r1,#0xa]
        0x000027d4:    e7cb        ..      B        0x276e ; initFrame + 142
        0x000027d6:    2203        ."      MOVS     r2,#3
        0x000027d8:    e7d1        ..      B        0x277e ; initFrame + 158
        0x000027da:    2303        .#      MOVS     r3,#3
        0x000027dc:    e7d9        ..      B        0x2792 ; initFrame + 178
    $d
        0x000027de:    0000        ..      DCW    0
        0x000027e0:    1ffff058    X...    DCD    536866904
    $t
    i.initScan
    initScan
        0x000027e4:    b5fe        ..      PUSH     {r1-r7,lr}
        0x000027e6:    2500        .%      MOVS     r5,#0
        0x000027e8:    4668        hF      MOV      r0,sp
        0x000027ea:    7105        .q      STRB     r5,[r0,#4]
        0x000027ec:    f000fcd4    ....    BL       processMarkers ; 0x3198
        0x000027f0:    2800        .(      CMP      r0,#0
        0x000027f2:    d109        ..      BNE      0x2808 ; initScan + 36
        0x000027f4:    4668        hF      MOV      r0,sp
        0x000027f6:    7800        .x      LDRB     r0,[r0,#0]
        0x000027f8:    28d9        .(      CMP      r0,#0xd9
        0x000027fa:    d001        ..      BEQ      0x2800 ; initScan + 28
        0x000027fc:    28da        .(      CMP      r0,#0xda
        0x000027fe:    d001        ..      BEQ      0x2804 ; initScan + 32
        0x00002800:    2012        .       MOVS     r0,#0x12
        0x00002802:    bdfe        ..      POP      {r1-r7,pc}
        0x00002804:    f000fed4    ....    BL       readSOSMarker ; 0x35b0
        0x00002808:    2800        .(      CMP      r0,#0
        0x0000280a:    d1fa        ..      BNE      0x2802 ; initScan + 30
        0x0000280c:    4c28        (L      LDR      r4,[pc,#160] ; [0x28b0] = 0x1ffff058
        0x0000280e:    2100        .!      MOVS     r1,#0
        0x00002810:    7826        &x      LDRB     r6,[r4,#0]
        0x00002812:    79e3        .y      LDRB     r3,[r4,#7]
        0x00002814:    e017        ..      B        0x2846 ; initScan + 98
        0x00002816:    4826        &H      LDR      r0,[pc,#152] ; [0x28b0] = 0x1ffff058
        0x00002818:    4a25        %J      LDR      r2,[pc,#148] ; [0x28b0] = 0x1ffff058
        0x0000281a:    302c        ,0      ADDS     r0,r0,#0x2c
        0x0000281c:    5c40        @\      LDRB     r0,[r0,r1]
        0x0000281e:    322f        /2      ADDS     r2,r2,#0x2f
        0x00002820:    5c17        .\      LDRB     r7,[r2,r0]
        0x00002822:    1cd2        ..      ADDS     r2,r2,#3
        0x00002824:    5c10        .\      LDRB     r0,[r2,r0]
        0x00002826:    1c80        ..      ADDS     r0,r0,#2
        0x00002828:    b2c0        ..      UXTB     r0,r0
        0x0000282a:    4684        .F      MOV      r12,r0
        0x0000282c:    2001        .       MOVS     r0,#1
        0x0000282e:    4602        .F      MOV      r2,r0
        0x00002830:    40ba        .@      LSLS     r2,r2,r7
        0x00002832:    4232        2B      TST      r2,r6
        0x00002834:    d003        ..      BEQ      0x283e ; initScan + 90
        0x00002836:    4662        bF      MOV      r2,r12
        0x00002838:    4090        .@      LSLS     r0,r0,r2
        0x0000283a:    4230        0B      TST      r0,r6
        0x0000283c:    d101        ..      BNE      0x2842 ; initScan + 94
        0x0000283e:    2018        .       MOVS     r0,#0x18
        0x00002840:    bdfe        ..      POP      {r1-r7,pc}
        0x00002842:    1c49        I.      ADDS     r1,r1,#1
        0x00002844:    b2c9        ..      UXTB     r1,r1
        0x00002846:    4299        .B      CMP      r1,r3
        0x00002848:    d3e5        ..      BCC      0x2816 ; initScan + 50
        0x0000284a:    4a19        .J      LDR      r2,[pc,#100] ; [0x28b0] = 0x1ffff058
        0x0000284c:    2000        .       MOVS     r0,#0
        0x0000284e:    322c        ,2      ADDS     r2,r2,#0x2c
        0x00002850:    1ed7        ..      SUBS     r7,r2,#3
        0x00002852:    7861        ax      LDRB     r1,[r4,#1]
        0x00002854:    e00c        ..      B        0x2870 ; initScan + 140
        0x00002856:    5c16        .\      LDRB     r6,[r2,r0]
        0x00002858:    5dbe        .]      LDRB     r6,[r7,r6]
        0x0000285a:    2e00        ..      CMP      r6,#0
        0x0000285c:    d001        ..      BEQ      0x2862 ; initScan + 126
        0x0000285e:    2602        .&      MOVS     r6,#2
        0x00002860:    e000        ..      B        0x2864 ; initScan + 128
        0x00002862:    2601        .&      MOVS     r6,#1
        0x00002864:    4231        1B      TST      r1,r6
        0x00002866:    d101        ..      BNE      0x286c ; initScan + 136
        0x00002868:    2017        .       MOVS     r0,#0x17
        0x0000286a:    bdfe        ..      POP      {r1-r7,pc}
        0x0000286c:    1c40        @.      ADDS     r0,r0,#1
        0x0000286e:    b2c0        ..      UXTB     r0,r0
        0x00002870:    4298        .B      CMP      r0,r3
        0x00002872:    d3f0        ..      BCC      0x2856 ; initScan + 114
        0x00002874:    480e        .H      LDR      r0,[pc,#56] ; [0x28b0] = 0x1ffff058
        0x00002876:    3044        D0      ADDS     r0,r0,#0x44
        0x00002878:    8005        ..      STRH     r5,[r0,#0]
        0x0000287a:    8045        E.      STRH     r5,[r0,#2]
        0x0000287c:    8085        ..      STRH     r5,[r0,#4]
        0x0000287e:    8aa0        ..      LDRH     r0,[r4,#0x14]
        0x00002880:    2800        .(      CMP      r0,#0
        0x00002882:    d001        ..      BEQ      0x2888 ; initScan + 164
        0x00002884:    8320         .      STRH     r0,[r4,#0x18]
        0x00002886:    82e5        ..      STRH     r5,[r4,#0x16]
        0x00002888:    7960        `y      LDRB     r0,[r4,#5]
        0x0000288a:    2800        .(      CMP      r0,#0
        0x0000288c:    d002        ..      BEQ      0x2894 ; initScan + 176
        0x0000288e:    7ba0        .{      LDRB     r0,[r4,#0xe]
        0x00002890:    f000feec    ....    BL       stuffChar ; 0x366c
        0x00002894:    89e0        ..      LDRH     r0,[r4,#0xe]
        0x00002896:    0a00        ..      LSRS     r0,r0,#8
        0x00002898:    f000fee8    ....    BL       stuffChar ; 0x366c
        0x0000289c:    2008        .       MOVS     r0,#8
        0x0000289e:    7160        `q      STRB     r0,[r4,#5]
        0x000028a0:    f7fffc35    ..5.    BL       getBits2 ; 0x210e
        0x000028a4:    2008        .       MOVS     r0,#8
        0x000028a6:    f7fffc32    ..2.    BL       getBits2 ; 0x210e
        0x000028aa:    2000        .       MOVS     r0,#0
        0x000028ac:    bdfe        ..      POP      {r1-r7,pc}
    $d
        0x000028ae:    0000        ..      DCW    0
        0x000028b0:    1ffff058    X...    DCD    536866904
    $t
    i.ld_dword
    ld_dword
        0x000028b4:    78c1        .x      LDRB     r1,[r0,#3]
        0x000028b6:    7882        .x      LDRB     r2,[r0,#2]
        0x000028b8:    0209        ..      LSLS     r1,r1,#8
        0x000028ba:    4311        .C      ORRS     r1,r1,r2
        0x000028bc:    7842        Bx      LDRB     r2,[r0,#1]
        0x000028be:    0209        ..      LSLS     r1,r1,#8
        0x000028c0:    4311        .C      ORRS     r1,r1,r2
        0x000028c2:    7800        .x      LDRB     r0,[r0,#0]
        0x000028c4:    0209        ..      LSLS     r1,r1,#8
        0x000028c6:    4308        .C      ORRS     r0,r0,r1
        0x000028c8:    4770        pG      BX       lr
    i.ld_word
    ld_word
        0x000028ca:    4601        .F      MOV      r1,r0
        0x000028cc:    7840        @x      LDRB     r0,[r0,#1]
        0x000028ce:    7809        .x      LDRB     r1,[r1,#0]
        0x000028d0:    0200        ..      LSLS     r0,r0,#8
        0x000028d2:    4308        .C      ORRS     r0,r0,r1
        0x000028d4:    4770        pG      BX       lr
        0x000028d6:    0000        ..      MOVS     r0,r0
    i.locateSOFMarker
    locateSOFMarker
        0x000028d8:    b5f8        ..      PUSH     {r3-r7,lr}
        0x000028da:    2008        .       MOVS     r0,#8
        0x000028dc:    f7fffc12    ....    BL       getBits1 ; 0x2104
        0x000028e0:    b2c4        ..      UXTB     r4,r0
        0x000028e2:    2008        .       MOVS     r0,#8
        0x000028e4:    f7fffc0e    ....    BL       getBits1 ; 0x2104
        0x000028e8:    b2c0        ..      UXTB     r0,r0
        0x000028ea:    2cff        .,      CMP      r4,#0xff
        0x000028ec:    d101        ..      BNE      0x28f2 ; locateSOFMarker + 26
        0x000028ee:    28d8        .(      CMP      r0,#0xd8
        0x000028f0:    d018        ..      BEQ      0x2924 ; locateSOFMarker + 76
        0x000028f2:    2401        .$      MOVS     r4,#1
        0x000028f4:    0324        $.      LSLS     r4,r4,#12
        0x000028f6:    2513        .%      MOVS     r5,#0x13
        0x000028f8:    1e64        d.      SUBS     r4,r4,#1
        0x000028fa:    0424        $.      LSLS     r4,r4,#16
        0x000028fc:    0c24        $.      LSRS     r4,r4,#16
        0x000028fe:    d00a        ..      BEQ      0x2916 ; locateSOFMarker + 62
        0x00002900:    4606        .F      MOV      r6,r0
        0x00002902:    2008        .       MOVS     r0,#8
        0x00002904:    f7fffbfe    ....    BL       getBits1 ; 0x2104
        0x00002908:    b2c0        ..      UXTB     r0,r0
        0x0000290a:    2eff        ..      CMP      r6,#0xff
        0x0000290c:    d1f4        ..      BNE      0x28f8 ; locateSOFMarker + 32
        0x0000290e:    28d8        .(      CMP      r0,#0xd8
        0x00002910:    d003        ..      BEQ      0x291a ; locateSOFMarker + 66
        0x00002912:    28d9        .(      CMP      r0,#0xd9
        0x00002914:    d1f0        ..      BNE      0x28f8 ; locateSOFMarker + 32
        0x00002916:    4628        (F      MOV      r0,r5
        0x00002918:    bdf8        ..      POP      {r3-r7,pc}
        0x0000291a:    480d        .H      LDR      r0,[pc,#52] ; [0x2950] = 0x1ffff058
        0x0000291c:    89c0        ..      LDRH     r0,[r0,#0xe]
        0x0000291e:    0a00        ..      LSRS     r0,r0,#8
        0x00002920:    28ff        .(      CMP      r0,#0xff
        0x00002922:    d1f8        ..      BNE      0x2916 ; locateSOFMarker + 62
        0x00002924:    4668        hF      MOV      r0,sp
        0x00002926:    f000fc37    ..7.    BL       processMarkers ; 0x3198
        0x0000292a:    2800        .(      CMP      r0,#0
        0x0000292c:    d1f4        ..      BNE      0x2918 ; locateSOFMarker + 64
        0x0000292e:    4668        hF      MOV      r0,sp
        0x00002930:    7800        .x      LDRB     r0,[r0,#0]
        0x00002932:    28c0        .(      CMP      r0,#0xc0
        0x00002934:    d007        ..      BEQ      0x2946 ; locateSOFMarker + 110
        0x00002936:    28c2        .(      CMP      r0,#0xc2
        0x00002938:    d003        ..      BEQ      0x2942 ; locateSOFMarker + 106
        0x0000293a:    28c9        .(      CMP      r0,#0xc9
        0x0000293c:    d006        ..      BEQ      0x294c ; locateSOFMarker + 116
        0x0000293e:    2014        .       MOVS     r0,#0x14
        0x00002940:    bdf8        ..      POP      {r3-r7,pc}
        0x00002942:    2025        %       MOVS     r0,#0x25
        0x00002944:    bdf8        ..      POP      {r3-r7,pc}
        0x00002946:    f000fdd7    ....    BL       readSOFMarker ; 0x34f8
        0x0000294a:    bdf8        ..      POP      {r3-r7,pc}
        0x0000294c:    2011        .       MOVS     r0,#0x11
        0x0000294e:    bdf8        ..      POP      {r3-r7,pc}
    $d
        0x00002950:    1ffff058    X...    DCD    536866904
    $t
    i.main
    main
        0x00002954:    b092        ..      SUB      sp,sp,#0x48
        0x00002956:    f7fdfd5b    ..[.    BL       Init_RGB_LEDs ; 0x410
        0x0000295a:    f7fdfcc5    ....    BL       Init_Debug_Signals ; 0x2e8
        0x0000295e:    f7fdfe63    ..c.    BL       LCD_Init ; 0x628
        0x00002962:    2001        .       MOVS     r0,#1
        0x00002964:    f7fef882    ....    BL       LCD_Text_Init ; 0xa6c
        0x00002968:    f7fdfd40    ..@.    BL       LCD_Erase ; 0x3ec
        0x0000296c:    2100        .!      MOVS     r1,#0
        0x0000296e:    a225        %.      ADR      r2,{pc}+0x96 ; 0x2a04
        0x00002970:    4608        .F      MOV      r0,r1
        0x00002972:    f7fef971    ..q.    BL       LCD_Text_PrintStr_RC ; 0xc58
        0x00002976:    a227        '.      ADR      r2,{pc}+0x9e ; 0x2a14
        0x00002978:    2100        .!      MOVS     r1,#0
        0x0000297a:    2001        .       MOVS     r0,#1
        0x0000297c:    f7fef96c    ..l.    BL       LCD_Text_PrintStr_RC ; 0xc58
        0x00002980:    4668        hF      MOV      r0,sp
        0x00002982:    f000f8a5    ....    BL       pf_mount ; 0x2ad0
        0x00002986:    2800        .(      CMP      r0,#0
        0x00002988:    d00a        ..      BEQ      0x29a0 ; main + 76
        0x0000298a:    a228        (.      ADR      r2,{pc}+0xa2 ; 0x2a2c
        0x0000298c:    2100        .!      MOVS     r1,#0
        0x0000298e:    2002        .       MOVS     r0,#2
        0x00002990:    f7fef962    ..b.    BL       LCD_Text_PrintStr_RC ; 0xc58
        0x00002994:    2200        ."      MOVS     r2,#0
        0x00002996:    4611        .F      MOV      r1,r2
        0x00002998:    2001        .       MOVS     r0,#1
        0x0000299a:    f7fdfbd7    ....    BL       Control_RGB_LEDs ; 0x14c
        0x0000299e:    e7fe        ..      B        0x299e ; main + 74
        0x000029a0:    a226        &.      ADR      r2,{pc}+0x9c ; 0x2a3c
        0x000029a2:    2100        .!      MOVS     r1,#0
        0x000029a4:    2002        .       MOVS     r0,#2
        0x000029a6:    f7fef957    ..W.    BL       LCD_Text_PrintStr_RC ; 0xc58
        0x000029aa:    2501        .%      MOVS     r5,#1
        0x000029ac:    f7fdfcde    ....    BL       Init_Profiling ; 0x36c
        0x000029b0:    f7fdfd1c    ....    BL       LCD_Erase ; 0x3ec
        0x000029b4:    2201        ."      MOVS     r2,#1
        0x000029b6:    2100        .!      MOVS     r1,#0
        0x000029b8:    4610        .F      MOV      r0,r2
        0x000029ba:    f7fdfbc7    ....    BL       Control_RGB_LEDs ; 0x14c
        0x000029be:    f7fdfc7d    ..}.    BL       Enable_Profiling ; 0x2bc
        0x000029c2:    f7fdfe65    ..e.    BL       LCD_JPEG ; 0x690
        0x000029c6:    4604        .F      MOV      r4,r0
        0x000029c8:    f7fdfbe8    ....    BL       Disable_Profiling ; 0x19c
        0x000029cc:    1b29        ).      SUBS     r1,r5,r4
        0x000029ce:    2200        ."      MOVS     r2,#0
        0x000029d0:    4620         F      MOV      r0,r4
        0x000029d2:    f7fdfbbb    ....    BL       Control_RGB_LEDs ; 0x14c
        0x000029d6:    2c00        .,      CMP      r4,#0
        0x000029d8:    d00a        ..      BEQ      0x29f0 ; main + 156
        0x000029da:    4622        "F      MOV      r2,r4
        0x000029dc:    a11c        ..      ADR      r1,{pc}+0x74 ; 0x2a50
        0x000029de:    a80b        ..      ADD      r0,sp,#0x2c
        0x000029e0:    f7fefdac    ....    BL       __0sprintf$6 ; 0x153c
        0x000029e4:    2100        .!      MOVS     r1,#0
        0x000029e6:    aa0b        ..      ADD      r2,sp,#0x2c
        0x000029e8:    4608        .F      MOV      r0,r1
        0x000029ea:    f7fef935    ..5.    BL       LCD_Text_PrintStr_RC ; 0xc58
        0x000029ee:    e7fe        ..      B        0x29ee ; main + 154
        0x000029f0:    f7fefc88    ....    BL       Sort_Profile_Regions ; 0x1304
        0x000029f4:    a80f        ..      ADD      r0,sp,#0x3c
        0x000029f6:    f7fdff47    ..G.    BL       LCD_TS_Blocking_Read ; 0x888
        0x000029fa:    f7fdfcf7    ....    BL       LCD_Erase ; 0x3ec
        0x000029fe:    f7fdfbd3    ....    BL       Display_Profile ; 0x1a8
        0x00002a02:    e7d3        ..      B        0x29ac ; main + 88
    $d
        0x00002a04:    74696e49    Init    DCD    1953066569
        0x00002a08:    696c6169    iali    DCD    1768710505
        0x00002a0c:    676e697a    zing    DCD    1735289210
        0x00002a10:    00000000    ....    DCD    0
        0x00002a14:    6b6f6f4c    Look    DCD    1802465100
        0x00002a18:    20676e69    ing     DCD    543649385
        0x00002a1c:    20726f66    for     DCD    544370534
        0x00002a20:    20445375    uSD     DCD    541348725
        0x00002a24:    64726163    card    DCD    1685217635
        0x00002a28:    00000000    ....    DCD    0
        0x00002a2c:    6d5f6670    pf_m    DCD    1834968688
        0x00002a30:    746e756f    ount    DCD    1953396079
        0x00002a34:    69616620     fai    DCD    1767990816
        0x00002a38:    0064656c    led.    DCD    6579564
        0x00002a3c:    6e756f4d    Moun    DCD    1853189965
        0x00002a40:    20646574    ted     DCD    543450484
        0x00002a44:    20445375    uSD     DCD    541348725
        0x00002a48:    64726163    card    DCD    1685217635
        0x00002a4c:    00000000    ....    DCD    0
        0x00002a50:    5f44434c    LCD_    DCD    1598309196
        0x00002a54:    4745504a    JPEG    DCD    1195724874
        0x00002a58:    69616620     fai    DCD    1767990816
        0x00002a5c:    6572756c    lure    DCD    1701999980
        0x00002a60:    00642520     %d.    DCD    6563104
    $t
    i.malloc
    malloc
        0x00002a64:    b5f0        ..      PUSH     {r4-r7,lr}
        0x00002a66:    300b        .0      ADDS     r0,r0,#0xb
        0x00002a68:    08c1        ..      LSRS     r1,r0,#3
        0x00002a6a:    00c9        ..      LSLS     r1,r1,#3
        0x00002a6c:    4f14        .O      LDR      r7,[pc,#80] ; [0x2ac0] = 0x1ffff0c0
        0x00002a6e:    2600        .&      MOVS     r6,#0
        0x00002a70:    4a14        .J      LDR      r2,[pc,#80] ; [0x2ac4] = 0x1ffff0bc
        0x00002a72:    e00f        ..      B        0x2a94 ; malloc + 48
        0x00002a74:    6803        .h      LDR      r3,[r0,#0]
        0x00002a76:    428b        .B      CMP      r3,r1
        0x00002a78:    d30b        ..      BCC      0x2a92 ; malloc + 46
        0x00002a7a:    428b        .B      CMP      r3,r1
        0x00002a7c:    d905        ..      BLS      0x2a8a ; malloc + 38
        0x00002a7e:    1a5c        \.      SUBS     r4,r3,r1
        0x00002a80:    1843        C.      ADDS     r3,r0,r1
        0x00002a82:    6845        Eh      LDR      r5,[r0,#4]
        0x00002a84:    c330        0.      STM      r3!,{r4,r5}
        0x00002a86:    3b08        .;      SUBS     r3,r3,#8
        0x00002a88:    e000        ..      B        0x2a8c ; malloc + 40
        0x00002a8a:    6843        Ch      LDR      r3,[r0,#4]
        0x00002a8c:    6013        .`      STR      r3,[r2,#0]
        0x00002a8e:    c002        ..      STM      r0!,{r1}
        0x00002a90:    e004        ..      B        0x2a9c ; malloc + 56
        0x00002a92:    1d02        ..      ADDS     r2,r0,#4
        0x00002a94:    6810        .h      LDR      r0,[r2,#0]
        0x00002a96:    2800        .(      CMP      r0,#0
        0x00002a98:    d1ec        ..      BNE      0x2a74 ; malloc + 16
        0x00002a9a:    4630        0F      MOV      r0,r6
        0x00002a9c:    2800        .(      CMP      r0,#0
        0x00002a9e:    d103        ..      BNE      0x2aa8 ; malloc + 68
        0x00002aa0:    6838        8h      LDR      r0,[r7,#0]
        0x00002aa2:    2800        .(      CMP      r0,#0
        0x00002aa4:    d001        ..      BEQ      0x2aaa ; malloc + 70
        0x00002aa6:    2000        .       MOVS     r0,#0
        0x00002aa8:    bdf0        ..      POP      {r4-r7,pc}
        0x00002aaa:    4a06        .J      LDR      r2,[pc,#24] ; [0x2ac4] = 0x1ffff0bc
        0x00002aac:    4806        .H      LDR      r0,[pc,#24] ; [0x2ac8] = 0x1fffff9c
        0x00002aae:    6010        .`      STR      r0,[r2,#0]
        0x00002ab0:    4a06        .J      LDR      r2,[pc,#24] ; [0x2acc] = 0x20000798
        0x00002ab2:    1a12        ..      SUBS     r2,r2,r0
        0x00002ab4:    08d2        ..      LSRS     r2,r2,#3
        0x00002ab6:    00d2        ..      LSLS     r2,r2,#3
        0x00002ab8:    c044        D.      STM      r0!,{r2,r6}
        0x00002aba:    2001        .       MOVS     r0,#1
        0x00002abc:    6038        8`      STR      r0,[r7,#0]
        0x00002abe:    e7d7        ..      B        0x2a70 ; malloc + 12
    $d
        0x00002ac0:    1ffff0c0    ....    DCD    536867008
        0x00002ac4:    1ffff0bc    ....    DCD    536867004
        0x00002ac8:    1fffff9c    ....    DCD    536870812
        0x00002acc:    20000798    ...     DCD    536872856
    $t
    i.pf_mount
    pf_mount
        0x00002ad0:    b5f0        ..      PUSH     {r4-r7,lr}
        0x00002ad2:    4604        .F      MOV      r4,r0
        0x00002ad4:    493e        >I      LDR      r1,[pc,#248] ; [0x2bd0] = 0x1ffff0b4
        0x00002ad6:    b089        ..      SUB      sp,sp,#0x24
        0x00002ad8:    2000        .       MOVS     r0,#0
        0x00002ada:    6008        .`      STR      r0,[r1,#0]
        0x00002adc:    f7fffa42    ..B.    BL       disk_initialize ; 0x1f64
        0x00002ae0:    07c0        ..      LSLS     r0,r0,#31
        0x00002ae2:    d002        ..      BEQ      0x2aea ; pf_mount + 26
        0x00002ae4:    2002        .       MOVS     r0,#2
        0x00002ae6:    b009        ..      ADD      sp,sp,#0x24
        0x00002ae8:    bdf0        ..      POP      {r4-r7,pc}
        0x00002aea:    2600        .&      MOVS     r6,#0
        0x00002aec:    4631        1F      MOV      r1,r6
        0x00002aee:    4668        hF      MOV      r0,sp
        0x00002af0:    f7feffdc    ....    BL       check_fs ; 0x1aac
        0x00002af4:    2801        .(      CMP      r0,#1
        0x00002af6:    d114        ..      BNE      0x2b22 ; pf_mount + 82
        0x00002af8:    22ff        ."      MOVS     r2,#0xff
        0x00002afa:    2310        .#      MOVS     r3,#0x10
        0x00002afc:    32bf        .2      ADDS     r2,r2,#0xbf
        0x00002afe:    4631        1F      MOV      r1,r6
        0x00002b00:    4668        hF      MOV      r0,sp
        0x00002b02:    f7fffa39    ..9.    BL       disk_readp ; 0x1f78
        0x00002b06:    2800        .(      CMP      r0,#0
        0x00002b08:    d117        ..      BNE      0x2b3a ; pf_mount + 106
        0x00002b0a:    4668        hF      MOV      r0,sp
        0x00002b0c:    7900        .y      LDRB     r0,[r0,#4]
        0x00002b0e:    2800        .(      CMP      r0,#0
        0x00002b10:    d05c        \.      BEQ      0x2bcc ; pf_mount + 252
        0x00002b12:    a802        ..      ADD      r0,sp,#8
        0x00002b14:    f7fffece    ....    BL       ld_dword ; 0x28b4
        0x00002b18:    4606        .F      MOV      r6,r0
        0x00002b1a:    4601        .F      MOV      r1,r0
        0x00002b1c:    4668        hF      MOV      r0,sp
        0x00002b1e:    f7feffc5    ....    BL       check_fs ; 0x1aac
        0x00002b22:    2803        .(      CMP      r0,#3
        0x00002b24:    d009        ..      BEQ      0x2b3a ; pf_mount + 106
        0x00002b26:    2800        .(      CMP      r0,#0
        0x00002b28:    d150        P.      BNE      0x2bcc ; pf_mount + 252
        0x00002b2a:    2324        $#      MOVS     r3,#0x24
        0x00002b2c:    220d        ."      MOVS     r2,#0xd
        0x00002b2e:    4631        1F      MOV      r1,r6
        0x00002b30:    4668        hF      MOV      r0,sp
        0x00002b32:    f7fffa21    ..!.    BL       disk_readp ; 0x1f78
        0x00002b36:    2800        .(      CMP      r0,#0
        0x00002b38:    d001        ..      BEQ      0x2b3e ; pf_mount + 110
        0x00002b3a:    2001        .       MOVS     r0,#1
        0x00002b3c:    e7d3        ..      B        0x2ae6 ; pf_mount + 22
        0x00002b3e:    a802        ..      ADD      r0,sp,#8
        0x00002b40:    3001        .0      ADDS     r0,#1
        0x00002b42:    f7fffec2    ....    BL       ld_word ; 0x28ca
        0x00002b46:    2800        .(      CMP      r0,#0
        0x00002b48:    d103        ..      BNE      0x2b52 ; pf_mount + 130
        0x00002b4a:    a805        ..      ADD      r0,sp,#0x14
        0x00002b4c:    3003        .0      ADDS     r0,#3
        0x00002b4e:    f7fffeb1    ....    BL       ld_dword ; 0x28b4
        0x00002b52:    4669        iF      MOV      r1,sp
        0x00002b54:    78cf        .x      LDRB     r7,[r1,#3]
        0x00002b56:    460d        .F      MOV      r5,r1
        0x00002b58:    4347        GC      MULS     r7,r0,r7
        0x00002b5a:    1c48        H.      ADDS     r0,r1,#1
        0x00002b5c:    f7fffeb5    ....    BL       ld_word ; 0x28ca
        0x00002b60:    1980        ..      ADDS     r0,r0,r6
        0x00002b62:    4669        iF      MOV      r1,sp
        0x00002b64:    60e0        .`      STR      r0,[r4,#0xc]
        0x00002b66:    7808        .x      LDRB     r0,[r1,#0]
        0x00002b68:    70a0        .p      STRB     r0,[r4,#2]
        0x00002b6a:    1d28        (.      ADDS     r0,r5,#4
        0x00002b6c:    f7fffead    ....    BL       ld_word ; 0x28ca
        0x00002b70:    80a0        ..      STRH     r0,[r4,#4]
        0x00002b72:    1da8        ..      ADDS     r0,r5,#6
        0x00002b74:    f7fffea9    ....    BL       ld_word ; 0x28ca
        0x00002b78:    0006        ..      MOVS     r6,r0
        0x00002b7a:    d104        ..      BNE      0x2b86 ; pf_mount + 182
        0x00002b7c:    a804        ..      ADD      r0,sp,#0x10
        0x00002b7e:    3003        .0      ADDS     r0,#3
        0x00002b80:    f7fffe98    ....    BL       ld_dword ; 0x28b4
        0x00002b84:    4606        .F      MOV      r6,r0
        0x00002b86:    1c68        h.      ADDS     r0,r5,#1
        0x00002b88:    f7fffe9f    ....    BL       ld_word ; 0x28ca
        0x00002b8c:    88a1        ..      LDRH     r1,[r4,#4]
        0x00002b8e:    1a30        0.      SUBS     r0,r6,r0
        0x00002b90:    1bc0        ..      SUBS     r0,r0,r7
        0x00002b92:    0909        ..      LSRS     r1,r1,#4
        0x00002b94:    1a40        @.      SUBS     r0,r0,r1
        0x00002b96:    78a1        .x      LDRB     r1,[r4,#2]
        0x00002b98:    f7fdfab0    ....    BL       __aeabi_uidiv ; 0xfc
        0x00002b9c:    1c80        ..      ADDS     r0,r0,#2
        0x00002b9e:    490d        .I      LDR      r1,[pc,#52] ; [0x2bd4] = 0xfff7
        0x00002ba0:    60a0        .`      STR      r0,[r4,#8]
        0x00002ba2:    4288        .B      CMP      r0,r1
        0x00002ba4:    d312        ..      BCC      0x2bcc ; pf_mount + 252
        0x00002ba6:    2003        .       MOVS     r0,#3
        0x00002ba8:    7020         p      STRB     r0,[r4,#0]
        0x00002baa:    a807        ..      ADD      r0,sp,#0x1c
        0x00002bac:    3003        .0      ADDS     r0,#3
        0x00002bae:    f7fffe81    ....    BL       ld_dword ; 0x28b4
        0x00002bb2:    6120         a      STR      r0,[r4,#0x10]
        0x00002bb4:    88a1        ..      LDRH     r1,[r4,#4]
        0x00002bb6:    68e0        .h      LDR      r0,[r4,#0xc]
        0x00002bb8:    0909        ..      LSRS     r1,r1,#4
        0x00002bba:    19c9        ..      ADDS     r1,r1,r7
        0x00002bbc:    1840        @.      ADDS     r0,r0,r1
        0x00002bbe:    6160        `a      STR      r0,[r4,#0x14]
        0x00002bc0:    2000        .       MOVS     r0,#0
        0x00002bc2:    7060        `p      STRB     r0,[r4,#1]
        0x00002bc4:    4802        .H      LDR      r0,[pc,#8] ; [0x2bd0] = 0x1ffff0b4
        0x00002bc6:    6004        .`      STR      r4,[r0,#0]
        0x00002bc8:    2000        .       MOVS     r0,#0
        0x00002bca:    e78c        ..      B        0x2ae6 ; pf_mount + 22
        0x00002bcc:    2006        .       MOVS     r0,#6
        0x00002bce:    e78a        ..      B        0x2ae6 ; pf_mount + 22
    $d
        0x00002bd0:    1ffff0b4    ....    DCD    536866996
        0x00002bd4:    0000fff7    ....    DCD    65527
    $t
    i.pf_open
    pf_open
        0x00002bd8:    b530        0.      PUSH     {r4,r5,lr}
        0x00002bda:    4915        .I      LDR      r1,[pc,#84] ; [0x2c30] = 0x1ffff0b4
        0x00002bdc:    b091        ..      SUB      sp,sp,#0x44
        0x00002bde:    680c        .h      LDR      r4,[r1,#0]
        0x00002be0:    2c00        .,      CMP      r4,#0
        0x00002be2:    d015        ..      BEQ      0x2c10 ; pf_open + 56
        0x00002be4:    2500        .%      MOVS     r5,#0
        0x00002be6:    7065        ep      STRB     r5,[r4,#1]
        0x00002be8:    a90d        ..      ADD      r1,sp,#0x34
        0x00002bea:    4602        .F      MOV      r2,r0
        0x00002bec:    9109        ..      STR      r1,[sp,#0x24]
        0x00002bee:    4669        iF      MOV      r1,sp
        0x00002bf0:    a808        ..      ADD      r0,sp,#0x20
        0x00002bf2:    f7fff9cf    ....    BL       follow_path ; 0x1f94
        0x00002bf6:    2800        .(      CMP      r0,#0
        0x00002bf8:    d108        ..      BNE      0x2c0c ; pf_open + 52
        0x00002bfa:    4668        hF      MOV      r0,sp
        0x00002bfc:    7800        .x      LDRB     r0,[r0,#0]
        0x00002bfe:    2800        .(      CMP      r0,#0
        0x00002c00:    d003        ..      BEQ      0x2c0a ; pf_open + 50
        0x00002c02:    4668        hF      MOV      r0,sp
        0x00002c04:    7ac0        .z      LDRB     r0,[r0,#0xb]
        0x00002c06:    06c0        ..      LSLS     r0,r0,#27
        0x00002c08:    d504        ..      BPL      0x2c14 ; pf_open + 60
        0x00002c0a:    2003        .       MOVS     r0,#3
        0x00002c0c:    b011        ..      ADD      sp,sp,#0x44
        0x00002c0e:    bd30        0.      POP      {r4,r5,pc}
        0x00002c10:    2005        .       MOVS     r0,#5
        0x00002c12:    e7fb        ..      B        0x2c0c ; pf_open + 52
        0x00002c14:    4668        hF      MOV      r0,sp
        0x00002c16:    f7fffb37    ..7.    BL       get_clust ; 0x2288
        0x00002c1a:    6220         b      STR      r0,[r4,#0x20]
        0x00002c1c:    a807        ..      ADD      r0,sp,#0x1c
        0x00002c1e:    f7fffe49    ..I.    BL       ld_dword ; 0x28b4
        0x00002c22:    61a5        .a      STR      r5,[r4,#0x18]
        0x00002c24:    61e0        .a      STR      r0,[r4,#0x1c]
        0x00002c26:    2001        .       MOVS     r0,#1
        0x00002c28:    7060        `p      STRB     r0,[r4,#1]
        0x00002c2a:    2000        .       MOVS     r0,#0
        0x00002c2c:    e7ee        ..      B        0x2c0c ; pf_open + 52
    $d
        0x00002c2e:    0000        ..      DCW    0
        0x00002c30:    1ffff0b4    ....    DCD    536866996
    $t
    i.pf_opendir
    pf_opendir
        0x00002c34:    b510        ..      PUSH     {r4,lr}
        0x00002c36:    4604        .F      MOV      r4,r0
        0x00002c38:    4811        .H      LDR      r0,[pc,#68] ; [0x2c80] = 0x1ffff0b4
        0x00002c3a:    b08c        ..      SUB      sp,sp,#0x30
        0x00002c3c:    6800        .h      LDR      r0,[r0,#0]
        0x00002c3e:    2800        .(      CMP      r0,#0
        0x00002c40:    d019        ..      BEQ      0x2c76 ; pf_opendir + 66
        0x00002c42:    a808        ..      ADD      r0,sp,#0x20
        0x00002c44:    460a        .F      MOV      r2,r1
        0x00002c46:    6060        ``      STR      r0,[r4,#4]
        0x00002c48:    4669        iF      MOV      r1,sp
        0x00002c4a:    4620         F      MOV      r0,r4
        0x00002c4c:    f7fff9a2    ....    BL       follow_path ; 0x1f94
        0x00002c50:    2800        .(      CMP      r0,#0
        0x00002c52:    d10e        ..      BNE      0x2c72 ; pf_opendir + 62
        0x00002c54:    4668        hF      MOV      r0,sp
        0x00002c56:    7800        .x      LDRB     r0,[r0,#0]
        0x00002c58:    2800        .(      CMP      r0,#0
        0x00002c5a:    d007        ..      BEQ      0x2c6c ; pf_opendir + 56
        0x00002c5c:    4668        hF      MOV      r0,sp
        0x00002c5e:    7ac0        .z      LDRB     r0,[r0,#0xb]
        0x00002c60:    06c0        ..      LSLS     r0,r0,#27
        0x00002c62:    d50a        ..      BPL      0x2c7a ; pf_opendir + 70
        0x00002c64:    4668        hF      MOV      r0,sp
        0x00002c66:    f7fffb0f    ....    BL       get_clust ; 0x2288
        0x00002c6a:    60a0        .`      STR      r0,[r4,#8]
        0x00002c6c:    4620         F      MOV      r0,r4
        0x00002c6e:    f7fff95f    .._.    BL       dir_rewind ; 0x1f30
        0x00002c72:    b00c        ..      ADD      sp,sp,#0x30
        0x00002c74:    bd10        ..      POP      {r4,pc}
        0x00002c76:    2005        .       MOVS     r0,#5
        0x00002c78:    e7fb        ..      B        0x2c72 ; pf_opendir + 62
        0x00002c7a:    2003        .       MOVS     r0,#3
        0x00002c7c:    e7f9        ..      B        0x2c72 ; pf_opendir + 62
    $d
        0x00002c7e:    0000        ..      DCW    0
        0x00002c80:    1ffff0b4    ....    DCD    536866996
    $t
    i.pf_read
    pf_read
        0x00002c84:    b5f7        ..      PUSH     {r0-r2,r4-r7,lr}
        0x00002c86:    b082        ..      SUB      sp,sp,#8
        0x00002c88:    9000        ..      STR      r0,[sp,#0]
        0x00002c8a:    4830        0H      LDR      r0,[pc,#192] ; [0x2d4c] = 0x1ffff0b4
        0x00002c8c:    460d        .F      MOV      r5,r1
        0x00002c8e:    6804        .h      LDR      r4,[r0,#0]
        0x00002c90:    21ff        .!      MOVS     r1,#0xff
        0x00002c92:    482f        /H      LDR      r0,[pc,#188] ; [0x2d50] = 0x400ff040
        0x00002c94:    3101        .1      ADDS     r1,#1
        0x00002c96:    6041        A`      STR      r1,[r0,#4]
        0x00002c98:    2700        .'      MOVS     r7,#0
        0x00002c9a:    9804        ..      LDR      r0,[sp,#0x10]
        0x00002c9c:    2c00        .,      CMP      r4,#0
        0x00002c9e:    8007        ..      STRH     r7,[r0,#0]
        0x00002ca0:    d009        ..      BEQ      0x2cb6 ; pf_read + 50
        0x00002ca2:    7860        `x      LDRB     r0,[r4,#1]
        0x00002ca4:    07c0        ..      LSLS     r0,r0,#31
        0x00002ca6:    d009        ..      BEQ      0x2cbc ; pf_read + 56
        0x00002ca8:    69a1        .i      LDR      r1,[r4,#0x18]
        0x00002caa:    69e0        .i      LDR      r0,[r4,#0x1c]
        0x00002cac:    1a40        @.      SUBS     r0,r0,r1
        0x00002cae:    4285        .B      CMP      r5,r0
        0x00002cb0:    d944        D.      BLS      0x2d3c ; pf_read + 184
        0x00002cb2:    b285        ..      UXTH     r5,r0
        0x00002cb4:    e042        B.      B        0x2d3c ; pf_read + 184
        0x00002cb6:    2005        .       MOVS     r0,#5
        0x00002cb8:    b005        ..      ADD      sp,sp,#0x14
        0x00002cba:    bdf0        ..      POP      {r4-r7,pc}
        0x00002cbc:    2004        .       MOVS     r0,#4
        0x00002cbe:    e7fb        ..      B        0x2cb8 ; pf_read + 52
        0x00002cc0:    69a0        .i      LDR      r0,[r4,#0x18]
        0x00002cc2:    05c1        ..      LSLS     r1,r0,#23
        0x00002cc4:    d116        ..      BNE      0x2cf4 ; pf_read + 112
        0x00002cc6:    78a2        .x      LDRB     r2,[r4,#2]
        0x00002cc8:    0a41        A.      LSRS     r1,r0,#9
        0x00002cca:    1e52        R.      SUBS     r2,r2,#1
        0x00002ccc:    4011        .@      ANDS     r1,r1,r2
        0x00002cce:    060e        ..      LSLS     r6,r1,#24
        0x00002cd0:    0e36        6.      LSRS     r6,r6,#24
        0x00002cd2:    d001        ..      BEQ      0x2cd8 ; pf_read + 84
        0x00002cd4:    6a60        `j      LDR      r0,[r4,#0x24]
        0x00002cd6:    e007        ..      B        0x2ce8 ; pf_read + 100
        0x00002cd8:    2800        .(      CMP      r0,#0
        0x00002cda:    d01e        ..      BEQ      0x2d1a ; pf_read + 150
        0x00002cdc:    6a60        `j      LDR      r0,[r4,#0x24]
        0x00002cde:    f7fffadf    ....    BL       get_fat ; 0x22a0
        0x00002ce2:    2801        .(      CMP      r0,#1
        0x00002ce4:    d916        ..      BLS      0x2d14 ; pf_read + 144
        0x00002ce6:    6260        `b      STR      r0,[r4,#0x24]
        0x00002ce8:    f7feff18    ....    BL       clust2sect ; 0x1b1c
        0x00002cec:    2800        .(      CMP      r0,#0
        0x00002cee:    d011        ..      BEQ      0x2d14 ; pf_read + 144
        0x00002cf0:    1980        ..      ADDS     r0,r0,r6
        0x00002cf2:    62a0        .b      STR      r0,[r4,#0x28]
        0x00002cf4:    8b20         .      LDRH     r0,[r4,#0x18]
        0x00002cf6:    05c2        ..      LSLS     r2,r0,#23
        0x00002cf8:    2001        .       MOVS     r0,#1
        0x00002cfa:    0dd2        ..      LSRS     r2,r2,#23
        0x00002cfc:    0240        @.      LSLS     r0,r0,#9
        0x00002cfe:    1a86        ..      SUBS     r6,r0,r2
        0x00002d00:    42ae        .B      CMP      r6,r5
        0x00002d02:    d900        ..      BLS      0x2d06 ; pf_read + 130
        0x00002d04:    462e        .F      MOV      r6,r5
        0x00002d06:    4633        3F      MOV      r3,r6
        0x00002d08:    6aa1        .j      LDR      r1,[r4,#0x28]
        0x00002d0a:    9800        ..      LDR      r0,[sp,#0]
        0x00002d0c:    f7fff934    ..4.    BL       disk_readp ; 0x1f78
        0x00002d10:    2800        .(      CMP      r0,#0
        0x00002d12:    d004        ..      BEQ      0x2d1e ; pf_read + 154
        0x00002d14:    7067        gp      STRB     r7,[r4,#1]
        0x00002d16:    2001        .       MOVS     r0,#1
        0x00002d18:    e7ce        ..      B        0x2cb8 ; pf_read + 52
        0x00002d1a:    6a20         j      LDR      r0,[r4,#0x20]
        0x00002d1c:    e7e1        ..      B        0x2ce2 ; pf_read + 94
        0x00002d1e:    69a0        .i      LDR      r0,[r4,#0x18]
        0x00002d20:    1980        ..      ADDS     r0,r0,r6
        0x00002d22:    61a0        .a      STR      r0,[r4,#0x18]
        0x00002d24:    1ba8        ..      SUBS     r0,r5,r6
        0x00002d26:    b285        ..      UXTH     r5,r0
        0x00002d28:    9804        ..      LDR      r0,[sp,#0x10]
        0x00002d2a:    8800        ..      LDRH     r0,[r0,#0]
        0x00002d2c:    1981        ..      ADDS     r1,r0,r6
        0x00002d2e:    9804        ..      LDR      r0,[sp,#0x10]
        0x00002d30:    8001        ..      STRH     r1,[r0,#0]
        0x00002d32:    9800        ..      LDR      r0,[sp,#0]
        0x00002d34:    2800        .(      CMP      r0,#0
        0x00002d36:    d001        ..      BEQ      0x2d3c ; pf_read + 184
        0x00002d38:    1980        ..      ADDS     r0,r0,r6
        0x00002d3a:    9000        ..      STR      r0,[sp,#0]
        0x00002d3c:    2d00        .-      CMP      r5,#0
        0x00002d3e:    d1bf        ..      BNE      0x2cc0 ; pf_read + 60
        0x00002d40:    21ff        .!      MOVS     r1,#0xff
        0x00002d42:    4803        .H      LDR      r0,[pc,#12] ; [0x2d50] = 0x400ff040
        0x00002d44:    3101        .1      ADDS     r1,#1
        0x00002d46:    6081        .`      STR      r1,[r0,#8]
        0x00002d48:    2000        .       MOVS     r0,#0
        0x00002d4a:    e7b5        ..      B        0x2cb8 ; pf_read + 52
    $d
        0x00002d4c:    1ffff0b4    ....    DCD    536866996
        0x00002d50:    400ff040    @..@    DCD    1074786368
    $t
    i.pf_readdir
    pf_readdir
        0x00002d54:    b570        p.      PUSH     {r4-r6,lr}
        0x00002d56:    4604        .F      MOV      r4,r0
        0x00002d58:    4824        $H      LDR      r0,[pc,#144] ; [0x2dec] = 0x1ffff0b4
        0x00002d5a:    b08c        ..      SUB      sp,sp,#0x30
        0x00002d5c:    6800        .h      LDR      r0,[r0,#0]
        0x00002d5e:    460d        .F      MOV      r5,r1
        0x00002d60:    2800        .(      CMP      r0,#0
        0x00002d62:    d006        ..      BEQ      0x2d72 ; pf_readdir + 30
        0x00002d64:    a808        ..      ADD      r0,sp,#0x20
        0x00002d66:    6060        ``      STR      r0,[r4,#4]
        0x00002d68:    2d00        .-      CMP      r5,#0
        0x00002d6a:    d005        ..      BEQ      0x2d78 ; pf_readdir + 36
        0x00002d6c:    466e        nF      MOV      r6,sp
        0x00002d6e:    2003        .       MOVS     r0,#3
        0x00002d70:    e025        %.      B        0x2dbe ; pf_readdir + 106
        0x00002d72:    2005        .       MOVS     r0,#5
        0x00002d74:    b00c        ..      ADD      sp,sp,#0x30
        0x00002d76:    bd70        p.      POP      {r4-r6,pc}
        0x00002d78:    4620         F      MOV      r0,r4
        0x00002d7a:    f7fff8d9    ....    BL       dir_rewind ; 0x1f30
        0x00002d7e:    e7f9        ..      B        0x2d74 ; pf_readdir + 32
        0x00002d80:    7820         x      LDRB     r0,[r4,#0]
        0x00002d82:    2320         #      MOVS     r3,#0x20
        0x00002d84:    0700        ..      LSLS     r0,r0,#28
        0x00002d86:    0dc2        ..      LSRS     r2,r0,#23
        0x00002d88:    4630        0F      MOV      r0,r6
        0x00002d8a:    f7fff8f5    ....    BL       disk_readp ; 0x1f78
        0x00002d8e:    2800        .(      CMP      r0,#0
        0x00002d90:    d001        ..      BEQ      0x2d96 ; pf_readdir + 66
        0x00002d92:    2001        .       MOVS     r0,#1
        0x00002d94:    e018        ..      B        0x2dc8 ; pf_readdir + 116
        0x00002d96:    7830        0x      LDRB     r0,[r6,#0]
        0x00002d98:    2800        .(      CMP      r0,#0
        0x00002d9a:    d00e        ..      BEQ      0x2dba ; pf_readdir + 102
        0x00002d9c:    7af1        .z      LDRB     r1,[r6,#0xb]
        0x00002d9e:    0689        ..      LSLS     r1,r1,#26
        0x00002da0:    0e89        ..      LSRS     r1,r1,#26
        0x00002da2:    28e5        .(      CMP      r0,#0xe5
        0x00002da4:    d003        ..      BEQ      0x2dae ; pf_readdir + 90
        0x00002da6:    282e        .(      CMP      r0,#0x2e
        0x00002da8:    d001        ..      BEQ      0x2dae ; pf_readdir + 90
        0x00002daa:    0708        ..      LSLS     r0,r1,#28
        0x00002dac:    d512        ..      BPL      0x2dd4 ; pf_readdir + 128
        0x00002dae:    4620         F      MOV      r0,r4
        0x00002db0:    f7fff88e    ....    BL       dir_next ; 0x1ed0
        0x00002db4:    2800        .(      CMP      r0,#0
        0x00002db6:    d002        ..      BEQ      0x2dbe ; pf_readdir + 106
        0x00002db8:    e006        ..      B        0x2dc8 ; pf_readdir + 116
        0x00002dba:    2003        .       MOVS     r0,#3
        0x00002dbc:    e004        ..      B        0x2dc8 ; pf_readdir + 116
        0x00002dbe:    6921        !i      LDR      r1,[r4,#0x10]
        0x00002dc0:    2900        .)      CMP      r1,#0
        0x00002dc2:    d1dd        ..      BNE      0x2d80 ; pf_readdir + 44
        0x00002dc4:    2800        .(      CMP      r0,#0
        0x00002dc6:    d005        ..      BEQ      0x2dd4 ; pf_readdir + 128
        0x00002dc8:    2200        ."      MOVS     r2,#0
        0x00002dca:    6122        "a      STR      r2,[r4,#0x10]
        0x00002dcc:    2803        .(      CMP      r0,#3
        0x00002dce:    d001        ..      BEQ      0x2dd4 ; pf_readdir + 128
        0x00002dd0:    2800        .(      CMP      r0,#0
        0x00002dd2:    d1cf        ..      BNE      0x2d74 ; pf_readdir + 32
        0x00002dd4:    462a        *F      MOV      r2,r5
        0x00002dd6:    4669        iF      MOV      r1,sp
        0x00002dd8:    4620         F      MOV      r0,r4
        0x00002dda:    f7fffa81    ....    BL       get_fileinfo ; 0x22e0
        0x00002dde:    4620         F      MOV      r0,r4
        0x00002de0:    f7fff876    ..v.    BL       dir_next ; 0x1ed0
        0x00002de4:    2803        .(      CMP      r0,#3
        0x00002de6:    d1c5        ..      BNE      0x2d74 ; pf_readdir + 32
        0x00002de8:    2000        .       MOVS     r0,#0
        0x00002dea:    e7c3        ..      B        0x2d74 ; pf_readdir + 32
    $d
        0x00002dec:    1ffff0b4    ....    DCD    536866996
    $t
    i.pjpeg_decode_init
    pjpeg_decode_init
        0x00002df0:    b570        p.      PUSH     {r4-r6,lr}
        0x00002df2:    4604        .F      MOV      r4,r0
        0x00002df4:    2000        .       MOVS     r0,#0
        0x00002df6:    6020         `      STR      r0,[r4,#0]
        0x00002df8:    6060        ``      STR      r0,[r4,#4]
        0x00002dfa:    60a0        .`      STR      r0,[r4,#8]
        0x00002dfc:    60e0        .`      STR      r0,[r4,#0xc]
        0x00002dfe:    6120         a      STR      r0,[r4,#0x10]
        0x00002e00:    7520         u      STRB     r0,[r4,#0x14]
        0x00002e02:    61a0        .a      STR      r0,[r4,#0x18]
        0x00002e04:    61e0        .a      STR      r0,[r4,#0x1c]
        0x00002e06:    6220         b      STR      r0,[r4,#0x20]
        0x00002e08:    6260        `b      STR      r0,[r4,#0x24]
        0x00002e0a:    4d20         M      LDR      r5,[pc,#128] ; [0x2e8c] = 0x1ffff058
        0x00002e0c:    62a0        .b      STR      r0,[r4,#0x28]
        0x00002e0e:    642a        *d      STR      r2,[r5,#0x40]
        0x00002e10:    63e9        .c      STR      r1,[r5,#0x3c]
        0x00002e12:    7328        (s      STRB     r0,[r5,#0xc]
        0x00002e14:    736b        ks      STRB     r3,[r5,#0xd]
        0x00002e16:    f7fffc49    ..I.    BL       init ; 0x26ac
        0x00002e1a:    7b29        ){      LDRB     r1,[r5,#0xc]
        0x00002e1c:    4602        .F      MOV      r2,r0
        0x00002e1e:    430a        .C      ORRS     r2,r2,r1
        0x00002e20:    d115        ..      BNE      0x2e4e ; pjpeg_decode_init + 94
        0x00002e22:    f7fffd59    ..Y.    BL       locateSOFMarker ; 0x28d8
        0x00002e26:    4601        .F      MOV      r1,r0
        0x00002e28:    7b28        ({      LDRB     r0,[r5,#0xc]
        0x00002e2a:    460a        .F      MOV      r2,r1
        0x00002e2c:    4302        .C      ORRS     r2,r2,r0
        0x00002e2e:    d002        ..      BEQ      0x2e36 ; pjpeg_decode_init + 70
        0x00002e30:    2800        .(      CMP      r0,#0
        0x00002e32:    d10f        ..      BNE      0x2e54 ; pjpeg_decode_init + 100
        0x00002e34:    e00d        ..      B        0x2e52 ; pjpeg_decode_init + 98
        0x00002e36:    f7fffc53    ..S.    BL       initFrame ; 0x26e0
        0x00002e3a:    7b29        ){      LDRB     r1,[r5,#0xc]
        0x00002e3c:    4602        .F      MOV      r2,r0
        0x00002e3e:    430a        .C      ORRS     r2,r2,r1
        0x00002e40:    d105        ..      BNE      0x2e4e ; pjpeg_decode_init + 94
        0x00002e42:    f7fffccf    ....    BL       initScan ; 0x27e4
        0x00002e46:    7b29        ){      LDRB     r1,[r5,#0xc]
        0x00002e48:    4602        .F      MOV      r2,r0
        0x00002e4a:    430a        .C      ORRS     r2,r2,r1
        0x00002e4c:    d003        ..      BEQ      0x2e56 ; pjpeg_decode_init + 102
        0x00002e4e:    2900        .)      CMP      r1,#0
        0x00002e50:    d000        ..      BEQ      0x2e54 ; pjpeg_decode_init + 100
        0x00002e52:    4608        .F      MOV      r0,r1
        0x00002e54:    bd70        p.      POP      {r4-r6,pc}
        0x00002e56:    8a28        (.      LDRH     r0,[r5,#0x10]
        0x00002e58:    6020         `      STR      r0,[r4,#0]
        0x00002e5a:    8a68        h.      LDRH     r0,[r5,#0x12]
        0x00002e5c:    6060        ``      STR      r0,[r4,#4]
        0x00002e5e:    79a8        .y      LDRB     r0,[r5,#6]
        0x00002e60:    60a0        .`      STR      r0,[r4,#8]
        0x00002e62:    7a28        (z      LDRB     r0,[r5,#8]
        0x00002e64:    7520         u      STRB     r0,[r4,#0x14]
        0x00002e66:    8b68        h.      LDRH     r0,[r5,#0x1a]
        0x00002e68:    60e0        .`      STR      r0,[r4,#0xc]
        0x00002e6a:    8ba8        ..      LDRH     r0,[r5,#0x1c]
        0x00002e6c:    6120         a      STR      r0,[r4,#0x10]
        0x00002e6e:    7aa8        .z      LDRB     r0,[r5,#0xa]
        0x00002e70:    61a0        .a      STR      r0,[r4,#0x18]
        0x00002e72:    7ae8        .z      LDRB     r0,[r5,#0xb]
        0x00002e74:    61e0        .a      STR      r0,[r4,#0x1c]
        0x00002e76:    4806        .H      LDR      r0,[pc,#24] ; [0x2e90] = 0x1ffff72c
        0x00002e78:    6220         b      STR      r0,[r4,#0x20]
        0x00002e7a:    30ff        .0      ADDS     r0,r0,#0xff
        0x00002e7c:    3001        .0      ADDS     r0,#1
        0x00002e7e:    6260        `b      STR      r0,[r4,#0x24]
        0x00002e80:    30ff        .0      ADDS     r0,r0,#0xff
        0x00002e82:    3001        .0      ADDS     r0,#1
        0x00002e84:    62a0        .b      STR      r0,[r4,#0x28]
        0x00002e86:    2000        .       MOVS     r0,#0
        0x00002e88:    bd70        p.      POP      {r4-r6,pc}
    $d
        0x00002e8a:    0000        ..      DCW    0
        0x00002e8c:    1ffff058    X...    DCD    536866904
        0x00002e90:    1ffff72c    ,...    DCD    536868652
    $t
    i.pjpeg_decode_mcu
    pjpeg_decode_mcu
        0x00002e94:    b510        ..      PUSH     {r4,lr}
        0x00002e96:    4c0c        .L      LDR      r4,[pc,#48] ; [0x2ec8] = 0x1ffff058
        0x00002e98:    7b20         {      LDRB     r0,[r4,#0xc]
        0x00002e9a:    2800        .(      CMP      r0,#0
        0x00002e9c:    d10c        ..      BNE      0x2eb8 ; pjpeg_decode_mcu + 36
        0x00002e9e:    8be0        ..      LDRH     r0,[r4,#0x1e]
        0x00002ea0:    2800        .(      CMP      r0,#0
        0x00002ea2:    d00a        ..      BEQ      0x2eba ; pjpeg_decode_mcu + 38
        0x00002ea4:    f7fefef4    ....    BL       decodeNextMCU ; 0x1c90
        0x00002ea8:    4601        .F      MOV      r1,r0
        0x00002eaa:    7b20         {      LDRB     r0,[r4,#0xc]
        0x00002eac:    460a        .F      MOV      r2,r1
        0x00002eae:    4302        .C      ORRS     r2,r2,r0
        0x00002eb0:    d005        ..      BEQ      0x2ebe ; pjpeg_decode_mcu + 42
        0x00002eb2:    2800        .(      CMP      r0,#0
        0x00002eb4:    d100        ..      BNE      0x2eb8 ; pjpeg_decode_mcu + 36
        0x00002eb6:    4608        .F      MOV      r0,r1
        0x00002eb8:    bd10        ..      POP      {r4,pc}
        0x00002eba:    2001        .       MOVS     r0,#1
        0x00002ebc:    bd10        ..      POP      {r4,pc}
        0x00002ebe:    8be0        ..      LDRH     r0,[r4,#0x1e]
        0x00002ec0:    1e40        @.      SUBS     r0,r0,#1
        0x00002ec2:    83e0        ..      STRH     r0,[r4,#0x1e]
        0x00002ec4:    2000        .       MOVS     r0,#0
        0x00002ec6:    bd10        ..      POP      {r4,pc}
    $d
        0x00002ec8:    1ffff058    X...    DCD    536866904
    $t
    i.pjpeg_load_from_file
    pjpeg_load_from_file
        0x00002ecc:    b5ff        ..      PUSH     {r0-r7,lr}
        0x00002ece:    2100        .!      MOVS     r1,#0
        0x00002ed0:    b0a3        ..      SUB      sp,sp,#0x8c
        0x00002ed2:    910b        ..      STR      r1,[sp,#0x2c]
        0x00002ed4:    460c        .F      MOV      r4,r1
        0x00002ed6:    910c        ..      STR      r1,[sp,#0x30]
        0x00002ed8:    9924        $.      LDR      r1,[sp,#0x90]
        0x00002eda:    9d2c        ,.      LDR      r5,[sp,#0xb0]
        0x00002edc:    600c        .`      STR      r4,[r1,#0]
        0x00002ede:    9925        %.      LDR      r1,[sp,#0x94]
        0x00002ee0:    2d00        .-      CMP      r5,#0
        0x00002ee2:    600c        .`      STR      r4,[r1,#0]
        0x00002ee4:    9926        &.      LDR      r1,[sp,#0x98]
        0x00002ee6:    600c        .`      STR      r4,[r1,#0]
        0x00002ee8:    d000        ..      BEQ      0x2eec ; pjpeg_load_from_file + 32
        0x00002eea:    702c        ,p      STRB     r4,[r5,#0]
        0x00002eec:    f7fffe74    ..t.    BL       pf_open ; 0x2bd8
        0x00002ef0:    2800        .(      CMP      r0,#0
        0x00002ef2:    d002        ..      BEQ      0x2efa ; pjpeg_load_from_file + 46
        0x00002ef4:    2026        &       MOVS     r0,#0x26
        0x00002ef6:    b027        '.      ADD      sp,sp,#0x9c
        0x00002ef8:    bdf0        ..      POP      {r4-r7,pc}
        0x00002efa:    489a        .H      LDR      r0,[pc,#616] ; [0x3164] = 0x1ffff014
        0x00002efc:    2200        ."      MOVS     r2,#0
        0x00002efe:    6004        .`      STR      r4,[r0,#0]
        0x00002f00:    982d        -.      LDR      r0,[sp,#0xb4]
        0x00002f02:    4999        .I      LDR      r1,[pc,#612] ; [0x3168] = 0x316d
        0x00002f04:    b2c3        ..      UXTB     r3,r0
        0x00002f06:    4668        hF      MOV      r0,sp
        0x00002f08:    f7ffff72    ..r.    BL       pjpeg_decode_init ; 0x2df0
        0x00002f0c:    2800        .(      CMP      r0,#0
        0x00002f0e:    d1f2        ..      BNE      0x2ef6 ; pjpeg_load_from_file + 42
        0x00002f10:    2d00        .-      CMP      r5,#0
        0x00002f12:    d002        ..      BEQ      0x2f1a ; pjpeg_load_from_file + 78
        0x00002f14:    4668        hF      MOV      r0,sp
        0x00002f16:    7d00        .}      LDRB     r0,[r0,#0x14]
        0x00002f18:    7028        (p      STRB     r0,[r5,#0]
        0x00002f1a:    982d        -.      LDR      r0,[sp,#0xb4]
        0x00002f1c:    2800        .(      CMP      r0,#0
        0x00002f1e:    d00f        ..      BEQ      0x2f40 ; pjpeg_load_from_file + 116
        0x00002f20:    9906        ..      LDR      r1,[sp,#0x18]
        0x00002f22:    9803        ..      LDR      r0,[sp,#0xc]
        0x00002f24:    4348        HC      MULS     r0,r1,r0
        0x00002f26:    17c1        ..      ASRS     r1,r0,#31
        0x00002f28:    0f49        I.      LSRS     r1,r1,#29
        0x00002f2a:    1808        ..      ADDS     r0,r1,r0
        0x00002f2c:    10c0        ..      ASRS     r0,r0,#3
        0x00002f2e:    901b        ..      STR      r0,[sp,#0x6c]
        0x00002f30:    9907        ..      LDR      r1,[sp,#0x1c]
        0x00002f32:    9804        ..      LDR      r0,[sp,#0x10]
        0x00002f34:    4348        HC      MULS     r0,r1,r0
        0x00002f36:    17c1        ..      ASRS     r1,r0,#31
        0x00002f38:    0f49        I.      LSRS     r1,r1,#29
        0x00002f3a:    1808        ..      ADDS     r0,r1,r0
        0x00002f3c:    10c0        ..      ASRS     r0,r0,#3
        0x00002f3e:    e002        ..      B        0x2f46 ; pjpeg_load_from_file + 122
        0x00002f40:    9800        ..      LDR      r0,[sp,#0]
        0x00002f42:    901b        ..      STR      r0,[sp,#0x6c]
        0x00002f44:    9801        ..      LDR      r0,[sp,#4]
        0x00002f46:    9022        ".      STR      r0,[sp,#0x88]
        0x00002f48:    991b        ..      LDR      r1,[sp,#0x6c]
        0x00002f4a:    9802        ..      LDR      r0,[sp,#8]
        0x00002f4c:    4348        HC      MULS     r0,r1,r0
        0x00002f4e:    9015        ..      STR      r0,[sp,#0x54]
        0x00002f50:    f7fffd88    ....    BL       malloc ; 0x2a64
        0x00002f54:    9013        ..      STR      r0,[sp,#0x4c]
        0x00002f56:    2800        .(      CMP      r0,#0
        0x00002f58:    d010        ..      BEQ      0x2f7c ; pjpeg_load_from_file + 176
        0x00002f5a:    9806        ..      LDR      r0,[sp,#0x18]
        0x00002f5c:    10c0        ..      ASRS     r0,r0,#3
        0x00002f5e:    9017        ..      STR      r0,[sp,#0x5c]
        0x00002f60:    9807        ..      LDR      r0,[sp,#0x1c]
        0x00002f62:    10c0        ..      ASRS     r0,r0,#3
        0x00002f64:    9020         .      STR      r0,[sp,#0x80]
        0x00002f66:    f7ffff95    ....    BL       pjpeg_decode_mcu ; 0x2e94
        0x00002f6a:    0004        ..      MOVS     r4,r0
        0x00002f6c:    d016        ..      BEQ      0x2f9c ; pjpeg_load_from_file + 208
        0x00002f6e:    2c01        .,      CMP      r4,#1
        0x00002f70:    d006        ..      BEQ      0x2f80 ; pjpeg_load_from_file + 180
        0x00002f72:    9813        ..      LDR      r0,[sp,#0x4c]
        0x00002f74:    f7fff842    ..B.    BL       free ; 0x1ffc
        0x00002f78:    4620         F      MOV      r0,r4
        0x00002f7a:    e7bc        ..      B        0x2ef6 ; pjpeg_load_from_file + 42
        0x00002f7c:    2022        "       MOVS     r0,#0x22
        0x00002f7e:    e7ba        ..      B        0x2ef6 ; pjpeg_load_from_file + 42
        0x00002f80:    9924        $.      LDR      r1,[sp,#0x90]
        0x00002f82:    981b        ..      LDR      r0,[sp,#0x6c]
        0x00002f84:    6008        .`      STR      r0,[r1,#0]
        0x00002f86:    9925        %.      LDR      r1,[sp,#0x94]
        0x00002f88:    9822        ".      LDR      r0,[sp,#0x88]
        0x00002f8a:    6008        .`      STR      r0,[r1,#0]
        0x00002f8c:    9826        &.      LDR      r0,[sp,#0x98]
        0x00002f8e:    9902        ..      LDR      r1,[sp,#8]
        0x00002f90:    6001        .`      STR      r1,[r0,#0]
        0x00002f92:    9813        ..      LDR      r0,[sp,#0x4c]
        0x00002f94:    f7fff832    ..2.    BL       free ; 0x1ffc
        0x00002f98:    2000        .       MOVS     r0,#0
        0x00002f9a:    e7ac        ..      B        0x2ef6 ; pjpeg_load_from_file + 42
        0x00002f9c:    9904        ..      LDR      r1,[sp,#0x10]
        0x00002f9e:    980c        ..      LDR      r0,[sp,#0x30]
        0x00002fa0:    4281        .B      CMP      r1,r0
        0x00002fa2:    dc04        ..      BGT      0x2fae ; pjpeg_load_from_file + 226
        0x00002fa4:    9813        ..      LDR      r0,[sp,#0x4c]
        0x00002fa6:    f7fff829    ..).    BL       free ; 0x1ffc
        0x00002faa:    2016        .       MOVS     r0,#0x16
        0x00002fac:    e7a3        ..      B        0x2ef6 ; pjpeg_load_from_file + 42
        0x00002fae:    982d        -.      LDR      r0,[sp,#0xb4]
        0x00002fb0:    2800        .(      CMP      r0,#0
        0x00002fb2:    d033        3.      BEQ      0x301c ; pjpeg_load_from_file + 336
        0x00002fb4:    9a17        ..      LDR      r2,[sp,#0x5c]
        0x00002fb6:    990b        ..      LDR      r1,[sp,#0x2c]
        0x00002fb8:    9802        ..      LDR      r0,[sp,#8]
        0x00002fba:    4351        QC      MULS     r1,r2,r1
        0x00002fbc:    4348        HC      MULS     r0,r1,r0
        0x00002fbe:    9a20         .      LDR      r2,[sp,#0x80]
        0x00002fc0:    990c        ..      LDR      r1,[sp,#0x30]
        0x00002fc2:    4351        QC      MULS     r1,r2,r1
        0x00002fc4:    9a15        ..      LDR      r2,[sp,#0x54]
        0x00002fc6:    4351        QC      MULS     r1,r2,r1
        0x00002fc8:    1841        A.      ADDS     r1,r0,r1
        0x00002fca:    9813        ..      LDR      r0,[sp,#0x4c]
        0x00002fcc:    1808        ..      ADDS     r0,r1,r0
        0x00002fce:    4669        iF      MOV      r1,sp
        0x00002fd0:    7d09        .}      LDRB     r1,[r1,#0x14]
        0x00002fd2:    2900        .)      CMP      r1,#0
        0x00002fd4:    d006        ..      BEQ      0x2fe4 ; pjpeg_load_from_file + 280
        0x00002fd6:    9917        ..      LDR      r1,[sp,#0x5c]
        0x00002fd8:    2200        ."      MOVS     r2,#0
        0x00002fda:    004b        K.      LSLS     r3,r1,#1
        0x00002fdc:    18c9        ..      ADDS     r1,r1,r3
        0x00002fde:    9b15        ..      LDR      r3,[sp,#0x54]
        0x00002fe0:    1a5c        \.      SUBS     r4,r3,r1
        0x00002fe2:    e017        ..      B        0x3014 ; pjpeg_load_from_file + 328
        0x00002fe4:    9908        ..      LDR      r1,[sp,#0x20]
        0x00002fe6:    7809        .x      LDRB     r1,[r1,#0]
        0x00002fe8:    7001        .p      STRB     r1,[r0,#0]
        0x00002fea:    e07a        z.      B        0x30e2 ; pjpeg_load_from_file + 534
        0x00002fec:    01d1        ..      LSLS     r1,r2,#7
        0x00002fee:    2300        .#      MOVS     r3,#0
        0x00002ff0:    e00b        ..      B        0x300a ; pjpeg_load_from_file + 318
        0x00002ff2:    9d08        ..      LDR      r5,[sp,#0x20]
        0x00002ff4:    5c6d        m\      LDRB     r5,[r5,r1]
        0x00002ff6:    7005        .p      STRB     r5,[r0,#0]
        0x00002ff8:    9d09        ..      LDR      r5,[sp,#0x24]
        0x00002ffa:    5c6d        m\      LDRB     r5,[r5,r1]
        0x00002ffc:    7045        Ep      STRB     r5,[r0,#1]
        0x00002ffe:    9d0a        ..      LDR      r5,[sp,#0x28]
        0x00003000:    5c6d        m\      LDRB     r5,[r5,r1]
        0x00003002:    7085        .p      STRB     r5,[r0,#2]
        0x00003004:    1cc0        ..      ADDS     r0,r0,#3
        0x00003006:    3140        @1      ADDS     r1,r1,#0x40
        0x00003008:    1c5b        [.      ADDS     r3,r3,#1
        0x0000300a:    9d17        ..      LDR      r5,[sp,#0x5c]
        0x0000300c:    42ab        .B      CMP      r3,r5
        0x0000300e:    d3f0        ..      BCC      0x2ff2 ; pjpeg_load_from_file + 294
        0x00003010:    1820         .      ADDS     r0,r4,r0
        0x00003012:    1c52        R.      ADDS     r2,r2,#1
        0x00003014:    9920         .      LDR      r1,[sp,#0x80]
        0x00003016:    428a        .B      CMP      r2,r1
        0x00003018:    d3e8        ..      BCC      0x2fec ; pjpeg_load_from_file + 288
        0x0000301a:    e062        b.      B        0x30e2 ; pjpeg_load_from_file + 534
        0x0000301c:    9902        ..      LDR      r1,[sp,#8]
        0x0000301e:    9806        ..      LDR      r0,[sp,#0x18]
        0x00003020:    4348        HC      MULS     r0,r1,r0
        0x00003022:    990b        ..      LDR      r1,[sp,#0x2c]
        0x00003024:    4348        HC      MULS     r0,r1,r0
        0x00003026:    9913        ..      LDR      r1,[sp,#0x4c]
        0x00003028:    1840        @.      ADDS     r0,r0,r1
        0x0000302a:    9010        ..      STR      r0,[sp,#0x40]
        0x0000302c:    2000        .       MOVS     r0,#0
        0x0000302e:    e054        T.      B        0x30da ; pjpeg_load_from_file + 526
        0x00003030:    4608        .F      MOV      r0,r1
        0x00003032:    990c        ..      LDR      r1,[sp,#0x30]
        0x00003034:    9a01        ..      LDR      r2,[sp,#4]
        0x00003036:    4348        HC      MULS     r0,r1,r0
        0x00003038:    9912        ..      LDR      r1,[sp,#0x48]
        0x0000303a:    1840        @.      ADDS     r0,r0,r1
        0x0000303c:    1a10        ..      SUBS     r0,r2,r0
        0x0000303e:    2808        .(      CMP      r0,#8
        0x00003040:    dd00        ..      BLE      0x3044 ; pjpeg_load_from_file + 376
        0x00003042:    2008        .       MOVS     r0,#8
        0x00003044:    2400        .$      MOVS     r4,#0
        0x00003046:    9016        ..      STR      r0,[sp,#0x58]
        0x00003048:    e042        B.      B        0x30d0 ; pjpeg_load_from_file + 516
        0x0000304a:    9802        ..      LDR      r0,[sp,#8]
        0x0000304c:    9910        ..      LDR      r1,[sp,#0x40]
        0x0000304e:    4360        `C      MULS     r0,r4,r0
        0x00003050:    1840        @.      ADDS     r0,r0,r1
        0x00003052:    901a        ..      STR      r0,[sp,#0x68]
        0x00003054:    9812        ..      LDR      r0,[sp,#0x48]
        0x00003056:    00e1        ..      LSLS     r1,r4,#3
        0x00003058:    0100        ..      LSLS     r0,r0,#4
        0x0000305a:    1808        ..      ADDS     r0,r1,r0
        0x0000305c:    9908        ..      LDR      r1,[sp,#0x20]
        0x0000305e:    9a00        ..      LDR      r2,[sp,#0]
        0x00003060:    180d        ..      ADDS     r5,r1,r0
        0x00003062:    9909        ..      LDR      r1,[sp,#0x24]
        0x00003064:    180f        ..      ADDS     r7,r1,r0
        0x00003066:    990a        ..      LDR      r1,[sp,#0x28]
        0x00003068:    180e        ..      ADDS     r6,r1,r0
        0x0000306a:    990b        ..      LDR      r1,[sp,#0x2c]
        0x0000306c:    9806        ..      LDR      r0,[sp,#0x18]
        0x0000306e:    4348        HC      MULS     r0,r1,r0
        0x00003070:    1900        ..      ADDS     r0,r0,r4
        0x00003072:    1a10        ..      SUBS     r0,r2,r0
        0x00003074:    2808        .(      CMP      r0,#8
        0x00003076:    dd00        ..      BLE      0x307a ; pjpeg_load_from_file + 430
        0x00003078:    2008        .       MOVS     r0,#8
        0x0000307a:    9014        ..      STR      r0,[sp,#0x50]
        0x0000307c:    4668        hF      MOV      r0,sp
        0x0000307e:    7d00        .}      LDRB     r0,[r0,#0x14]
        0x00003080:    990c        ..      LDR      r1,[sp,#0x30]
        0x00003082:    2800        .(      CMP      r0,#0
        0x00003084:    9807        ..      LDR      r0,[sp,#0x1c]
        0x00003086:    d039        9.      BEQ      0x30fc ; pjpeg_load_from_file + 560
        0x00003088:    4348        HC      MULS     r0,r1,r0
        0x0000308a:    9912        ..      LDR      r1,[sp,#0x48]
        0x0000308c:    1840        @.      ADDS     r0,r0,r1
        0x0000308e:    900f        ..      STR      r0,[sp,#0x3c]
        0x00003090:    990b        ..      LDR      r1,[sp,#0x2c]
        0x00003092:    9806        ..      LDR      r0,[sp,#0x18]
        0x00003094:    4348        HC      MULS     r0,r1,r0
        0x00003096:    1900        ..      ADDS     r0,r0,r4
        0x00003098:    900e        ..      STR      r0,[sp,#0x38]
        0x0000309a:    980f        ..      LDR      r0,[sp,#0x3c]
        0x0000309c:    901f        ..      STR      r0,[sp,#0x7c]
        0x0000309e:    980e        ..      LDR      r0,[sp,#0x38]
        0x000030a0:    901e        ..      STR      r0,[sp,#0x78]
        0x000030a2:    990f        ..      LDR      r1,[sp,#0x3c]
        0x000030a4:    9816        ..      LDR      r0,[sp,#0x58]
        0x000030a6:    1808        ..      ADDS     r0,r1,r0
        0x000030a8:    9019        ..      STR      r0,[sp,#0x64]
        0x000030aa:    9814        ..      LDR      r0,[sp,#0x50]
        0x000030ac:    990e        ..      LDR      r1,[sp,#0x38]
        0x000030ae:    1e40        @.      SUBS     r0,r0,#1
        0x000030b0:    1808        ..      ADDS     r0,r1,r0
        0x000030b2:    9018        ..      STR      r0,[sp,#0x60]
        0x000030b4:    a918        ..      ADD      r1,sp,#0x60
        0x000030b6:    a81e        ..      ADD      r0,sp,#0x78
        0x000030b8:    f7fdfb9b    ....    BL       LCD_Start_Rectangle ; 0x7f2
        0x000030bc:    9916        ..      LDR      r1,[sp,#0x58]
        0x000030be:    9814        ..      LDR      r0,[sp,#0x50]
        0x000030c0:    4632        2F      MOV      r2,r6
        0x000030c2:    4348        HC      MULS     r0,r1,r0
        0x000030c4:    1083        ..      ASRS     r3,r0,#2
        0x000030c6:    4639        9F      MOV      r1,r7
        0x000030c8:    4628        (F      MOV      r0,r5
        0x000030ca:    f7fdfdf7    ....    BL       LCD_Write_Rectangle_N_Quad_Pixel_Components ; 0xcbc
        0x000030ce:    3408        .4      ADDS     r4,r4,#8
        0x000030d0:    9806        ..      LDR      r0,[sp,#0x18]
        0x000030d2:    42a0        .B      CMP      r0,r4
        0x000030d4:    dcb9        ..      BGT      0x304a ; pjpeg_load_from_file + 382
        0x000030d6:    9812        ..      LDR      r0,[sp,#0x48]
        0x000030d8:    3008        .0      ADDS     r0,r0,#8
        0x000030da:    9907        ..      LDR      r1,[sp,#0x1c]
        0x000030dc:    9012        ..      STR      r0,[sp,#0x48]
        0x000030de:    4281        .B      CMP      r1,r0
        0x000030e0:    dca6        ..      BGT      0x3030 ; pjpeg_load_from_file + 356
        0x000030e2:    980b        ..      LDR      r0,[sp,#0x2c]
        0x000030e4:    9903        ..      LDR      r1,[sp,#0xc]
        0x000030e6:    1c40        @.      ADDS     r0,r0,#1
        0x000030e8:    900b        ..      STR      r0,[sp,#0x2c]
        0x000030ea:    4281        .B      CMP      r1,r0
        0x000030ec:    d000        ..      BEQ      0x30f0 ; pjpeg_load_from_file + 548
        0x000030ee:    e73a        :.      B        0x2f66 ; pjpeg_load_from_file + 154
        0x000030f0:    2000        .       MOVS     r0,#0
        0x000030f2:    900b        ..      STR      r0,[sp,#0x2c]
        0x000030f4:    980c        ..      LDR      r0,[sp,#0x30]
        0x000030f6:    1c40        @.      ADDS     r0,r0,#1
        0x000030f8:    900c        ..      STR      r0,[sp,#0x30]
        0x000030fa:    e734        4.      B        0x2f66 ; pjpeg_load_from_file + 154
        0x000030fc:    4348        HC      MULS     r0,r1,r0
        0x000030fe:    9912        ..      LDR      r1,[sp,#0x48]
        0x00003100:    1840        @.      ADDS     r0,r0,r1
        0x00003102:    900f        ..      STR      r0,[sp,#0x3c]
        0x00003104:    2000        .       MOVS     r0,#0
        0x00003106:    e027        '.      B        0x3158 ; pjpeg_load_from_file + 652
        0x00003108:    990b        ..      LDR      r1,[sp,#0x2c]
        0x0000310a:    9806        ..      LDR      r0,[sp,#0x18]
        0x0000310c:    9e1a        ..      LDR      r6,[sp,#0x68]
        0x0000310e:    4348        HC      MULS     r0,r1,r0
        0x00003110:    1900        ..      ADDS     r0,r0,r4
        0x00003112:    2700        .'      MOVS     r7,#0
        0x00003114:    900e        ..      STR      r0,[sp,#0x38]
        0x00003116:    e010        ..      B        0x313a ; pjpeg_load_from_file + 622
        0x00003118:    7829        )x      LDRB     r1,[r5,#0]
        0x0000311a:    a818        ..      ADD      r0,sp,#0x60
        0x0000311c:    7581        .u      STRB     r1,[r0,#0x16]
        0x0000311e:    7541        Au      STRB     r1,[r0,#0x15]
        0x00003120:    7501        .u      STRB     r1,[r0,#0x14]
        0x00003122:    a91d        ..      ADD      r1,sp,#0x74
        0x00003124:    a80e        ..      ADD      r0,sp,#0x38
        0x00003126:    f7fdfb2b    ..+.    BL       LCD_Plot_Pixel ; 0x780
        0x0000312a:    980e        ..      LDR      r0,[sp,#0x38]
        0x0000312c:    1c40        @.      ADDS     r0,r0,#1
        0x0000312e:    900e        ..      STR      r0,[sp,#0x38]
        0x00003130:    7828        (x      LDRB     r0,[r5,#0]
        0x00003132:    7030        0p      STRB     r0,[r6,#0]
        0x00003134:    1c6d        m.      ADDS     r5,r5,#1
        0x00003136:    1c76        v.      ADDS     r6,r6,#1
        0x00003138:    1c7f        ..      ADDS     r7,r7,#1
        0x0000313a:    9814        ..      LDR      r0,[sp,#0x50]
        0x0000313c:    4287        .B      CMP      r7,r0
        0x0000313e:    dbeb        ..      BLT      0x3118 ; pjpeg_load_from_file + 588
        0x00003140:    2108        .!      MOVS     r1,#8
        0x00003142:    1a08        ..      SUBS     r0,r1,r0
        0x00003144:    1945        E.      ADDS     r5,r0,r5
        0x00003146:    9915        ..      LDR      r1,[sp,#0x54]
        0x00003148:    981a        ..      LDR      r0,[sp,#0x68]
        0x0000314a:    1840        @.      ADDS     r0,r0,r1
        0x0000314c:    901a        ..      STR      r0,[sp,#0x68]
        0x0000314e:    980f        ..      LDR      r0,[sp,#0x3c]
        0x00003150:    1c40        @.      ADDS     r0,r0,#1
        0x00003152:    900f        ..      STR      r0,[sp,#0x3c]
        0x00003154:    9819        ..      LDR      r0,[sp,#0x64]
        0x00003156:    1c40        @.      ADDS     r0,r0,#1
        0x00003158:    4601        .F      MOV      r1,r0
        0x0000315a:    9019        ..      STR      r0,[sp,#0x64]
        0x0000315c:    9816        ..      LDR      r0,[sp,#0x58]
        0x0000315e:    4281        .B      CMP      r1,r0
        0x00003160:    dbd2        ..      BLT      0x3108 ; pjpeg_load_from_file + 572
        0x00003162:    e7b4        ..      B        0x30ce ; pjpeg_load_from_file + 514
    $d
        0x00003164:    1ffff014    ....    DCD    536866836
        0x00003168:    0000316d    m1..    DCD    12653
    $t
    i.pjpeg_need_bytes_callback
    pjpeg_need_bytes_callback
        0x0000316c:    b538        8.      PUSH     {r3-r5,lr}
        0x0000316e:    4614        .F      MOV      r4,r2
        0x00003170:    466a        jF      MOV      r2,sp
        0x00003172:    f7fffd87    ....    BL       pf_read ; 0x2c84
        0x00003176:    2800        .(      CMP      r0,#0
        0x00003178:    d001        ..      BEQ      0x317e ; pjpeg_need_bytes_callback + 18
        0x0000317a:    2021        !       MOVS     r0,#0x21
        0x0000317c:    bd38        8.      POP      {r3-r5,pc}
        0x0000317e:    4669        iF      MOV      r1,sp
        0x00003180:    8808        ..      LDRH     r0,[r1,#0]
        0x00003182:    7020         p      STRB     r0,[r4,#0]
        0x00003184:    4803        .H      LDR      r0,[pc,#12] ; [0x3194] = 0x1ffff014
        0x00003186:    8809        ..      LDRH     r1,[r1,#0]
        0x00003188:    6802        .h      LDR      r2,[r0,#0]
        0x0000318a:    1851        Q.      ADDS     r1,r2,r1
        0x0000318c:    6001        .`      STR      r1,[r0,#0]
        0x0000318e:    2000        .       MOVS     r0,#0
        0x00003190:    bd38        8.      POP      {r3-r5,pc}
    $d
        0x00003192:    0000        ..      DCW    0
        0x00003194:    1ffff014    ....    DCD    536866836
    $t
    i.processMarkers
    processMarkers
        0x00003198:    b570        p.      PUSH     {r4-r6,lr}
        0x0000319a:    4604        .F      MOV      r4,r0
        0x0000319c:    2008        .       MOVS     r0,#8
        0x0000319e:    f7feffb1    ....    BL       getBits1 ; 0x2104
        0x000031a2:    b2c0        ..      UXTB     r0,r0
        0x000031a4:    28ff        .(      CMP      r0,#0xff
        0x000031a6:    d1f9        ..      BNE      0x319c ; processMarkers + 4
        0x000031a8:    2008        .       MOVS     r0,#8
        0x000031aa:    f7feffab    ....    BL       getBits1 ; 0x2104
        0x000031ae:    b2c1        ..      UXTB     r1,r0
        0x000031b0:    29ff        .)      CMP      r1,#0xff
        0x000031b2:    d0f9        ..      BEQ      0x31a8 ; processMarkers + 16
        0x000031b4:    2900        .)      CMP      r1,#0
        0x000031b6:    d0f1        ..      BEQ      0x319c ; processMarkers + 4
        0x000031b8:    29ce        .)      CMP      r1,#0xce
        0x000031ba:    d02c        ,.      BEQ      0x3216 ; processMarkers + 126
        0x000031bc:    dc1d        ..      BGT      0x31fa ; processMarkers + 98
        0x000031be:    29c6        .)      CMP      r1,#0xc6
        0x000031c0:    d029        ).      BEQ      0x3216 ; processMarkers + 126
        0x000031c2:    dc10        ..      BGT      0x31e6 ; processMarkers + 78
        0x000031c4:    29c2        .)      CMP      r1,#0xc2
        0x000031c6:    d026        &.      BEQ      0x3216 ; processMarkers + 126
        0x000031c8:    dc06        ..      BGT      0x31d8 ; processMarkers + 64
        0x000031ca:    2901        .)      CMP      r1,#1
        0x000031cc:    d039        9.      BEQ      0x3242 ; processMarkers + 170
        0x000031ce:    29c0        .)      CMP      r1,#0xc0
        0x000031d0:    d021        !.      BEQ      0x3216 ; processMarkers + 126
        0x000031d2:    29c1        .)      CMP      r1,#0xc1
        0x000031d4:    d137        7.      BNE      0x3246 ; processMarkers + 174
        0x000031d6:    e01e        ..      B        0x3216 ; processMarkers + 126
        0x000031d8:    29c3        .)      CMP      r1,#0xc3
        0x000031da:    d01c        ..      BEQ      0x3216 ; processMarkers + 126
        0x000031dc:    29c4        .)      CMP      r1,#0xc4
        0x000031de:    d01d        ..      BEQ      0x321c ; processMarkers + 132
        0x000031e0:    29c5        .)      CMP      r1,#0xc5
        0x000031e2:    d130        0.      BNE      0x3246 ; processMarkers + 174
        0x000031e4:    e017        ..      B        0x3216 ; processMarkers + 126
        0x000031e6:    4608        .F      MOV      r0,r1
        0x000031e8:    38c7        .8      SUBS     r0,r0,#0xc7
        0x000031ea:    0003        ..      MOVS     r3,r0
        0x000031ec:    f7fef9ba    ....    BL       __ARM_common_switch8 ; 0x1564
    $d
        0x000031f0:    13291307    ..).    DCD    321458951
        0x000031f4:    13191313    ....    DCD    320410387
        0x000031f8:    002b        +.      DCW    43
    $t
        0x000031fa:    4608        .F      MOV      r0,r1
        0x000031fc:    38cf        .8      SUBS     r0,r0,#0xcf
        0x000031fe:    0003        ..      MOVS     r3,r0
        0x00003200:    f7fef9b0    ....    BL       __ARM_common_switch8 ; 0x1564
    $d
        0x00003204:    1f1f090f    ....    DCD    522127631
        0x00003208:    1f1f1f1f    ....    DCD    522133279
        0x0000320c:    09091f1f    ....    DCD    151592735
        0x00003210:    14211109    ..!.    DCD    337711369
        0x00003214:    0021        !.      DCW    33
    $t
        0x00003216:    7021        !p      STRB     r1,[r4,#0]
        0x00003218:    2000        .       MOVS     r0,#0
        0x0000321a:    bd70        p.      POP      {r4-r6,pc}
        0x0000321c:    f000f85e    ..^.    BL       readDHTMarker ; 0x32dc
        0x00003220:    e7bc        ..      B        0x319c ; processMarkers + 4
        0x00003222:    2011        .       MOVS     r0,#0x11
        0x00003224:    bd70        p.      POP      {r4-r6,pc}
        0x00003226:    f000f903    ....    BL       readDQTMarker ; 0x3430
        0x0000322a:    e7b7        ..      B        0x319c ; processMarkers + 4
        0x0000322c:    2010        .       MOVS     r0,#0x10
        0x0000322e:    f7feff69    ..i.    BL       getBits1 ; 0x2104
        0x00003232:    2804        .(      CMP      r0,#4
        0x00003234:    d1b2        ..      BNE      0x319c ; processMarkers + 4
        0x00003236:    2010        .       MOVS     r0,#0x10
        0x00003238:    f7feff64    ..d.    BL       getBits1 ; 0x2104
        0x0000323c:    490a        .I      LDR      r1,[pc,#40] ; [0x3268] = 0x1ffff058
        0x0000323e:    8288        ..      STRH     r0,[r1,#0x14]
        0x00003240:    e7ac        ..      B        0x319c ; processMarkers + 4
        0x00003242:    2012        .       MOVS     r0,#0x12
        0x00003244:    bd70        p.      POP      {r4-r6,pc}
        0x00003246:    2010        .       MOVS     r0,#0x10
        0x00003248:    f7feff5c    ..\.    BL       getBits1 ; 0x2104
        0x0000324c:    2802        .(      CMP      r0,#2
        0x0000324e:    d3a5        ..      BCC      0x319c ; processMarkers + 4
        0x00003250:    1e80        ..      SUBS     r0,r0,#2
        0x00003252:    b285        ..      UXTH     r5,r0
        0x00003254:    e004        ..      B        0x3260 ; processMarkers + 200
        0x00003256:    2008        .       MOVS     r0,#8
        0x00003258:    f7feff54    ..T.    BL       getBits1 ; 0x2104
        0x0000325c:    1e6d        m.      SUBS     r5,r5,#1
        0x0000325e:    b2ad        ..      UXTH     r5,r5
        0x00003260:    2d00        .-      CMP      r5,#0
        0x00003262:    d09b        ..      BEQ      0x319c ; processMarkers + 4
        0x00003264:    e7f7        ..      B        0x3256 ; processMarkers + 190
    $d
        0x00003266:    0000        ..      DCW    0
        0x00003268:    1ffff058    X...    DCD    536866904
    $t
    i.processRestart
    processRestart
        0x0000326c:    b510        ..      PUSH     {r4,lr}
        0x0000326e:    2403        .$      MOVS     r4,#3
        0x00003270:    0264        d.      LSLS     r4,r4,#9
        0x00003272:    f7feff51    ..Q.    BL       getChar ; 0x2118
        0x00003276:    28ff        .(      CMP      r0,#0xff
        0x00003278:    d004        ..      BEQ      0x3284 ; processRestart + 24
        0x0000327a:    1e64        d.      SUBS     r4,r4,#1
        0x0000327c:    0424        $.      LSLS     r4,r4,#16
        0x0000327e:    0c24        $.      LSRS     r4,r4,#16
        0x00003280:    d1f7        ..      BNE      0x3272 ; processRestart + 6
        0x00003282:    e00d        ..      B        0x32a0 ; processRestart + 52
        0x00003284:    2c00        .,      CMP      r4,#0
        0x00003286:    d00b        ..      BEQ      0x32a0 ; processRestart + 52
        0x00003288:    f7feff46    ..F.    BL       getChar ; 0x2118
        0x0000328c:    28ff        .(      CMP      r0,#0xff
        0x0000328e:    d009        ..      BEQ      0x32a4 ; processRestart + 56
        0x00003290:    2c00        .,      CMP      r4,#0
        0x00003292:    d005        ..      BEQ      0x32a0 ; processRestart + 52
        0x00003294:    4910        .I      LDR      r1,[pc,#64] ; [0x32d8] = 0x1ffff058
        0x00003296:    8aca        ..      LDRH     r2,[r1,#0x16]
        0x00003298:    4613        .F      MOV      r3,r2
        0x0000329a:    33d0        .3      ADDS     r3,r3,#0xd0
        0x0000329c:    4298        .B      CMP      r0,r3
        0x0000329e:    d006        ..      BEQ      0x32ae ; processRestart + 66
        0x000032a0:    201d        .       MOVS     r0,#0x1d
        0x000032a2:    bd10        ..      POP      {r4,pc}
        0x000032a4:    1e64        d.      SUBS     r4,r4,#1
        0x000032a6:    0424        $.      LSLS     r4,r4,#16
        0x000032a8:    0c24        $.      LSRS     r4,r4,#16
        0x000032aa:    d1ed        ..      BNE      0x3288 ; processRestart + 28
        0x000032ac:    e7f8        ..      B        0x32a0 ; processRestart + 52
        0x000032ae:    480a        .H      LDR      r0,[pc,#40] ; [0x32d8] = 0x1ffff058
        0x000032b0:    2300        .#      MOVS     r3,#0
        0x000032b2:    3044        D0      ADDS     r0,r0,#0x44
        0x000032b4:    8003        ..      STRH     r3,[r0,#0]
        0x000032b6:    8043        C.      STRH     r3,[r0,#2]
        0x000032b8:    8083        ..      STRH     r3,[r0,#4]
        0x000032ba:    8a88        ..      LDRH     r0,[r1,#0x14]
        0x000032bc:    8308        ..      STRH     r0,[r1,#0x18]
        0x000032be:    1c52        R.      ADDS     r2,r2,#1
        0x000032c0:    0750        P.      LSLS     r0,r2,#29
        0x000032c2:    0f40        @.      LSRS     r0,r0,#29
        0x000032c4:    82c8        ..      STRH     r0,[r1,#0x16]
        0x000032c6:    2008        .       MOVS     r0,#8
        0x000032c8:    7148        Hq      STRB     r0,[r1,#5]
        0x000032ca:    f7feff20    .. .    BL       getBits2 ; 0x210e
        0x000032ce:    2008        .       MOVS     r0,#8
        0x000032d0:    f7feff1d    ....    BL       getBits2 ; 0x210e
        0x000032d4:    2000        .       MOVS     r0,#0
        0x000032d6:    bd10        ..      POP      {r4,pc}
    $d
        0x000032d8:    1ffff058    X...    DCD    536866904
    $t
    i.readDHTMarker
    readDHTMarker
        0x000032dc:    b5f0        ..      PUSH     {r4-r7,lr}
        0x000032de:    b08d        ..      SUB      sp,sp,#0x34
        0x000032e0:    2010        .       MOVS     r0,#0x10
        0x000032e2:    f7feff0f    ....    BL       getBits1 ; 0x2104
        0x000032e6:    2802        .(      CMP      r0,#2
        0x000032e8:    d36b        k.      BCC      0x33c2 ; readDHTMarker + 230
        0x000032ea:    1e80        ..      SUBS     r0,r0,#2
        0x000032ec:    b284        ..      UXTH     r4,r0
        0x000032ee:    e088        ..      B        0x3402 ; readDHTMarker + 294
        0x000032f0:    2008        .       MOVS     r0,#8
        0x000032f2:    f7feff07    ....    BL       getBits1 ; 0x2104
        0x000032f6:    b2c0        ..      UXTB     r0,r0
        0x000032f8:    0701        ..      LSLS     r1,r0,#28
        0x000032fa:    0f09        ..      LSRS     r1,r1,#28
        0x000032fc:    2901        .)      CMP      r1,#1
        0x000032fe:    d803        ..      BHI      0x3308 ; readDHTMarker + 44
        0x00003300:    0901        ..      LSRS     r1,r0,#4
        0x00003302:    0109        ..      LSLS     r1,r1,#4
        0x00003304:    2910        .)      CMP      r1,#0x10
        0x00003306:    d902        ..      BLS      0x330e ; readDHTMarker + 50
        0x00003308:    2003        .       MOVS     r0,#3
        0x0000330a:    b00d        ..      ADD      sp,sp,#0x34
        0x0000330c:    bdf0        ..      POP      {r4-r7,pc}
        0x0000330e:    08c1        ..      LSRS     r1,r0,#3
        0x00003310:    2202        ."      MOVS     r2,#2
        0x00003312:    07c0        ..      LSLS     r0,r0,#31
        0x00003314:    4011        .@      ANDS     r1,r1,r2
        0x00003316:    0fc0        ..      LSRS     r0,r0,#31
        0x00003318:    1808        ..      ADDS     r0,r1,r0
        0x0000331a:    9006        ..      STR      r0,[sp,#0x18]
        0x0000331c:    d029        ).      BEQ      0x3372 ; readDHTMarker + 150
        0x0000331e:    2801        .(      CMP      r0,#1
        0x00003320:    d02c        ,.      BEQ      0x337c ; readDHTMarker + 160
        0x00003322:    2802        .(      CMP      r0,#2
        0x00003324:    d02d        -.      BEQ      0x3382 ; readDHTMarker + 166
        0x00003326:    2803        .(      CMP      r0,#3
        0x00003328:    d02e        ..      BEQ      0x3388 ; readDHTMarker + 172
        0x0000332a:    2000        .       MOVS     r0,#0
        0x0000332c:    9004        ..      STR      r0,[sp,#0x10]
        0x0000332e:    9806        ..      LDR      r0,[sp,#0x18]
        0x00003330:    2801        .(      CMP      r0,#1
        0x00003332:    d02b        +.      BEQ      0x338c ; readDHTMarker + 176
        0x00003334:    2802        .(      CMP      r0,#2
        0x00003336:    d02c        ,.      BEQ      0x3392 ; readDHTMarker + 182
        0x00003338:    2803        .(      CMP      r0,#3
        0x0000333a:    d02c        ,.      BEQ      0x3396 ; readDHTMarker + 186
        0x0000333c:    2700        .'      MOVS     r7,#0
        0x0000333e:    9906        ..      LDR      r1,[sp,#0x18]
        0x00003340:    2001        .       MOVS     r0,#1
        0x00003342:    4088        .@      LSLS     r0,r0,r1
        0x00003344:    4936        6I      LDR      r1,[pc,#216] ; [0x3420] = 0x1ffff058
        0x00003346:    780a        .x      LDRB     r2,[r1,#0]
        0x00003348:    4310        .C      ORRS     r0,r0,r2
        0x0000334a:    2500        .%      MOVS     r5,#0
        0x0000334c:    7008        .p      STRB     r0,[r1,#0]
        0x0000334e:    462e        .F      MOV      r6,r5
        0x00003350:    2008        .       MOVS     r0,#8
        0x00003352:    f7fefed7    ....    BL       getBits1 ; 0x2104
        0x00003356:    b2c0        ..      UXTB     r0,r0
        0x00003358:    a908        ..      ADD      r1,sp,#0x20
        0x0000335a:    5588        .U      STRB     r0,[r1,r6]
        0x0000335c:    1828        (.      ADDS     r0,r5,r0
        0x0000335e:    1c76        v.      ADDS     r6,r6,#1
        0x00003360:    b2f6        ..      UXTB     r6,r6
        0x00003362:    b285        ..      UXTH     r5,r0
        0x00003364:    2e0f        ..      CMP      r6,#0xf
        0x00003366:    d9f3        ..      BLS      0x3350 ; readDHTMarker + 116
        0x00003368:    9806        ..      LDR      r0,[sp,#0x18]
        0x0000336a:    2802        .(      CMP      r0,#2
        0x0000336c:    d216        ..      BCS      0x339c ; readDHTMarker + 192
        0x0000336e:    200c        .       MOVS     r0,#0xc
        0x00003370:    e015        ..      B        0x339e ; readDHTMarker + 194
        0x00003372:    482c        ,H      LDR      r0,[pc,#176] ; [0x3424] = 0x1ffffb2c
        0x00003374:    9004        ..      STR      r0,[sp,#0x10]
        0x00003376:    4607        .F      MOV      r7,r0
        0x00003378:    3750        P7      ADDS     r7,r7,#0x50
        0x0000337a:    e7e0        ..      B        0x333e ; readDHTMarker + 98
        0x0000337c:    4829        )H      LDR      r0,[pc,#164] ; [0x3424] = 0x1ffffb2c
        0x0000337e:    3060        `0      ADDS     r0,r0,#0x60
        0x00003380:    e7d4        ..      B        0x332c ; readDHTMarker + 80
        0x00003382:    4828        (H      LDR      r0,[pc,#160] ; [0x3424] = 0x1ffffb2c
        0x00003384:    30c0        .0      ADDS     r0,r0,#0xc0
        0x00003386:    e7d1        ..      B        0x332c ; readDHTMarker + 80
        0x00003388:    4827        'H      LDR      r0,[pc,#156] ; [0x3428] = 0x1ffffd3c
        0x0000338a:    e7cf        ..      B        0x332c ; readDHTMarker + 80
        0x0000338c:    4f25        %O      LDR      r7,[pc,#148] ; [0x3424] = 0x1ffffb2c
        0x0000338e:    37b0        .7      ADDS     r7,r7,#0xb0
        0x00003390:    e7d5        ..      B        0x333e ; readDHTMarker + 98
        0x00003392:    4f26        &O      LDR      r7,[pc,#152] ; [0x342c] = 0x1ffffc3c
        0x00003394:    e7d3        ..      B        0x333e ; readDHTMarker + 98
        0x00003396:    4f24        $O      LDR      r7,[pc,#144] ; [0x3428] = 0x1ffffd3c
        0x00003398:    3750        P7      ADDS     r7,r7,#0x50
        0x0000339a:    e7d0        ..      B        0x333e ; readDHTMarker + 98
        0x0000339c:    20ff        .       MOVS     r0,#0xff
        0x0000339e:    42a8        .B      CMP      r0,r5
        0x000033a0:    d201        ..      BCS      0x33a6 ; readDHTMarker + 202
        0x000033a2:    2002        .       MOVS     r0,#2
        0x000033a4:    e7b1        ..      B        0x330a ; readDHTMarker + 46
        0x000033a6:    2600        .&      MOVS     r6,#0
        0x000033a8:    e005        ..      B        0x33b6 ; readDHTMarker + 218
        0x000033aa:    2008        .       MOVS     r0,#8
        0x000033ac:    f7fefeaa    ....    BL       getBits1 ; 0x2104
        0x000033b0:    55b8        .U      STRB     r0,[r7,r6]
        0x000033b2:    1c76        v.      ADDS     r6,r6,#1
        0x000033b4:    b2f6        ..      UXTB     r6,r6
        0x000033b6:    42ae        .B      CMP      r6,r5
        0x000033b8:    d3f7        ..      BCC      0x33aa ; readDHTMarker + 206
        0x000033ba:    3511        .5      ADDS     r5,r5,#0x11
        0x000033bc:    b2a8        ..      UXTH     r0,r5
        0x000033be:    4284        .B      CMP      r4,r0
        0x000033c0:    d201        ..      BCS      0x33c6 ; readDHTMarker + 234
        0x000033c2:    2004        .       MOVS     r0,#4
        0x000033c4:    e7a1        ..      B        0x330a ; readDHTMarker + 46
        0x000033c6:    1a20         .      SUBS     r0,r4,r0
        0x000033c8:    b284        ..      UXTH     r4,r0
        0x000033ca:    a808        ..      ADD      r0,sp,#0x20
        0x000033cc:    4684        .F      MOV      r12,r0
        0x000033ce:    2000        .       MOVS     r0,#0
        0x000033d0:    9904        ..      LDR      r1,[sp,#0x10]
        0x000033d2:    4605        .F      MOV      r5,r0
        0x000033d4:    4602        .F      MOV      r2,r0
        0x000033d6:    4663        cF      MOV      r3,r12
        0x000033d8:    5c1b        .\      LDRB     r3,[r3,r0]
        0x000033da:    2b00        .+      CMP      r3,#0
        0x000033dc:    d016        ..      BEQ      0x340c ; readDHTMarker + 304
        0x000033de:    0046        F.      LSLS     r6,r0,#1
        0x000033e0:    538a        .S      STRH     r2,[r1,r6]
        0x000033e2:    18d7        ..      ADDS     r7,r2,r3
        0x000033e4:    1e7a        z.      SUBS     r2,r7,#1
        0x000033e6:    1876        v.      ADDS     r6,r6,r1
        0x000033e8:    8432        2.      STRH     r2,[r6,#0x20]
        0x000033ea:    180a        ..      ADDS     r2,r1,r0
        0x000033ec:    3240        @2      ADDS     r2,r2,#0x40
        0x000033ee:    7015        .p      STRB     r5,[r2,#0]
        0x000033f0:    18ea        ..      ADDS     r2,r5,r3
        0x000033f2:    b2d5        ..      UXTB     r5,r2
        0x000033f4:    b2ba        ..      UXTH     r2,r7
        0x000033f6:    0452        R.      LSLS     r2,r2,#17
        0x000033f8:    1c40        @.      ADDS     r0,r0,#1
        0x000033fa:    0c12        ..      LSRS     r2,r2,#16
        0x000033fc:    b2c0        ..      UXTB     r0,r0
        0x000033fe:    280f        .(      CMP      r0,#0xf
        0x00003400:    d9e9        ..      BLS      0x33d6 ; readDHTMarker + 250
        0x00003402:    2c00        .,      CMP      r4,#0
        0x00003404:    d000        ..      BEQ      0x3408 ; readDHTMarker + 300
        0x00003406:    e773        s.      B        0x32f0 ; readDHTMarker + 20
        0x00003408:    2000        .       MOVS     r0,#0
        0x0000340a:    e77e        ~.      B        0x330a ; readDHTMarker + 46
        0x0000340c:    2300        .#      MOVS     r3,#0
        0x0000340e:    0046        F.      LSLS     r6,r0,#1
        0x00003410:    538b        .S      STRH     r3,[r1,r6]
        0x00003412:    1e5f        _.      SUBS     r7,r3,#1
        0x00003414:    1876        v.      ADDS     r6,r6,r1
        0x00003416:    8437        7.      STRH     r7,[r6,#0x20]
        0x00003418:    180e        ..      ADDS     r6,r1,r0
        0x0000341a:    3640        @6      ADDS     r6,r6,#0x40
        0x0000341c:    7033        3p      STRB     r3,[r6,#0]
        0x0000341e:    e7ea        ..      B        0x33f6 ; readDHTMarker + 282
    $d
        0x00003420:    1ffff058    X...    DCD    536866904
        0x00003424:    1ffffb2c    ,...    DCD    536869676
        0x00003428:    1ffffd3c    <...    DCD    536870204
        0x0000342c:    1ffffc3c    <...    DCD    536869948
    $t
    i.readDQTMarker
    readDQTMarker
        0x00003430:    b5f8        ..      PUSH     {r3-r7,lr}
        0x00003432:    2010        .       MOVS     r0,#0x10
        0x00003434:    f7fefe66    ..f.    BL       getBits1 ; 0x2104
        0x00003438:    2802        .(      CMP      r0,#2
        0x0000343a:    d201        ..      BCS      0x3440 ; readDQTMarker + 16
        0x0000343c:    2005        .       MOVS     r0,#5
        0x0000343e:    bdf8        ..      POP      {r3-r7,pc}
        0x00003440:    1e80        ..      SUBS     r0,r0,#2
        0x00003442:    e04d        M.      B        0x34e0 ; readDQTMarker + 176
        0x00003444:    2008        .       MOVS     r0,#8
        0x00003446:    f7fefe5d    ..].    BL       getBits1 ; 0x2104
        0x0000344a:    b2c0        ..      UXTB     r0,r0
        0x0000344c:    0707        ..      LSLS     r7,r0,#28
        0x0000344e:    0906        ..      LSRS     r6,r0,#4
        0x00003450:    0f3f        ?.      LSRS     r7,r7,#28
        0x00003452:    2f01        ./      CMP      r7,#1
        0x00003454:    d901        ..      BLS      0x345a ; readDQTMarker + 42
        0x00003456:    2006        .       MOVS     r0,#6
        0x00003458:    bdf8        ..      POP      {r3-r7,pc}
        0x0000345a:    2f00        ./      CMP      r7,#0
        0x0000345c:    d001        ..      BEQ      0x3462 ; readDQTMarker + 50
        0x0000345e:    2002        .       MOVS     r0,#2
        0x00003460:    e000        ..      B        0x3464 ; readDQTMarker + 52
        0x00003462:    2001        .       MOVS     r0,#1
        0x00003464:    4921        !I      LDR      r1,[pc,#132] ; [0x34ec] = 0x1ffff058
        0x00003466:    784a        Jx      LDRB     r2,[r1,#1]
        0x00003468:    4310        .C      ORRS     r0,r0,r2
        0x0000346a:    7048        Hp      STRB     r0,[r1,#1]
        0x0000346c:    2500        .%      MOVS     r5,#0
        0x0000346e:    2008        .       MOVS     r0,#8
        0x00003470:    f7fefe48    ..H.    BL       getBits1 ; 0x2104
        0x00003474:    4604        .F      MOV      r4,r0
        0x00003476:    2e00        ..      CMP      r6,#0
        0x00003478:    d005        ..      BEQ      0x3486 ; readDQTMarker + 86
        0x0000347a:    2008        .       MOVS     r0,#8
        0x0000347c:    f7fefe42    ..B.    BL       getBits1 ; 0x2104
        0x00003480:    0221        !.      LSLS     r1,r4,#8
        0x00003482:    1840        @.      ADDS     r0,r0,r1
        0x00003484:    b284        ..      UXTH     r4,r0
        0x00003486:    2f00        ./      CMP      r7,#0
        0x00003488:    d002        ..      BEQ      0x3490 ; readDQTMarker + 96
        0x0000348a:    0069        i.      LSLS     r1,r5,#1
        0x0000348c:    4818        .H      LDR      r0,[pc,#96] ; [0x34f0] = 0x1ffffaac
        0x0000348e:    e002        ..      B        0x3496 ; readDQTMarker + 102
        0x00003490:    4817        .H      LDR      r0,[pc,#92] ; [0x34f0] = 0x1ffffaac
        0x00003492:    0069        i.      LSLS     r1,r5,#1
        0x00003494:    3880        .8      SUBS     r0,r0,#0x80
        0x00003496:    1c6d        m.      ADDS     r5,r5,#1
        0x00003498:    b2ed        ..      UXTB     r5,r5
        0x0000349a:    5244        DR      STRH     r4,[r0,r1]
        0x0000349c:    2d40        @-      CMP      r5,#0x40
        0x0000349e:    d3e6        ..      BCC      0x346e ; readDQTMarker + 62
        0x000034a0:    2f00        ./      CMP      r7,#0
        0x000034a2:    d001        ..      BEQ      0x34a8 ; readDQTMarker + 120
        0x000034a4:    4a12        .J      LDR      r2,[pc,#72] ; [0x34f0] = 0x1ffffaac
        0x000034a6:    e001        ..      B        0x34ac ; readDQTMarker + 124
        0x000034a8:    4a11        .J      LDR      r2,[pc,#68] ; [0x34f0] = 0x1ffffaac
        0x000034aa:    3a80        .:      SUBS     r2,r2,#0x80
        0x000034ac:    2000        .       MOVS     r0,#0
        0x000034ae:    4d11        .M      LDR      r5,[pc,#68] ; [0x34f4] = 0x5d81
        0x000034b0:    2701        .'      MOVS     r7,#1
        0x000034b2:    03ff        ..      LSLS     r7,r7,#15
        0x000034b4:    0043        C.      LSLS     r3,r0,#1
        0x000034b6:    5c29        )\      LDRB     r1,[r5,r0]
        0x000034b8:    5ed4        .^      LDRSH    r4,[r2,r3]
        0x000034ba:    1c40        @.      ADDS     r0,r0,#1
        0x000034bc:    4361        aC      MULS     r1,r4,r1
        0x000034be:    0349        I.      LSLS     r1,r1,#13
        0x000034c0:    19c9        ..      ADDS     r1,r1,r7
        0x000034c2:    1409        ..      ASRS     r1,r1,#16
        0x000034c4:    b2c0        ..      UXTB     r0,r0
        0x000034c6:    52d1        .R      STRH     r1,[r2,r3]
        0x000034c8:    2840        @(      CMP      r0,#0x40
        0x000034ca:    d3f3        ..      BCC      0x34b4 ; readDQTMarker + 132
        0x000034cc:    2041        A       MOVS     r0,#0x41
        0x000034ce:    2e00        ..      CMP      r6,#0
        0x000034d0:    d000        ..      BEQ      0x34d4 ; readDQTMarker + 164
        0x000034d2:    2081        .       MOVS     r0,#0x81
        0x000034d4:    9900        ..      LDR      r1,[sp,#0]
        0x000034d6:    4281        .B      CMP      r1,r0
        0x000034d8:    d201        ..      BCS      0x34de ; readDQTMarker + 174
        0x000034da:    2015        .       MOVS     r0,#0x15
        0x000034dc:    bdf8        ..      POP      {r3-r7,pc}
        0x000034de:    1a08        ..      SUBS     r0,r1,r0
        0x000034e0:    0400        ..      LSLS     r0,r0,#16
        0x000034e2:    0c00        ..      LSRS     r0,r0,#16
        0x000034e4:    9000        ..      STR      r0,[sp,#0]
        0x000034e6:    d1ad        ..      BNE      0x3444 ; readDQTMarker + 20
        0x000034e8:    bdf8        ..      POP      {r3-r7,pc}
    $d
        0x000034ea:    0000        ..      DCW    0
        0x000034ec:    1ffff058    X...    DCD    536866904
        0x000034f0:    1ffffaac    ....    DCD    536869548
        0x000034f4:    00005d81    .]..    DCD    23937
    $t
    i.readSOFMarker
    readSOFMarker
        0x000034f8:    b5f8        ..      PUSH     {r3-r7,lr}
        0x000034fa:    2010        .       MOVS     r0,#0x10
        0x000034fc:    f7fefe02    ....    BL       getBits1 ; 0x2104
        0x00003500:    4604        .F      MOV      r4,r0
        0x00003502:    2008        .       MOVS     r0,#8
        0x00003504:    f7fefdfe    ....    BL       getBits1 ; 0x2104
        0x00003508:    2808        .(      CMP      r0,#8
        0x0000350a:    d001        ..      BEQ      0x3510 ; readSOFMarker + 24
        0x0000350c:    2007        .       MOVS     r0,#7
        0x0000350e:    bdf8        ..      POP      {r3-r7,pc}
        0x00003510:    2010        .       MOVS     r0,#0x10
        0x00003512:    f7fefdf7    ....    BL       getBits1 ; 0x2104
        0x00003516:    4d25        %M      LDR      r5,[pc,#148] ; [0x35ac] = 0x1ffff058
        0x00003518:    2800        .(      CMP      r0,#0
        0x0000351a:    8268        h.      STRH     r0,[r5,#0x12]
        0x0000351c:    d003        ..      BEQ      0x3526 ; readSOFMarker + 46
        0x0000351e:    2601        .&      MOVS     r6,#1
        0x00003520:    03b6        ..      LSLS     r6,r6,#14
        0x00003522:    42b0        .B      CMP      r0,r6
        0x00003524:    d901        ..      BLS      0x352a ; readSOFMarker + 50
        0x00003526:    2008        .       MOVS     r0,#8
        0x00003528:    bdf8        ..      POP      {r3-r7,pc}
        0x0000352a:    2010        .       MOVS     r0,#0x10
        0x0000352c:    f7fefdea    ....    BL       getBits1 ; 0x2104
        0x00003530:    8228        (.      STRH     r0,[r5,#0x10]
        0x00003532:    2800        .(      CMP      r0,#0
        0x00003534:    d001        ..      BEQ      0x353a ; readSOFMarker + 66
        0x00003536:    42b0        .B      CMP      r0,r6
        0x00003538:    d901        ..      BLS      0x353e ; readSOFMarker + 70
        0x0000353a:    2009        .       MOVS     r0,#9
        0x0000353c:    bdf8        ..      POP      {r3-r7,pc}
        0x0000353e:    2008        .       MOVS     r0,#8
        0x00003540:    f7fefde0    ....    BL       getBits1 ; 0x2104
        0x00003544:    b2c0        ..      UXTB     r0,r0
        0x00003546:    71a8        .q      STRB     r0,[r5,#6]
        0x00003548:    2803        .(      CMP      r0,#3
        0x0000354a:    d901        ..      BLS      0x3550 ; readSOFMarker + 88
        0x0000354c:    200a        .       MOVS     r0,#0xa
        0x0000354e:    bdf8        ..      POP      {r3-r7,pc}
        0x00003550:    0041        A.      LSLS     r1,r0,#1
        0x00003552:    1808        ..      ADDS     r0,r1,r0
        0x00003554:    3008        .0      ADDS     r0,r0,#8
        0x00003556:    42a0        .B      CMP      r0,r4
        0x00003558:    d001        ..      BEQ      0x355e ; readSOFMarker + 102
        0x0000355a:    200b        .       MOVS     r0,#0xb
        0x0000355c:    bdf8        ..      POP      {r3-r7,pc}
        0x0000355e:    4f13        .O      LDR      r7,[pc,#76] ; [0x35ac] = 0x1ffff058
        0x00003560:    2400        .$      MOVS     r4,#0
        0x00003562:    3720         7      ADDS     r7,r7,#0x20
        0x00003564:    463e        >F      MOV      r6,r7
        0x00003566:    3609        .6      ADDS     r6,r6,#9
        0x00003568:    e01a        ..      B        0x35a0 ; readSOFMarker + 168
        0x0000356a:    2008        .       MOVS     r0,#8
        0x0000356c:    f7fefdca    ....    BL       getBits1 ; 0x2104
        0x00003570:    5538        8U      STRB     r0,[r7,r4]
        0x00003572:    2004        .       MOVS     r0,#4
        0x00003574:    f7fefdc6    ....    BL       getBits1 ; 0x2104
        0x00003578:    490c        .I      LDR      r1,[pc,#48] ; [0x35ac] = 0x1ffff058
        0x0000357a:    3123        #1      ADDS     r1,r1,#0x23
        0x0000357c:    5508        .U      STRB     r0,[r1,r4]
        0x0000357e:    2004        .       MOVS     r0,#4
        0x00003580:    f7fefdc0    ....    BL       getBits1 ; 0x2104
        0x00003584:    4909        .I      LDR      r1,[pc,#36] ; [0x35ac] = 0x1ffff058
        0x00003586:    3126        &1      ADDS     r1,r1,#0x26
        0x00003588:    5508        .U      STRB     r0,[r1,r4]
        0x0000358a:    2008        .       MOVS     r0,#8
        0x0000358c:    f7fefdba    ....    BL       getBits1 ; 0x2104
        0x00003590:    b2c0        ..      UXTB     r0,r0
        0x00003592:    5530        0U      STRB     r0,[r6,r4]
        0x00003594:    2801        .(      CMP      r0,#1
        0x00003596:    d901        ..      BLS      0x359c ; readSOFMarker + 164
        0x00003598:    2024        $       MOVS     r0,#0x24
        0x0000359a:    bdf8        ..      POP      {r3-r7,pc}
        0x0000359c:    1c64        d.      ADDS     r4,r4,#1
        0x0000359e:    b2e4        ..      UXTB     r4,r4
        0x000035a0:    79a8        .y      LDRB     r0,[r5,#6]
        0x000035a2:    4284        .B      CMP      r4,r0
        0x000035a4:    d3e1        ..      BCC      0x356a ; readSOFMarker + 114
        0x000035a6:    2000        .       MOVS     r0,#0
        0x000035a8:    bdf8        ..      POP      {r3-r7,pc}
    $d
        0x000035aa:    0000        ..      DCW    0
        0x000035ac:    1ffff058    X...    DCD    536866904
    $t
    i.readSOSMarker
    readSOSMarker
        0x000035b0:    b5f8        ..      PUSH     {r3-r7,lr}
        0x000035b2:    2010        .       MOVS     r0,#0x10
        0x000035b4:    f7fefda6    ....    BL       getBits1 ; 0x2104
        0x000035b8:    4605        .F      MOV      r5,r0
        0x000035ba:    2008        .       MOVS     r0,#8
        0x000035bc:    f7fefda2    ....    BL       getBits1 ; 0x2104
        0x000035c0:    b2c1        ..      UXTB     r1,r0
        0x000035c2:    1ee8        ..      SUBS     r0,r5,#3
        0x000035c4:    b285        ..      UXTH     r5,r0
        0x000035c6:    4c28        (L      LDR      r4,[pc,#160] ; [0x3668] = 0x1ffff058
        0x000035c8:    0048        H.      LSLS     r0,r1,#1
        0x000035ca:    1cc0        ..      ADDS     r0,r0,#3
        0x000035cc:    71e1        .q      STRB     r1,[r4,#7]
        0x000035ce:    42a8        .B      CMP      r0,r5
        0x000035d0:    d103        ..      BNE      0x35da ; readSOSMarker + 42
        0x000035d2:    2900        .)      CMP      r1,#0
        0x000035d4:    d001        ..      BEQ      0x35da ; readSOSMarker + 42
        0x000035d6:    2903        .)      CMP      r1,#3
        0x000035d8:    d901        ..      BLS      0x35de ; readSOSMarker + 46
        0x000035da:    200e        .       MOVS     r0,#0xe
        0x000035dc:    bdf8        ..      POP      {r3-r7,pc}
        0x000035de:    2600        .&      MOVS     r6,#0
        0x000035e0:    e026        &.      B        0x3630 ; readSOSMarker + 128
        0x000035e2:    2008        .       MOVS     r0,#8
        0x000035e4:    f7fefd8e    ....    BL       getBits1 ; 0x2104
        0x000035e8:    b2c7        ..      UXTB     r7,r0
        0x000035ea:    2008        .       MOVS     r0,#8
        0x000035ec:    f7fefd8a    ....    BL       getBits1 ; 0x2104
        0x000035f0:    1ead        ..      SUBS     r5,r5,#2
        0x000035f2:    b2c3        ..      UXTB     r3,r0
        0x000035f4:    b2ad        ..      UXTH     r5,r5
        0x000035f6:    2000        .       MOVS     r0,#0
        0x000035f8:    79a1        .y      LDRB     r1,[r4,#6]
        0x000035fa:    e006        ..      B        0x360a ; readSOSMarker + 90
        0x000035fc:    4a1a        .J      LDR      r2,[pc,#104] ; [0x3668] = 0x1ffff058
        0x000035fe:    3220         2      ADDS     r2,r2,#0x20
        0x00003600:    5c12        .\      LDRB     r2,[r2,r0]
        0x00003602:    42ba        .B      CMP      r2,r7
        0x00003604:    d003        ..      BEQ      0x360e ; readSOSMarker + 94
        0x00003606:    1c40        @.      ADDS     r0,r0,#1
        0x00003608:    b2c0        ..      UXTB     r0,r0
        0x0000360a:    4288        .B      CMP      r0,r1
        0x0000360c:    d3f6        ..      BCC      0x35fc ; readSOSMarker + 76
        0x0000360e:    4288        .B      CMP      r0,r1
        0x00003610:    d301        ..      BCC      0x3616 ; readSOSMarker + 102
        0x00003612:    200f        .       MOVS     r0,#0xf
        0x00003614:    bdf8        ..      POP      {r3-r7,pc}
        0x00003616:    4914        .I      LDR      r1,[pc,#80] ; [0x3668] = 0x1ffff058
        0x00003618:    4a13        .J      LDR      r2,[pc,#76] ; [0x3668] = 0x1ffff058
        0x0000361a:    312c        ,1      ADDS     r1,r1,#0x2c
        0x0000361c:    5588        .U      STRB     r0,[r1,r6]
        0x0000361e:    0919        ..      LSRS     r1,r3,#4
        0x00003620:    322f        /2      ADDS     r2,r2,#0x2f
        0x00003622:    5411        .T      STRB     r1,[r2,r0]
        0x00003624:    0719        ..      LSLS     r1,r3,#28
        0x00003626:    0f09        ..      LSRS     r1,r1,#28
        0x00003628:    1cd2        ..      ADDS     r2,r2,#3
        0x0000362a:    1c76        v.      ADDS     r6,r6,#1
        0x0000362c:    5411        .T      STRB     r1,[r2,r0]
        0x0000362e:    b2f6        ..      UXTB     r6,r6
        0x00003630:    79e0        .y      LDRB     r0,[r4,#7]
        0x00003632:    4286        .B      CMP      r6,r0
        0x00003634:    d3d5        ..      BCC      0x35e2 ; readSOSMarker + 50
        0x00003636:    2008        .       MOVS     r0,#8
        0x00003638:    f7fefd64    ..d.    BL       getBits1 ; 0x2104
        0x0000363c:    2008        .       MOVS     r0,#8
        0x0000363e:    f7fefd61    ..a.    BL       getBits1 ; 0x2104
        0x00003642:    2004        .       MOVS     r0,#4
        0x00003644:    f7fefd5e    ..^.    BL       getBits1 ; 0x2104
        0x00003648:    2004        .       MOVS     r0,#4
        0x0000364a:    f7fefd5b    ..[.    BL       getBits1 ; 0x2104
        0x0000364e:    1eed        ..      SUBS     r5,r5,#3
        0x00003650:    b2ac        ..      UXTH     r4,r5
        0x00003652:    e004        ..      B        0x365e ; readSOSMarker + 174
        0x00003654:    2008        .       MOVS     r0,#8
        0x00003656:    f7fefd55    ..U.    BL       getBits1 ; 0x2104
        0x0000365a:    1e64        d.      SUBS     r4,r4,#1
        0x0000365c:    b2a4        ..      UXTH     r4,r4
        0x0000365e:    2c00        .,      CMP      r4,#0
        0x00003660:    d1f8        ..      BNE      0x3654 ; readSOSMarker + 164
        0x00003662:    2000        .       MOVS     r0,#0
        0x00003664:    bdf8        ..      POP      {r3-r7,pc}
    $d
        0x00003666:    0000        ..      DCW    0
        0x00003668:    1ffff058    X...    DCD    536866904
    $t
    i.stuffChar
    stuffChar
        0x0000366c:    4905        .I      LDR      r1,[pc,#20] ; [0x3684] = 0x1ffff058
        0x0000366e:    4b06        .K      LDR      r3,[pc,#24] ; [0x3688] = 0x1ffffe8c
        0x00003670:    78ca        .x      LDRB     r2,[r1,#3]
        0x00003672:    1e52        R.      SUBS     r2,r2,#1
        0x00003674:    b2d2        ..      UXTB     r2,r2
        0x00003676:    70ca        .p      STRB     r2,[r1,#3]
        0x00003678:    5498        .T      STRB     r0,[r3,r2]
        0x0000367a:    7908        .y      LDRB     r0,[r1,#4]
        0x0000367c:    1c40        @.      ADDS     r0,r0,#1
        0x0000367e:    7108        .q      STRB     r0,[r1,#4]
        0x00003680:    4770        pG      BX       lr
    $d
        0x00003682:    0000        ..      DCW    0
        0x00003684:    1ffff058    X...    DCD    536866904
        0x00003688:    1ffffe8c    ....    DCD    536870540
    $t
    i.subAndClamp
    subAndClamp
        0x0000368c:    1a40        @.      SUBS     r0,r0,r1
        0x0000368e:    b200        ..      SXTH     r0,r0
        0x00003690:    b281        ..      UXTH     r1,r0
        0x00003692:    29ff        .)      CMP      r1,#0xff
        0x00003694:    d907        ..      BLS      0x36a6 ; subAndClamp + 26
        0x00003696:    2800        .(      CMP      r0,#0
        0x00003698:    da01        ..      BGE      0x369e ; subAndClamp + 18
        0x0000369a:    2000        .       MOVS     r0,#0
        0x0000369c:    4770        pG      BX       lr
        0x0000369e:    28ff        .(      CMP      r0,#0xff
        0x000036a0:    dd01        ..      BLE      0x36a6 ; subAndClamp + 26
        0x000036a2:    20ff        .       MOVS     r0,#0xff
        0x000036a4:    4770        pG      BX       lr
        0x000036a6:    b2c0        ..      UXTB     r0,r0
        0x000036a8:    4770        pG      BX       lr
        0x000036aa:    0000        ..      MOVS     r0,r0
    i.transformBlock
    transformBlock
    __tagsym$$noinline
        0x000036ac:    b510        ..      PUSH     {r4,lr}
        0x000036ae:    4604        .F      MOV      r4,r0
        0x000036b0:    f7feff62    ..b.    BL       idctRows ; 0x2578
        0x000036b4:    f7fefe8c    ....    BL       idctCols ; 0x23d0
        0x000036b8:    483f        ?H      LDR      r0,[pc,#252] ; [0x37b8] = 0x1ffff058
        0x000036ba:    7a00        .z      LDRB     r0,[r0,#8]
        0x000036bc:    0003        ..      MOVS     r3,r0
        0x000036be:    f7fdff51    ..Q.    BL       __ARM_common_switch8 ; 0x1564
    $d
        0x000036c2:    5105        .Q      DCW    20741
        0x000036c4:    49122f04    ./.I    DCD    1225928452
        0x000036c8:    000d        ..      DCW    13
    $t
        0x000036ca:    2c00        .,      CMP      r4,#0
        0x000036cc:    d04a        J.      BEQ      0x3764 ; transformBlock + 184
        0x000036ce:    2c01        .,      CMP      r4,#1
        0x000036d0:    d005        ..      BEQ      0x36de ; transformBlock + 50
        0x000036d2:    2c02        .,      CMP      r4,#2
        0x000036d4:    d102        ..      BNE      0x36dc ; transformBlock + 48
        0x000036d6:    2000        .       MOVS     r0,#0
        0x000036d8:    f7fefa5a    ..Z.    BL       convertCr ; 0x1b90
        0x000036dc:    bd10        ..      POP      {r4,pc}
        0x000036de:    2000        .       MOVS     r0,#0
        0x000036e0:    f7fefa2c    ..,.    BL       convertCb ; 0x1b3c
        0x000036e4:    bd10        ..      POP      {r4,pc}
        0x000036e6:    2c00        .,      CMP      r4,#0
        0x000036e8:    d03c        <.      BEQ      0x3764 ; transformBlock + 184
        0x000036ea:    2c01        .,      CMP      r4,#1
        0x000036ec:    d03e        >.      BEQ      0x376c ; transformBlock + 192
        0x000036ee:    2c02        .,      CMP      r4,#2
        0x000036f0:    d00d        ..      BEQ      0x370e ; transformBlock + 98
        0x000036f2:    2c03        .,      CMP      r4,#3
        0x000036f4:    d1f6        ..      BNE      0x36e4 ; transformBlock + 56
        0x000036f6:    2100        .!      MOVS     r1,#0
        0x000036f8:    4608        .F      MOV      r0,r1
        0x000036fa:    f000fb79    ..y.    BL       upsampleCrV ; 0x3df0
        0x000036fe:    2180        .!      MOVS     r1,#0x80
        0x00003700:    2020                MOVS     r0,#0x20
        0x00003702:    f000fb75    ..u.    BL       upsampleCrV ; 0x3df0
        0x00003706:    bd10        ..      POP      {r4,pc}
        0x00003708:    f7fefa6a    ..j.    BL       copyY ; 0x1be0
        0x0000370c:    bd10        ..      POP      {r4,pc}
        0x0000370e:    2100        .!      MOVS     r1,#0
        0x00003710:    4608        .F      MOV      r0,r1
        0x00003712:    f000fa91    ....    BL       upsampleCbV ; 0x3c38
        0x00003716:    2180        .!      MOVS     r1,#0x80
        0x00003718:    2020                MOVS     r0,#0x20
        0x0000371a:    f000fa8d    ....    BL       upsampleCbV ; 0x3c38
        0x0000371e:    bd10        ..      POP      {r4,pc}
        0x00003720:    2c00        .,      CMP      r4,#0
        0x00003722:    d01f        ..      BEQ      0x3764 ; transformBlock + 184
        0x00003724:    2c01        .,      CMP      r4,#1
        0x00003726:    d01f        ..      BEQ      0x3768 ; transformBlock + 188
        0x00003728:    2c02        .,      CMP      r4,#2
        0x0000372a:    d00a        ..      BEQ      0x3742 ; transformBlock + 150
        0x0000372c:    2c03        .,      CMP      r4,#3
        0x0000372e:    d1f6        ..      BNE      0x371e ; transformBlock + 114
        0x00003730:    2100        .!      MOVS     r1,#0
        0x00003732:    4608        .F      MOV      r0,r1
        0x00003734:    f000fb1a    ....    BL       upsampleCrH ; 0x3d6c
        0x00003738:    2140        @!      MOVS     r1,#0x40
        0x0000373a:    2004        .       MOVS     r0,#4
        0x0000373c:    f000fb16    ....    BL       upsampleCrH ; 0x3d6c
        0x00003740:    bd10        ..      POP      {r4,pc}
        0x00003742:    2100        .!      MOVS     r1,#0
        0x00003744:    4608        .F      MOV      r0,r1
        0x00003746:    f000fa33    ..3.    BL       upsampleCbH ; 0x3bb0
        0x0000374a:    2140        @!      MOVS     r1,#0x40
        0x0000374c:    2004        .       MOVS     r0,#4
        0x0000374e:    f000fa2f    ../.    BL       upsampleCbH ; 0x3bb0
        0x00003752:    bd10        ..      POP      {r4,pc}
        0x00003754:    0023        #.      MOVS     r3,r4
        0x00003756:    f7fdff05    ....    BL       __ARM_common_switch8 ; 0x1564
    $d
        0x0000375a:    0506        ..      DCW    1286
        0x0000375c:    0d0b0907    ....    DCD    218827015
        0x00003760:    041e        ..      DCW    1054
    $t
        0x00003762:    e7f6        ..      B        0x3752 ; transformBlock + 166
        0x00003764:    2000        .       MOVS     r0,#0
        0x00003766:    e7cf        ..      B        0x3708 ; transformBlock + 92
        0x00003768:    2040        @       MOVS     r0,#0x40
        0x0000376a:    e7cd        ..      B        0x3708 ; transformBlock + 92
        0x0000376c:    2080        .       MOVS     r0,#0x80
        0x0000376e:    e7cb        ..      B        0x3708 ; transformBlock + 92
        0x00003770:    20c0        .       MOVS     r0,#0xc0
        0x00003772:    e7c9        ..      B        0x3708 ; transformBlock + 92
        0x00003774:    2100        .!      MOVS     r1,#0
        0x00003776:    4608        .F      MOV      r0,r1
        0x00003778:    f000f9c2    ....    BL       upsampleCb ; 0x3b00
        0x0000377c:    2140        @!      MOVS     r1,#0x40
        0x0000377e:    2004        .       MOVS     r0,#4
        0x00003780:    f000f9be    ....    BL       upsampleCb ; 0x3b00
        0x00003784:    2180        .!      MOVS     r1,#0x80
        0x00003786:    2020                MOVS     r0,#0x20
        0x00003788:    f000f9ba    ....    BL       upsampleCb ; 0x3b00
        0x0000378c:    21c0        .!      MOVS     r1,#0xc0
        0x0000378e:    2024        $       MOVS     r0,#0x24
        0x00003790:    f000f9b6    ....    BL       upsampleCb ; 0x3b00
        0x00003794:    bd10        ..      POP      {r4,pc}
        0x00003796:    2100        .!      MOVS     r1,#0
        0x00003798:    4608        .F      MOV      r0,r1
        0x0000379a:    f000fa91    ....    BL       upsampleCr ; 0x3cc0
        0x0000379e:    2140        @!      MOVS     r1,#0x40
        0x000037a0:    2004        .       MOVS     r0,#4
        0x000037a2:    f000fa8d    ....    BL       upsampleCr ; 0x3cc0
        0x000037a6:    2180        .!      MOVS     r1,#0x80
        0x000037a8:    2020                MOVS     r0,#0x20
        0x000037aa:    f000fa89    ....    BL       upsampleCr ; 0x3cc0
        0x000037ae:    21c0        .!      MOVS     r1,#0xc0
        0x000037b0:    2024        $       MOVS     r0,#0x24
        0x000037b2:    f000fa85    ....    BL       upsampleCr ; 0x3cc0
        0x000037b6:    bd10        ..      POP      {r4,pc}
    $d
        0x000037b8:    1ffff058    X...    DCD    536866904
    $t
    i.transformBlockReduce
    transformBlockReduce
    __tagsym$$noinline
        0x000037bc:    b5f1        ..      PUSH     {r0,r4-r7,lr}
        0x000037be:    49cc        .I      LDR      r1,[pc,#816] ; [0x3af0] = 0x1ffff6ac
        0x000037c0:    2000        .       MOVS     r0,#0
        0x000037c2:    5e08        .^      LDRSH    r0,[r1,r0]
        0x000037c4:    b088        ..      SUB      sp,sp,#0x20
        0x000037c6:    3040        @0      ADDS     r0,r0,#0x40
        0x000037c8:    09c0        ..      LSRS     r0,r0,#7
        0x000037ca:    3080        .0      ADDS     r0,r0,#0x80
        0x000037cc:    b200        ..      SXTH     r0,r0
        0x000037ce:    f7fef997    ....    BL       clamp ; 0x1b00
        0x000037d2:    4ac7        .J      LDR      r2,[pc,#796] ; [0x3af0] = 0x1ffff6ac
        0x000037d4:    4604        .F      MOV      r4,r0
        0x000037d6:    3280        .2      ADDS     r2,r2,#0x80
        0x000037d8:    48c6        .H      LDR      r0,[pc,#792] ; [0x3af4] = 0x1ffff058
        0x000037da:    1dd7        ..      ADDS     r7,r2,#7
        0x000037dc:    7a01        .z      LDRB     r1,[r0,#8]
        0x000037de:    4610        .F      MOV      r0,r2
        0x000037e0:    3040        @0      ADDS     r0,r0,#0x40
        0x000037e2:    9004        ..      STR      r0,[sp,#0x10]
        0x000037e4:    48c4        .H      LDR      r0,[pc,#784] ; [0x3af8] = 0x1ffff96c
        0x000037e6:    9003        ..      STR      r0,[sp,#0xc]
        0x000037e8:    4610        .F      MOV      r0,r2
        0x000037ea:    3080        .0      ADDS     r0,r0,#0x80
        0x000037ec:    37f9        .7      ADDS     r7,r7,#0xf9
        0x000037ee:    9001        ..      STR      r0,[sp,#4]
        0x000037f0:    48c1        .H      LDR      r0,[pc,#772] ; [0x3af8] = 0x1ffff96c
        0x000037f2:    463e        >F      MOV      r6,r7
        0x000037f4:    3040        @0      ADDS     r0,r0,#0x40
        0x000037f6:    463d        =F      MOV      r5,r7
        0x000037f8:    3640        @6      ADDS     r6,r6,#0x40
        0x000037fa:    3580        .5      ADDS     r5,r5,#0x80
        0x000037fc:    9000        ..      STR      r0,[sp,#0]
        0x000037fe:    000b        ..      MOVS     r3,r1
        0x00003800:    f7fdfeb0    ....    BL       __ARM_common_switch8 ; 0x1564
    $d
        0x00003804:    86070405    ....    DCD    2248606725
        0x00003808:    0005d635    5...    DCD    382517
    $t
        0x0000380c:    7014        .p      STRB     r4,[r2,#0]
        0x0000380e:    b009        ..      ADD      sp,sp,#0x24
        0x00003810:    bdf0        ..      POP      {r4-r7,pc}
        0x00003812:    9808        ..      LDR      r0,[sp,#0x20]
        0x00003814:    2800        .(      CMP      r0,#0
        0x00003816:    d07a        z.      BEQ      0x390e ; transformBlockReduce + 338
        0x00003818:    2801        .(      CMP      r0,#1
        0x0000381a:    d014        ..      BEQ      0x3846 ; transformBlockReduce + 138
        0x0000381c:    2802        .(      CMP      r0,#2
        0x0000381e:    d1f6        ..      BNE      0x380e ; transformBlockReduce + 82
        0x00003820:    2067        g       MOVS     r0,#0x67
        0x00003822:    4360        `C      MULS     r0,r4,r0
        0x00003824:    0a00        ..      LSRS     r0,r0,#8
        0x00003826:    1901        ..      ADDS     r1,r0,r4
        0x00003828:    4615        .F      MOV      r5,r2
        0x0000382a:    7810        .x      LDRB     r0,[r2,#0]
        0x0000382c:    39b3        .9      SUBS     r1,r1,#0xb3
        0x0000382e:    f7fef92d    ..-.    BL       addAndClamp ; 0x1a8c
        0x00003832:    7028        (p      STRB     r0,[r5,#0]
        0x00003834:    20b7        .       MOVS     r0,#0xb7
        0x00003836:    4344        DC      MULS     r4,r0,r4
        0x00003838:    0a21        !.      LSRS     r1,r4,#8
        0x0000383a:    7838        8x      LDRB     r0,[r7,#0]
        0x0000383c:    395b        [9      SUBS     r1,r1,#0x5b
        0x0000383e:    f7ffff25    ..%.    BL       subAndClamp ; 0x368c
        0x00003842:    7038        8p      STRB     r0,[r7,#0]
        0x00003844:    e7e3        ..      B        0x380e ; transformBlockReduce + 82
        0x00003846:    2058        X       MOVS     r0,#0x58
        0x00003848:    4360        `C      MULS     r0,r4,r0
        0x0000384a:    0a01        ..      LSRS     r1,r0,#8
        0x0000384c:    7838        8x      LDRB     r0,[r7,#0]
        0x0000384e:    392c        ,9      SUBS     r1,r1,#0x2c
        0x00003850:    f7ffff1c    ....    BL       subAndClamp ; 0x368c
        0x00003854:    7038        8p      STRB     r0,[r7,#0]
        0x00003856:    20c6        .       MOVS     r0,#0xc6
        0x00003858:    4360        `C      MULS     r0,r4,r0
        0x0000385a:    0a00        ..      LSRS     r0,r0,#8
        0x0000385c:    1901        ..      ADDS     r1,r0,r4
        0x0000385e:    4ca6        .L      LDR      r4,[pc,#664] ; [0x3af8] = 0x1ffff96c
        0x00003860:    39e3        .9      SUBS     r1,r1,#0xe3
        0x00003862:    3c40        @<      SUBS     r4,r4,#0x40
        0x00003864:    7820         x      LDRB     r0,[r4,#0]
        0x00003866:    f7fef911    ....    BL       addAndClamp ; 0x1a8c
        0x0000386a:    7020         p      STRB     r0,[r4,#0]
        0x0000386c:    e7cf        ..      B        0x380e ; transformBlockReduce + 82
        0x0000386e:    9808        ..      LDR      r0,[sp,#0x20]
        0x00003870:    2800        .(      CMP      r0,#0
        0x00003872:    d0d0        ..      BEQ      0x3816 ; transformBlockReduce + 90
        0x00003874:    2801        .(      CMP      r0,#1
        0x00003876:    d078        x.      BEQ      0x396a ; transformBlockReduce + 430
        0x00003878:    2802        .(      CMP      r0,#2
        0x0000387a:    d027        '.      BEQ      0x38cc ; transformBlockReduce + 272
        0x0000387c:    2803        .(      CMP      r0,#3
        0x0000387e:    d1c6        ..      BNE      0x380e ; transformBlockReduce + 82
        0x00003880:    2067        g       MOVS     r0,#0x67
        0x00003882:    4360        `C      MULS     r0,r4,r0
        0x00003884:    0a00        ..      LSRS     r0,r0,#8
        0x00003886:    1906        ..      ADDS     r6,r0,r4
        0x00003888:    4899        .H      LDR      r0,[pc,#612] ; [0x3af0] = 0x1ffff6ac
        0x0000388a:    3eb3        .>      SUBS     r6,r6,#0xb3
        0x0000388c:    3080        .0      ADDS     r0,r0,#0x80
        0x0000388e:    7800        .x      LDRB     r0,[r0,#0]
        0x00003890:    4631        1F      MOV      r1,r6
        0x00003892:    f7fef8fb    ....    BL       addAndClamp ; 0x1a8c
        0x00003896:    4996        .I      LDR      r1,[pc,#600] ; [0x3af0] = 0x1ffff6ac
        0x00003898:    3180        .1      ADDS     r1,r1,#0x80
        0x0000389a:    7008        .p      STRB     r0,[r1,#0]
        0x0000389c:    9801        ..      LDR      r0,[sp,#4]
        0x0000389e:    4631        1F      MOV      r1,r6
        0x000038a0:    7800        .x      LDRB     r0,[r0,#0]
        0x000038a2:    f7fef8f3    ....    BL       addAndClamp ; 0x1a8c
        0x000038a6:    9901        ..      LDR      r1,[sp,#4]
        0x000038a8:    7008        .p      STRB     r0,[r1,#0]
        0x000038aa:    20b7        .       MOVS     r0,#0xb7
        0x000038ac:    4344        DC      MULS     r4,r0,r4
        0x000038ae:    0a24        $.      LSRS     r4,r4,#8
        0x000038b0:    3c5b        [<      SUBS     r4,r4,#0x5b
        0x000038b2:    7838        8x      LDRB     r0,[r7,#0]
        0x000038b4:    4621        !F      MOV      r1,r4
        0x000038b6:    f7fffee9    ....    BL       subAndClamp ; 0x368c
        0x000038ba:    7038        8p      STRB     r0,[r7,#0]
        0x000038bc:    7828        (x      LDRB     r0,[r5,#0]
        0x000038be:    4621        !F      MOV      r1,r4
        0x000038c0:    f7fffee4    ....    BL       subAndClamp ; 0x368c
        0x000038c4:    7028        (p      STRB     r0,[r5,#0]
        0x000038c6:    e7a2        ..      B        0x380e ; transformBlockReduce + 82
        0x000038c8:    7004        .p      STRB     r4,[r0,#0]
        0x000038ca:    e7a0        ..      B        0x380e ; transformBlockReduce + 82
        0x000038cc:    2058        X       MOVS     r0,#0x58
        0x000038ce:    4360        `C      MULS     r0,r4,r0
        0x000038d0:    0a06        ..      LSRS     r6,r0,#8
        0x000038d2:    3e2c        ,>      SUBS     r6,r6,#0x2c
        0x000038d4:    7838        8x      LDRB     r0,[r7,#0]
        0x000038d6:    4631        1F      MOV      r1,r6
        0x000038d8:    f7fffed8    ....    BL       subAndClamp ; 0x368c
        0x000038dc:    7038        8p      STRB     r0,[r7,#0]
        0x000038de:    7828        (x      LDRB     r0,[r5,#0]
        0x000038e0:    4631        1F      MOV      r1,r6
        0x000038e2:    f7fffed3    ....    BL       subAndClamp ; 0x368c
        0x000038e6:    7028        (p      STRB     r0,[r5,#0]
        0x000038e8:    20c6        .       MOVS     r0,#0xc6
        0x000038ea:    4360        `C      MULS     r0,r4,r0
        0x000038ec:    0a00        ..      LSRS     r0,r0,#8
        0x000038ee:    1904        ..      ADDS     r4,r0,r4
        0x000038f0:    4d81        .M      LDR      r5,[pc,#516] ; [0x3af8] = 0x1ffff96c
        0x000038f2:    3ce3        .<      SUBS     r4,r4,#0xe3
        0x000038f4:    3d40        @=      SUBS     r5,r5,#0x40
        0x000038f6:    7828        (x      LDRB     r0,[r5,#0]
        0x000038f8:    4621        !F      MOV      r1,r4
        0x000038fa:    f7fef8c7    ....    BL       addAndClamp ; 0x1a8c
        0x000038fe:    7028        (p      STRB     r0,[r5,#0]
        0x00003900:    9800        ..      LDR      r0,[sp,#0]
        0x00003902:    4621        !F      MOV      r1,r4
        0x00003904:    7800        .x      LDRB     r0,[r0,#0]
        0x00003906:    f7fef8c1    ....    BL       addAndClamp ; 0x1a8c
        0x0000390a:    9900        ..      LDR      r1,[sp,#0]
        0x0000390c:    e04e        N.      B        0x39ac ; transformBlockReduce + 496
        0x0000390e:    e060        `.      B        0x39d2 ; transformBlockReduce + 534
        0x00003910:    9808        ..      LDR      r0,[sp,#0x20]
        0x00003912:    2800        .(      CMP      r0,#0
        0x00003914:    d05d        ].      BEQ      0x39d2 ; transformBlockReduce + 534
        0x00003916:    2801        .(      CMP      r0,#1
        0x00003918:    d060        `.      BEQ      0x39dc ; transformBlockReduce + 544
        0x0000391a:    2802        .(      CMP      r0,#2
        0x0000391c:    d026        &.      BEQ      0x396c ; transformBlockReduce + 432
        0x0000391e:    2803        .(      CMP      r0,#3
        0x00003920:    d190        ..      BNE      0x3844 ; transformBlockReduce + 136
        0x00003922:    2067        g       MOVS     r0,#0x67
        0x00003924:    4360        `C      MULS     r0,r4,r0
        0x00003926:    0a00        ..      LSRS     r0,r0,#8
        0x00003928:    1905        ..      ADDS     r5,r0,r4
        0x0000392a:    4871        qH      LDR      r0,[pc,#452] ; [0x3af0] = 0x1ffff6ac
        0x0000392c:    3db3        .=      SUBS     r5,r5,#0xb3
        0x0000392e:    3080        .0      ADDS     r0,r0,#0x80
        0x00003930:    7800        .x      LDRB     r0,[r0,#0]
        0x00003932:    4629        )F      MOV      r1,r5
        0x00003934:    f7fef8aa    ....    BL       addAndClamp ; 0x1a8c
        0x00003938:    496d        mI      LDR      r1,[pc,#436] ; [0x3af0] = 0x1ffff6ac
        0x0000393a:    3180        .1      ADDS     r1,r1,#0x80
        0x0000393c:    7008        .p      STRB     r0,[r1,#0]
        0x0000393e:    9804        ..      LDR      r0,[sp,#0x10]
        0x00003940:    4629        )F      MOV      r1,r5
        0x00003942:    7800        .x      LDRB     r0,[r0,#0]
        0x00003944:    f7fef8a2    ....    BL       addAndClamp ; 0x1a8c
        0x00003948:    9904        ..      LDR      r1,[sp,#0x10]
        0x0000394a:    7008        .p      STRB     r0,[r1,#0]
        0x0000394c:    20b7        .       MOVS     r0,#0xb7
        0x0000394e:    4344        DC      MULS     r4,r0,r4
        0x00003950:    0a24        $.      LSRS     r4,r4,#8
        0x00003952:    3c5b        [<      SUBS     r4,r4,#0x5b
        0x00003954:    7838        8x      LDRB     r0,[r7,#0]
        0x00003956:    4621        !F      MOV      r1,r4
        0x00003958:    f7fffe98    ....    BL       subAndClamp ; 0x368c
        0x0000395c:    7038        8p      STRB     r0,[r7,#0]
        0x0000395e:    7830        0x      LDRB     r0,[r6,#0]
        0x00003960:    4621        !F      MOV      r1,r4
        0x00003962:    f7fffe93    ....    BL       subAndClamp ; 0x368c
        0x00003966:    7030        0p      STRB     r0,[r6,#0]
        0x00003968:    e751        Q.      B        0x380e ; transformBlockReduce + 82
        0x0000396a:    e03c        <.      B        0x39e6 ; transformBlockReduce + 554
        0x0000396c:    2058        X       MOVS     r0,#0x58
        0x0000396e:    4360        `C      MULS     r0,r4,r0
        0x00003970:    0a05        ..      LSRS     r5,r0,#8
        0x00003972:    3d2c        ,=      SUBS     r5,r5,#0x2c
        0x00003974:    7838        8x      LDRB     r0,[r7,#0]
        0x00003976:    4629        )F      MOV      r1,r5
        0x00003978:    f7fffe88    ....    BL       subAndClamp ; 0x368c
        0x0000397c:    7038        8p      STRB     r0,[r7,#0]
        0x0000397e:    7830        0x      LDRB     r0,[r6,#0]
        0x00003980:    4629        )F      MOV      r1,r5
        0x00003982:    f7fffe83    ....    BL       subAndClamp ; 0x368c
        0x00003986:    7030        0p      STRB     r0,[r6,#0]
        0x00003988:    20c6        .       MOVS     r0,#0xc6
        0x0000398a:    4360        `C      MULS     r0,r4,r0
        0x0000398c:    0a00        ..      LSRS     r0,r0,#8
        0x0000398e:    1904        ..      ADDS     r4,r0,r4
        0x00003990:    4d59        YM      LDR      r5,[pc,#356] ; [0x3af8] = 0x1ffff96c
        0x00003992:    3ce3        .<      SUBS     r4,r4,#0xe3
        0x00003994:    3d40        @=      SUBS     r5,r5,#0x40
        0x00003996:    7828        (x      LDRB     r0,[r5,#0]
        0x00003998:    4621        !F      MOV      r1,r4
        0x0000399a:    f7fef877    ..w.    BL       addAndClamp ; 0x1a8c
        0x0000399e:    7028        (p      STRB     r0,[r5,#0]
        0x000039a0:    9803        ..      LDR      r0,[sp,#0xc]
        0x000039a2:    4621        !F      MOV      r1,r4
        0x000039a4:    7800        .x      LDRB     r0,[r0,#0]
        0x000039a6:    f7fef871    ..q.    BL       addAndClamp ; 0x1a8c
        0x000039aa:    9903        ..      LDR      r1,[sp,#0xc]
        0x000039ac:    7008        .p      STRB     r0,[r1,#0]
        0x000039ae:    e72e        ..      B        0x380e ; transformBlockReduce + 82
        0x000039b0:    4952        RI      LDR      r1,[pc,#328] ; [0x3afc] = 0x1ffff7ec
        0x000039b2:    9106        ..      STR      r1,[sp,#0x18]
        0x000039b4:    4950        PI      LDR      r1,[pc,#320] ; [0x3af8] = 0x1ffff96c
        0x000039b6:    9808        ..      LDR      r0,[sp,#0x20]
        0x000039b8:    3180        .1      ADDS     r1,r1,#0x80
        0x000039ba:    9105        ..      STR      r1,[sp,#0x14]
        0x000039bc:    39ff        .9      SUBS     r1,r1,#0xff
        0x000039be:    3901        .9      SUBS     r1,#1
        0x000039c0:    9102        ..      STR      r1,[sp,#8]
        0x000039c2:    0003        ..      MOVS     r3,r0
        0x000039c4:    f7fdfdce    ....    BL       __ARM_common_switch8 ; 0x1564
    $d
        0x000039c8:    0f0a0506    ....    DCD    252314886
        0x000039cc:    04551914    ..U.    DCD    72685844
    $t
        0x000039d0:    e71d        ..      B        0x380e ; transformBlockReduce + 82
        0x000039d2:    4849        IH      LDR      r0,[pc,#292] ; [0x3af8] = 0x1ffff96c
        0x000039d4:    7014        .p      STRB     r4,[r2,#0]
        0x000039d6:    703c        <p      STRB     r4,[r7,#0]
        0x000039d8:    3840        @8      SUBS     r0,r0,#0x40
        0x000039da:    e775        u.      B        0x38c8 ; transformBlockReduce + 268
        0x000039dc:    9804        ..      LDR      r0,[sp,#0x10]
        0x000039de:    7004        .p      STRB     r4,[r0,#0]
        0x000039e0:    7034        4p      STRB     r4,[r6,#0]
        0x000039e2:    9803        ..      LDR      r0,[sp,#0xc]
        0x000039e4:    e770        p.      B        0x38c8 ; transformBlockReduce + 268
        0x000039e6:    9801        ..      LDR      r0,[sp,#4]
        0x000039e8:    7004        .p      STRB     r4,[r0,#0]
        0x000039ea:    702c        ,p      STRB     r4,[r5,#0]
        0x000039ec:    9800        ..      LDR      r0,[sp,#0]
        0x000039ee:    e76b        k.      B        0x38c8 ; transformBlockReduce + 268
        0x000039f0:    9806        ..      LDR      r0,[sp,#0x18]
        0x000039f2:    7004        .p      STRB     r4,[r0,#0]
        0x000039f4:    700c        .p      STRB     r4,[r1,#0]
        0x000039f6:    9805        ..      LDR      r0,[sp,#0x14]
        0x000039f8:    e766        f.      B        0x38c8 ; transformBlockReduce + 268
        0x000039fa:    2058        X       MOVS     r0,#0x58
        0x000039fc:    4360        `C      MULS     r0,r4,r0
        0x000039fe:    0a00        ..      LSRS     r0,r0,#8
        0x00003a00:    382c        ,8      SUBS     r0,r0,#0x2c
        0x00003a02:    9001        ..      STR      r0,[sp,#4]
        0x00003a04:    7838        8x      LDRB     r0,[r7,#0]
        0x00003a06:    9901        ..      LDR      r1,[sp,#4]
        0x00003a08:    f7fffe40    ..@.    BL       subAndClamp ; 0x368c
        0x00003a0c:    7038        8p      STRB     r0,[r7,#0]
        0x00003a0e:    7830        0x      LDRB     r0,[r6,#0]
        0x00003a10:    9901        ..      LDR      r1,[sp,#4]
        0x00003a12:    f7fffe3b    ..;.    BL       subAndClamp ; 0x368c
        0x00003a16:    7030        0p      STRB     r0,[r6,#0]
        0x00003a18:    7828        (x      LDRB     r0,[r5,#0]
        0x00003a1a:    9901        ..      LDR      r1,[sp,#4]
        0x00003a1c:    f7fffe36    ..6.    BL       subAndClamp ; 0x368c
        0x00003a20:    7028        (p      STRB     r0,[r5,#0]
        0x00003a22:    9802        ..      LDR      r0,[sp,#8]
        0x00003a24:    9901        ..      LDR      r1,[sp,#4]
        0x00003a26:    7800        .x      LDRB     r0,[r0,#0]
        0x00003a28:    f7fffe30    ..0.    BL       subAndClamp ; 0x368c
        0x00003a2c:    9902        ..      LDR      r1,[sp,#8]
        0x00003a2e:    4d32        2M      LDR      r5,[pc,#200] ; [0x3af8] = 0x1ffff96c
        0x00003a30:    7008        .p      STRB     r0,[r1,#0]
        0x00003a32:    20c6        .       MOVS     r0,#0xc6
        0x00003a34:    4360        `C      MULS     r0,r4,r0
        0x00003a36:    0a00        ..      LSRS     r0,r0,#8
        0x00003a38:    1904        ..      ADDS     r4,r0,r4
        0x00003a3a:    3d40        @=      SUBS     r5,r5,#0x40
        0x00003a3c:    3ce3        .<      SUBS     r4,r4,#0xe3
        0x00003a3e:    7828        (x      LDRB     r0,[r5,#0]
        0x00003a40:    4621        !F      MOV      r1,r4
        0x00003a42:    f7fef823    ..#.    BL       addAndClamp ; 0x1a8c
        0x00003a46:    7028        (p      STRB     r0,[r5,#0]
        0x00003a48:    9803        ..      LDR      r0,[sp,#0xc]
        0x00003a4a:    4621        !F      MOV      r1,r4
        0x00003a4c:    7800        .x      LDRB     r0,[r0,#0]
        0x00003a4e:    f7fef81d    ....    BL       addAndClamp ; 0x1a8c
        0x00003a52:    9903        ..      LDR      r1,[sp,#0xc]
        0x00003a54:    7008        .p      STRB     r0,[r1,#0]
        0x00003a56:    9800        ..      LDR      r0,[sp,#0]
        0x00003a58:    4621        !F      MOV      r1,r4
        0x00003a5a:    7800        .x      LDRB     r0,[r0,#0]
        0x00003a5c:    f7fef816    ....    BL       addAndClamp ; 0x1a8c
        0x00003a60:    9900        ..      LDR      r1,[sp,#0]
        0x00003a62:    7008        .p      STRB     r0,[r1,#0]
        0x00003a64:    9805        ..      LDR      r0,[sp,#0x14]
        0x00003a66:    4621        !F      MOV      r1,r4
        0x00003a68:    7800        .x      LDRB     r0,[r0,#0]
        0x00003a6a:    f7fef80f    ....    BL       addAndClamp ; 0x1a8c
        0x00003a6e:    9905        ..      LDR      r1,[sp,#0x14]
        0x00003a70:    e79c        ..      B        0x39ac ; transformBlockReduce + 496
        0x00003a72:    2067        g       MOVS     r0,#0x67
        0x00003a74:    4360        `C      MULS     r0,r4,r0
        0x00003a76:    0a00        ..      LSRS     r0,r0,#8
        0x00003a78:    1900        ..      ADDS     r0,r0,r4
        0x00003a7a:    38b3        .8      SUBS     r0,r0,#0xb3
        0x00003a7c:    9000        ..      STR      r0,[sp,#0]
        0x00003a7e:    481c        .H      LDR      r0,[pc,#112] ; [0x3af0] = 0x1ffff6ac
        0x00003a80:    9900        ..      LDR      r1,[sp,#0]
        0x00003a82:    3080        .0      ADDS     r0,r0,#0x80
        0x00003a84:    7800        .x      LDRB     r0,[r0,#0]
        0x00003a86:    f7fef801    ....    BL       addAndClamp ; 0x1a8c
        0x00003a8a:    4919        .I      LDR      r1,[pc,#100] ; [0x3af0] = 0x1ffff6ac
        0x00003a8c:    3180        .1      ADDS     r1,r1,#0x80
        0x00003a8e:    7008        .p      STRB     r0,[r1,#0]
        0x00003a90:    9804        ..      LDR      r0,[sp,#0x10]
        0x00003a92:    9900        ..      LDR      r1,[sp,#0]
        0x00003a94:    7800        .x      LDRB     r0,[r0,#0]
        0x00003a96:    f7fdfff9    ....    BL       addAndClamp ; 0x1a8c
        0x00003a9a:    9904        ..      LDR      r1,[sp,#0x10]
        0x00003a9c:    7008        .p      STRB     r0,[r1,#0]
        0x00003a9e:    9801        ..      LDR      r0,[sp,#4]
        0x00003aa0:    9900        ..      LDR      r1,[sp,#0]
        0x00003aa2:    7800        .x      LDRB     r0,[r0,#0]
        0x00003aa4:    f7fdfff2    ....    BL       addAndClamp ; 0x1a8c
        0x00003aa8:    9901        ..      LDR      r1,[sp,#4]
        0x00003aaa:    7008        .p      STRB     r0,[r1,#0]
        0x00003aac:    9806        ..      LDR      r0,[sp,#0x18]
        0x00003aae:    9900        ..      LDR      r1,[sp,#0]
        0x00003ab0:    7800        .x      LDRB     r0,[r0,#0]
        0x00003ab2:    f7fdffeb    ....    BL       addAndClamp ; 0x1a8c
        0x00003ab6:    9906        ..      LDR      r1,[sp,#0x18]
        0x00003ab8:    7008        .p      STRB     r0,[r1,#0]
        0x00003aba:    20b7        .       MOVS     r0,#0xb7
        0x00003abc:    4344        DC      MULS     r4,r0,r4
        0x00003abe:    0a24        $.      LSRS     r4,r4,#8
        0x00003ac0:    3c5b        [<      SUBS     r4,r4,#0x5b
        0x00003ac2:    7838        8x      LDRB     r0,[r7,#0]
        0x00003ac4:    4621        !F      MOV      r1,r4
        0x00003ac6:    f7fffde1    ....    BL       subAndClamp ; 0x368c
        0x00003aca:    7038        8p      STRB     r0,[r7,#0]
        0x00003acc:    7830        0x      LDRB     r0,[r6,#0]
        0x00003ace:    4621        !F      MOV      r1,r4
        0x00003ad0:    f7fffddc    ....    BL       subAndClamp ; 0x368c
        0x00003ad4:    7030        0p      STRB     r0,[r6,#0]
        0x00003ad6:    7828        (x      LDRB     r0,[r5,#0]
        0x00003ad8:    4621        !F      MOV      r1,r4
        0x00003ada:    f7fffdd7    ....    BL       subAndClamp ; 0x368c
        0x00003ade:    7028        (p      STRB     r0,[r5,#0]
        0x00003ae0:    9802        ..      LDR      r0,[sp,#8]
        0x00003ae2:    4621        !F      MOV      r1,r4
        0x00003ae4:    7800        .x      LDRB     r0,[r0,#0]
        0x00003ae6:    f7fffdd1    ....    BL       subAndClamp ; 0x368c
        0x00003aea:    9902        ..      LDR      r1,[sp,#8]
        0x00003aec:    e75e        ^.      B        0x39ac ; transformBlockReduce + 496
    $d
        0x00003aee:    0000        ..      DCW    0
        0x00003af0:    1ffff6ac    ....    DCD    536868524
        0x00003af4:    1ffff058    X...    DCD    536866904
        0x00003af8:    1ffff96c    l...    DCD    536869228
        0x00003afc:    1ffff7ec    ....    DCD    536868844
    $t
    i.upsampleCb
    upsampleCb
    __tagsym$$noinline
        0x00003b00:    b5fe        ..      PUSH     {r1-r7,lr}
        0x00003b02:    4a29        )J      LDR      r2,[pc,#164] ; [0x3ba8] = 0x1ffff6ac
        0x00003b04:    0040        @.      LSLS     r0,r0,#1
        0x00003b06:    1886        ..      ADDS     r6,r0,r2
        0x00003b08:    4828        (H      LDR      r0,[pc,#160] ; [0x3bac] = 0x1ffff82c
        0x00003b0a:    1845        E.      ADDS     r5,r0,r1
        0x00003b0c:    30ff        .0      ADDS     r0,r0,#0xff
        0x00003b0e:    3001        .0      ADDS     r0,#1
        0x00003b10:    1844        D.      ADDS     r4,r0,r1
        0x00003b12:    2000        .       MOVS     r0,#0
        0x00003b14:    9002        ..      STR      r0,[sp,#8]
        0x00003b16:    2000        .       MOVS     r0,#0
        0x00003b18:    9001        ..      STR      r0,[sp,#4]
        0x00003b1a:    7837        7x      LDRB     r7,[r6,#0]
        0x00003b1c:    2058        X       MOVS     r0,#0x58
        0x00003b1e:    4378        xC      MULS     r0,r7,r0
        0x00003b20:    0a00        ..      LSRS     r0,r0,#8
        0x00003b22:    382c        ,8      SUBS     r0,r0,#0x2c
        0x00003b24:    9000        ..      STR      r0,[sp,#0]
        0x00003b26:    7828        (x      LDRB     r0,[r5,#0]
        0x00003b28:    1cb6        ..      ADDS     r6,r6,#2
        0x00003b2a:    9900        ..      LDR      r1,[sp,#0]
        0x00003b2c:    f7fffdae    ....    BL       subAndClamp ; 0x368c
        0x00003b30:    7028        (p      STRB     r0,[r5,#0]
        0x00003b32:    7868        hx      LDRB     r0,[r5,#1]
        0x00003b34:    9900        ..      LDR      r1,[sp,#0]
        0x00003b36:    f7fffda9    ....    BL       subAndClamp ; 0x368c
        0x00003b3a:    7068        hp      STRB     r0,[r5,#1]
        0x00003b3c:    7a28        (z      LDRB     r0,[r5,#8]
        0x00003b3e:    9900        ..      LDR      r1,[sp,#0]
        0x00003b40:    f7fffda4    ....    BL       subAndClamp ; 0x368c
        0x00003b44:    7228        (r      STRB     r0,[r5,#8]
        0x00003b46:    7a68        hz      LDRB     r0,[r5,#9]
        0x00003b48:    9900        ..      LDR      r1,[sp,#0]
        0x00003b4a:    f7fffd9f    ....    BL       subAndClamp ; 0x368c
        0x00003b4e:    7268        hr      STRB     r0,[r5,#9]
        0x00003b50:    20c6        .       MOVS     r0,#0xc6
        0x00003b52:    4378        xC      MULS     r0,r7,r0
        0x00003b54:    0a00        ..      LSRS     r0,r0,#8
        0x00003b56:    19c7        ..      ADDS     r7,r0,r7
        0x00003b58:    3fe3        .?      SUBS     r7,r7,#0xe3
        0x00003b5a:    7820         x      LDRB     r0,[r4,#0]
        0x00003b5c:    4639        9F      MOV      r1,r7
        0x00003b5e:    f7fdff95    ....    BL       addAndClamp ; 0x1a8c
        0x00003b62:    7020         p      STRB     r0,[r4,#0]
        0x00003b64:    7860        `x      LDRB     r0,[r4,#1]
        0x00003b66:    4639        9F      MOV      r1,r7
        0x00003b68:    f7fdff90    ....    BL       addAndClamp ; 0x1a8c
        0x00003b6c:    7060        `p      STRB     r0,[r4,#1]
        0x00003b6e:    7a20         z      LDRB     r0,[r4,#8]
        0x00003b70:    4639        9F      MOV      r1,r7
        0x00003b72:    f7fdff8b    ....    BL       addAndClamp ; 0x1a8c
        0x00003b76:    7220         r      STRB     r0,[r4,#8]
        0x00003b78:    7a60        `z      LDRB     r0,[r4,#9]
        0x00003b7a:    4639        9F      MOV      r1,r7
        0x00003b7c:    f7fdff86    ....    BL       addAndClamp ; 0x1a8c
        0x00003b80:    7260        `r      STRB     r0,[r4,#9]
        0x00003b82:    9801        ..      LDR      r0,[sp,#4]
        0x00003b84:    1ca4        ..      ADDS     r4,r4,#2
        0x00003b86:    1c40        @.      ADDS     r0,r0,#1
        0x00003b88:    b2c0        ..      UXTB     r0,r0
        0x00003b8a:    1cad        ..      ADDS     r5,r5,#2
        0x00003b8c:    9001        ..      STR      r0,[sp,#4]
        0x00003b8e:    2804        .(      CMP      r0,#4
        0x00003b90:    d3c3        ..      BCC      0x3b1a ; upsampleCb + 26
        0x00003b92:    9802        ..      LDR      r0,[sp,#8]
        0x00003b94:    3408        .4      ADDS     r4,r4,#8
        0x00003b96:    1c40        @.      ADDS     r0,r0,#1
        0x00003b98:    b2c0        ..      UXTB     r0,r0
        0x00003b9a:    3508        .5      ADDS     r5,r5,#8
        0x00003b9c:    3608        .6      ADDS     r6,r6,#8
        0x00003b9e:    9002        ..      STR      r0,[sp,#8]
        0x00003ba0:    2804        .(      CMP      r0,#4
        0x00003ba2:    d3b8        ..      BCC      0x3b16 ; upsampleCb + 22
        0x00003ba4:    bdfe        ..      POP      {r1-r7,pc}
    $d
        0x00003ba6:    0000        ..      DCW    0
        0x00003ba8:    1ffff6ac    ....    DCD    536868524
        0x00003bac:    1ffff82c    ,...    DCD    536868908
    $t
    i.upsampleCbH
    upsampleCbH
        0x00003bb0:    b5f0        ..      PUSH     {r4-r7,lr}
        0x00003bb2:    4a1f        .J      LDR      r2,[pc,#124] ; [0x3c30] = 0x1ffff6ac
        0x00003bb4:    0040        @.      LSLS     r0,r0,#1
        0x00003bb6:    1886        ..      ADDS     r6,r0,r2
        0x00003bb8:    481e        .H      LDR      r0,[pc,#120] ; [0x3c34] = 0x1ffff82c
        0x00003bba:    b089        ..      SUB      sp,sp,#0x24
        0x00003bbc:    1845        E.      ADDS     r5,r0,r1
        0x00003bbe:    30ff        .0      ADDS     r0,r0,#0xff
        0x00003bc0:    3001        .0      ADDS     r0,#1
        0x00003bc2:    1844        D.      ADDS     r4,r0,r1
        0x00003bc4:    2000        .       MOVS     r0,#0
        0x00003bc6:    9006        ..      STR      r0,[sp,#0x18]
        0x00003bc8:    2000        .       MOVS     r0,#0
        0x00003bca:    9005        ..      STR      r0,[sp,#0x14]
        0x00003bcc:    7837        7x      LDRB     r7,[r6,#0]
        0x00003bce:    2058        X       MOVS     r0,#0x58
        0x00003bd0:    4378        xC      MULS     r0,r7,r0
        0x00003bd2:    0a00        ..      LSRS     r0,r0,#8
        0x00003bd4:    382c        ,8      SUBS     r0,r0,#0x2c
        0x00003bd6:    9000        ..      STR      r0,[sp,#0]
        0x00003bd8:    7828        (x      LDRB     r0,[r5,#0]
        0x00003bda:    1cb6        ..      ADDS     r6,r6,#2
        0x00003bdc:    9900        ..      LDR      r1,[sp,#0]
        0x00003bde:    f7fffd55    ..U.    BL       subAndClamp ; 0x368c
        0x00003be2:    7028        (p      STRB     r0,[r5,#0]
        0x00003be4:    7868        hx      LDRB     r0,[r5,#1]
        0x00003be6:    9900        ..      LDR      r1,[sp,#0]
        0x00003be8:    f7fffd50    ..P.    BL       subAndClamp ; 0x368c
        0x00003bec:    7068        hp      STRB     r0,[r5,#1]
        0x00003bee:    20c6        .       MOVS     r0,#0xc6
        0x00003bf0:    4378        xC      MULS     r0,r7,r0
        0x00003bf2:    0a00        ..      LSRS     r0,r0,#8
        0x00003bf4:    19c7        ..      ADDS     r7,r0,r7
        0x00003bf6:    3fe3        .?      SUBS     r7,r7,#0xe3
        0x00003bf8:    7820         x      LDRB     r0,[r4,#0]
        0x00003bfa:    4639        9F      MOV      r1,r7
        0x00003bfc:    f7fdff46    ..F.    BL       addAndClamp ; 0x1a8c
        0x00003c00:    7020         p      STRB     r0,[r4,#0]
        0x00003c02:    7860        `x      LDRB     r0,[r4,#1]
        0x00003c04:    4639        9F      MOV      r1,r7
        0x00003c06:    f7fdff41    ..A.    BL       addAndClamp ; 0x1a8c
        0x00003c0a:    7060        `p      STRB     r0,[r4,#1]
        0x00003c0c:    9805        ..      LDR      r0,[sp,#0x14]
        0x00003c0e:    1ca4        ..      ADDS     r4,r4,#2
        0x00003c10:    1c40        @.      ADDS     r0,r0,#1
        0x00003c12:    b2c0        ..      UXTB     r0,r0
        0x00003c14:    1cad        ..      ADDS     r5,r5,#2
        0x00003c16:    9005        ..      STR      r0,[sp,#0x14]
        0x00003c18:    2804        .(      CMP      r0,#4
        0x00003c1a:    d3d7        ..      BCC      0x3bcc ; upsampleCbH + 28
        0x00003c1c:    9806        ..      LDR      r0,[sp,#0x18]
        0x00003c1e:    3608        .6      ADDS     r6,r6,#8
        0x00003c20:    1c40        @.      ADDS     r0,r0,#1
        0x00003c22:    b2c0        ..      UXTB     r0,r0
        0x00003c24:    9006        ..      STR      r0,[sp,#0x18]
        0x00003c26:    2808        .(      CMP      r0,#8
        0x00003c28:    d3ce        ..      BCC      0x3bc8 ; upsampleCbH + 24
        0x00003c2a:    b009        ..      ADD      sp,sp,#0x24
        0x00003c2c:    bdf0        ..      POP      {r4-r7,pc}
    $d
        0x00003c2e:    0000        ..      DCW    0
        0x00003c30:    1ffff6ac    ....    DCD    536868524
        0x00003c34:    1ffff82c    ,...    DCD    536868908
    $t
    i.upsampleCbV
    upsampleCbV
        0x00003c38:    b5f0        ..      PUSH     {r4-r7,lr}
        0x00003c3a:    4a1f        .J      LDR      r2,[pc,#124] ; [0x3cb8] = 0x1ffff6ac
        0x00003c3c:    0040        @.      LSLS     r0,r0,#1
        0x00003c3e:    b089        ..      SUB      sp,sp,#0x24
        0x00003c40:    1880        ..      ADDS     r0,r0,r2
        0x00003c42:    9006        ..      STR      r0,[sp,#0x18]
        0x00003c44:    481d        .H      LDR      r0,[pc,#116] ; [0x3cbc] = 0x1ffff82c
        0x00003c46:    1845        E.      ADDS     r5,r0,r1
        0x00003c48:    30ff        .0      ADDS     r0,r0,#0xff
        0x00003c4a:    3001        .0      ADDS     r0,#1
        0x00003c4c:    1844        D.      ADDS     r4,r0,r1
        0x00003c4e:    2000        .       MOVS     r0,#0
        0x00003c50:    9005        ..      STR      r0,[sp,#0x14]
        0x00003c52:    2700        .'      MOVS     r7,#0
        0x00003c54:    9806        ..      LDR      r0,[sp,#0x18]
        0x00003c56:    7806        .x      LDRB     r6,[r0,#0]
        0x00003c58:    1c80        ..      ADDS     r0,r0,#2
        0x00003c5a:    9006        ..      STR      r0,[sp,#0x18]
        0x00003c5c:    2058        X       MOVS     r0,#0x58
        0x00003c5e:    4370        pC      MULS     r0,r6,r0
        0x00003c60:    0a00        ..      LSRS     r0,r0,#8
        0x00003c62:    382c        ,8      SUBS     r0,r0,#0x2c
        0x00003c64:    9000        ..      STR      r0,[sp,#0]
        0x00003c66:    7828        (x      LDRB     r0,[r5,#0]
        0x00003c68:    9900        ..      LDR      r1,[sp,#0]
        0x00003c6a:    f7fffd0f    ....    BL       subAndClamp ; 0x368c
        0x00003c6e:    7028        (p      STRB     r0,[r5,#0]
        0x00003c70:    7a28        (z      LDRB     r0,[r5,#8]
        0x00003c72:    9900        ..      LDR      r1,[sp,#0]
        0x00003c74:    f7fffd0a    ....    BL       subAndClamp ; 0x368c
        0x00003c78:    7228        (r      STRB     r0,[r5,#8]
        0x00003c7a:    20c6        .       MOVS     r0,#0xc6
        0x00003c7c:    4370        pC      MULS     r0,r6,r0
        0x00003c7e:    0a00        ..      LSRS     r0,r0,#8
        0x00003c80:    1986        ..      ADDS     r6,r0,r6
        0x00003c82:    3ee3        .>      SUBS     r6,r6,#0xe3
        0x00003c84:    7820         x      LDRB     r0,[r4,#0]
        0x00003c86:    4631        1F      MOV      r1,r6
        0x00003c88:    f7fdff00    ....    BL       addAndClamp ; 0x1a8c
        0x00003c8c:    7020         p      STRB     r0,[r4,#0]
        0x00003c8e:    7a20         z      LDRB     r0,[r4,#8]
        0x00003c90:    4631        1F      MOV      r1,r6
        0x00003c92:    f7fdfefb    ....    BL       addAndClamp ; 0x1a8c
        0x00003c96:    7220         r      STRB     r0,[r4,#8]
        0x00003c98:    1c7f        ..      ADDS     r7,r7,#1
        0x00003c9a:    b2ff        ..      UXTB     r7,r7
        0x00003c9c:    1c64        d.      ADDS     r4,r4,#1
        0x00003c9e:    1c6d        m.      ADDS     r5,r5,#1
        0x00003ca0:    2f08        ./      CMP      r7,#8
        0x00003ca2:    d3d7        ..      BCC      0x3c54 ; upsampleCbV + 28
        0x00003ca4:    9805        ..      LDR      r0,[sp,#0x14]
        0x00003ca6:    3408        .4      ADDS     r4,r4,#8
        0x00003ca8:    1c40        @.      ADDS     r0,r0,#1
        0x00003caa:    b2c0        ..      UXTB     r0,r0
        0x00003cac:    3508        .5      ADDS     r5,r5,#8
        0x00003cae:    9005        ..      STR      r0,[sp,#0x14]
        0x00003cb0:    2804        .(      CMP      r0,#4
        0x00003cb2:    d3ce        ..      BCC      0x3c52 ; upsampleCbV + 26
        0x00003cb4:    b009        ..      ADD      sp,sp,#0x24
        0x00003cb6:    bdf0        ..      POP      {r4-r7,pc}
    $d
        0x00003cb8:    1ffff6ac    ....    DCD    536868524
        0x00003cbc:    1ffff82c    ,...    DCD    536868908
    $t
    i.upsampleCr
    upsampleCr
    __tagsym$$noinline
        0x00003cc0:    b5fe        ..      PUSH     {r1-r7,lr}
        0x00003cc2:    4a29        )J      LDR      r2,[pc,#164] ; [0x3d68] = 0x1ffff6ac
        0x00003cc4:    0040        @.      LSLS     r0,r0,#1
        0x00003cc6:    1886        ..      ADDS     r6,r0,r2
        0x00003cc8:    4610        .F      MOV      r0,r2
        0x00003cca:    3080        .0      ADDS     r0,r0,#0x80
        0x00003ccc:    1845        E.      ADDS     r5,r0,r1
        0x00003cce:    30ff        .0      ADDS     r0,r0,#0xff
        0x00003cd0:    3001        .0      ADDS     r0,#1
        0x00003cd2:    1844        D.      ADDS     r4,r0,r1
        0x00003cd4:    2000        .       MOVS     r0,#0
        0x00003cd6:    9002        ..      STR      r0,[sp,#8]
        0x00003cd8:    2000        .       MOVS     r0,#0
        0x00003cda:    9001        ..      STR      r0,[sp,#4]
        0x00003cdc:    7837        7x      LDRB     r7,[r6,#0]
        0x00003cde:    2067        g       MOVS     r0,#0x67
        0x00003ce0:    4378        xC      MULS     r0,r7,r0
        0x00003ce2:    0a00        ..      LSRS     r0,r0,#8
        0x00003ce4:    19c0        ..      ADDS     r0,r0,r7
        0x00003ce6:    38b3        .8      SUBS     r0,r0,#0xb3
        0x00003ce8:    9000        ..      STR      r0,[sp,#0]
        0x00003cea:    7828        (x      LDRB     r0,[r5,#0]
        0x00003cec:    1cb6        ..      ADDS     r6,r6,#2
        0x00003cee:    9900        ..      LDR      r1,[sp,#0]
        0x00003cf0:    f7fdfecc    ....    BL       addAndClamp ; 0x1a8c
        0x00003cf4:    7028        (p      STRB     r0,[r5,#0]
        0x00003cf6:    7868        hx      LDRB     r0,[r5,#1]
        0x00003cf8:    9900        ..      LDR      r1,[sp,#0]
        0x00003cfa:    f7fdfec7    ....    BL       addAndClamp ; 0x1a8c
        0x00003cfe:    7068        hp      STRB     r0,[r5,#1]
        0x00003d00:    7a28        (z      LDRB     r0,[r5,#8]
        0x00003d02:    9900        ..      LDR      r1,[sp,#0]
        0x00003d04:    f7fdfec2    ....    BL       addAndClamp ; 0x1a8c
        0x00003d08:    7228        (r      STRB     r0,[r5,#8]
        0x00003d0a:    7a68        hz      LDRB     r0,[r5,#9]
        0x00003d0c:    9900        ..      LDR      r1,[sp,#0]
        0x00003d0e:    f7fdfebd    ....    BL       addAndClamp ; 0x1a8c
        0x00003d12:    7268        hr      STRB     r0,[r5,#9]
        0x00003d14:    20b7        .       MOVS     r0,#0xb7
        0x00003d16:    4347        GC      MULS     r7,r0,r7
        0x00003d18:    0a3f        ?.      LSRS     r7,r7,#8
        0x00003d1a:    3f5b        [?      SUBS     r7,r7,#0x5b
        0x00003d1c:    7820         x      LDRB     r0,[r4,#0]
        0x00003d1e:    4639        9F      MOV      r1,r7
        0x00003d20:    f7fffcb4    ....    BL       subAndClamp ; 0x368c
        0x00003d24:    7020         p      STRB     r0,[r4,#0]
        0x00003d26:    7860        `x      LDRB     r0,[r4,#1]
        0x00003d28:    4639        9F      MOV      r1,r7
        0x00003d2a:    f7fffcaf    ....    BL       subAndClamp ; 0x368c
        0x00003d2e:    7060        `p      STRB     r0,[r4,#1]
        0x00003d30:    7a20         z      LDRB     r0,[r4,#8]
        0x00003d32:    4639        9F      MOV      r1,r7
        0x00003d34:    f7fffcaa    ....    BL       subAndClamp ; 0x368c
        0x00003d38:    7220         r      STRB     r0,[r4,#8]
        0x00003d3a:    7a60        `z      LDRB     r0,[r4,#9]
        0x00003d3c:    4639        9F      MOV      r1,r7
        0x00003d3e:    f7fffca5    ....    BL       subAndClamp ; 0x368c
        0x00003d42:    7260        `r      STRB     r0,[r4,#9]
        0x00003d44:    9801        ..      LDR      r0,[sp,#4]
        0x00003d46:    1ca4        ..      ADDS     r4,r4,#2
        0x00003d48:    1c40        @.      ADDS     r0,r0,#1
        0x00003d4a:    b2c0        ..      UXTB     r0,r0
        0x00003d4c:    1cad        ..      ADDS     r5,r5,#2
        0x00003d4e:    9001        ..      STR      r0,[sp,#4]
        0x00003d50:    2804        .(      CMP      r0,#4
        0x00003d52:    d3c3        ..      BCC      0x3cdc ; upsampleCr + 28
        0x00003d54:    9802        ..      LDR      r0,[sp,#8]
        0x00003d56:    3408        .4      ADDS     r4,r4,#8
        0x00003d58:    1c40        @.      ADDS     r0,r0,#1
        0x00003d5a:    b2c0        ..      UXTB     r0,r0
        0x00003d5c:    3508        .5      ADDS     r5,r5,#8
        0x00003d5e:    3608        .6      ADDS     r6,r6,#8
        0x00003d60:    9002        ..      STR      r0,[sp,#8]
        0x00003d62:    2804        .(      CMP      r0,#4
        0x00003d64:    d3b8        ..      BCC      0x3cd8 ; upsampleCr + 24
        0x00003d66:    bdfe        ..      POP      {r1-r7,pc}
    $d
        0x00003d68:    1ffff6ac    ....    DCD    536868524
    $t
    i.upsampleCrH
    upsampleCrH
        0x00003d6c:    b5f0        ..      PUSH     {r4-r7,lr}
        0x00003d6e:    4a1f        .J      LDR      r2,[pc,#124] ; [0x3dec] = 0x1ffff6ac
        0x00003d70:    0040        @.      LSLS     r0,r0,#1
        0x00003d72:    1886        ..      ADDS     r6,r0,r2
        0x00003d74:    4610        .F      MOV      r0,r2
        0x00003d76:    3080        .0      ADDS     r0,r0,#0x80
        0x00003d78:    1845        E.      ADDS     r5,r0,r1
        0x00003d7a:    30ff        .0      ADDS     r0,r0,#0xff
        0x00003d7c:    3001        .0      ADDS     r0,#1
        0x00003d7e:    1844        D.      ADDS     r4,r0,r1
        0x00003d80:    b089        ..      SUB      sp,sp,#0x24
        0x00003d82:    2000        .       MOVS     r0,#0
        0x00003d84:    9006        ..      STR      r0,[sp,#0x18]
        0x00003d86:    2000        .       MOVS     r0,#0
        0x00003d88:    9005        ..      STR      r0,[sp,#0x14]
        0x00003d8a:    7837        7x      LDRB     r7,[r6,#0]
        0x00003d8c:    2067        g       MOVS     r0,#0x67
        0x00003d8e:    4378        xC      MULS     r0,r7,r0
        0x00003d90:    0a00        ..      LSRS     r0,r0,#8
        0x00003d92:    19c0        ..      ADDS     r0,r0,r7
        0x00003d94:    38b3        .8      SUBS     r0,r0,#0xb3
        0x00003d96:    9000        ..      STR      r0,[sp,#0]
        0x00003d98:    7828        (x      LDRB     r0,[r5,#0]
        0x00003d9a:    1cb6        ..      ADDS     r6,r6,#2
        0x00003d9c:    9900        ..      LDR      r1,[sp,#0]
        0x00003d9e:    f7fdfe75    ..u.    BL       addAndClamp ; 0x1a8c
        0x00003da2:    7028        (p      STRB     r0,[r5,#0]
        0x00003da4:    7868        hx      LDRB     r0,[r5,#1]
        0x00003da6:    9900        ..      LDR      r1,[sp,#0]
        0x00003da8:    f7fdfe70    ..p.    BL       addAndClamp ; 0x1a8c
        0x00003dac:    7068        hp      STRB     r0,[r5,#1]
        0x00003dae:    20b7        .       MOVS     r0,#0xb7
        0x00003db0:    4347        GC      MULS     r7,r0,r7
        0x00003db2:    0a3f        ?.      LSRS     r7,r7,#8
        0x00003db4:    3f5b        [?      SUBS     r7,r7,#0x5b
        0x00003db6:    7820         x      LDRB     r0,[r4,#0]
        0x00003db8:    4639        9F      MOV      r1,r7
        0x00003dba:    f7fffc67    ..g.    BL       subAndClamp ; 0x368c
        0x00003dbe:    7020         p      STRB     r0,[r4,#0]
        0x00003dc0:    7860        `x      LDRB     r0,[r4,#1]
        0x00003dc2:    4639        9F      MOV      r1,r7
        0x00003dc4:    f7fffc62    ..b.    BL       subAndClamp ; 0x368c
        0x00003dc8:    7060        `p      STRB     r0,[r4,#1]
        0x00003dca:    9805        ..      LDR      r0,[sp,#0x14]
        0x00003dcc:    1ca4        ..      ADDS     r4,r4,#2
        0x00003dce:    1c40        @.      ADDS     r0,r0,#1
        0x00003dd0:    b2c0        ..      UXTB     r0,r0
        0x00003dd2:    1cad        ..      ADDS     r5,r5,#2
        0x00003dd4:    9005        ..      STR      r0,[sp,#0x14]
        0x00003dd6:    2804        .(      CMP      r0,#4
        0x00003dd8:    d3d7        ..      BCC      0x3d8a ; upsampleCrH + 30
        0x00003dda:    9806        ..      LDR      r0,[sp,#0x18]
        0x00003ddc:    3608        .6      ADDS     r6,r6,#8
        0x00003dde:    1c40        @.      ADDS     r0,r0,#1
        0x00003de0:    b2c0        ..      UXTB     r0,r0
        0x00003de2:    9006        ..      STR      r0,[sp,#0x18]
        0x00003de4:    2808        .(      CMP      r0,#8
        0x00003de6:    d3ce        ..      BCC      0x3d86 ; upsampleCrH + 26
        0x00003de8:    b009        ..      ADD      sp,sp,#0x24
        0x00003dea:    bdf0        ..      POP      {r4-r7,pc}
    $d
        0x00003dec:    1ffff6ac    ....    DCD    536868524
    $t
    i.upsampleCrV
    upsampleCrV
        0x00003df0:    b5f0        ..      PUSH     {r4-r7,lr}
        0x00003df2:    4a20         J      LDR      r2,[pc,#128] ; [0x3e74] = 0x1ffff6ac
        0x00003df4:    0040        @.      LSLS     r0,r0,#1
        0x00003df6:    b089        ..      SUB      sp,sp,#0x24
        0x00003df8:    1880        ..      ADDS     r0,r0,r2
        0x00003dfa:    9006        ..      STR      r0,[sp,#0x18]
        0x00003dfc:    4610        .F      MOV      r0,r2
        0x00003dfe:    3080        .0      ADDS     r0,r0,#0x80
        0x00003e00:    1845        E.      ADDS     r5,r0,r1
        0x00003e02:    30ff        .0      ADDS     r0,r0,#0xff
        0x00003e04:    3001        .0      ADDS     r0,#1
        0x00003e06:    1844        D.      ADDS     r4,r0,r1
        0x00003e08:    2000        .       MOVS     r0,#0
        0x00003e0a:    9005        ..      STR      r0,[sp,#0x14]
        0x00003e0c:    2700        .'      MOVS     r7,#0
        0x00003e0e:    9806        ..      LDR      r0,[sp,#0x18]
        0x00003e10:    7806        .x      LDRB     r6,[r0,#0]
        0x00003e12:    1c80        ..      ADDS     r0,r0,#2
        0x00003e14:    9006        ..      STR      r0,[sp,#0x18]
        0x00003e16:    2067        g       MOVS     r0,#0x67
        0x00003e18:    4370        pC      MULS     r0,r6,r0
        0x00003e1a:    0a00        ..      LSRS     r0,r0,#8
        0x00003e1c:    1980        ..      ADDS     r0,r0,r6
        0x00003e1e:    38b3        .8      SUBS     r0,r0,#0xb3
        0x00003e20:    9000        ..      STR      r0,[sp,#0]
        0x00003e22:    7828        (x      LDRB     r0,[r5,#0]
        0x00003e24:    9900        ..      LDR      r1,[sp,#0]
        0x00003e26:    f7fdfe31    ..1.    BL       addAndClamp ; 0x1a8c
        0x00003e2a:    7028        (p      STRB     r0,[r5,#0]
        0x00003e2c:    7a28        (z      LDRB     r0,[r5,#8]
        0x00003e2e:    9900        ..      LDR      r1,[sp,#0]
        0x00003e30:    f7fdfe2c    ..,.    BL       addAndClamp ; 0x1a8c
        0x00003e34:    7228        (r      STRB     r0,[r5,#8]
        0x00003e36:    20b7        .       MOVS     r0,#0xb7
        0x00003e38:    4346        FC      MULS     r6,r0,r6
        0x00003e3a:    0a36        6.      LSRS     r6,r6,#8
        0x00003e3c:    3e5b        [>      SUBS     r6,r6,#0x5b
        0x00003e3e:    7820         x      LDRB     r0,[r4,#0]
        0x00003e40:    4631        1F      MOV      r1,r6
        0x00003e42:    f7fffc23    ..#.    BL       subAndClamp ; 0x368c
        0x00003e46:    7020         p      STRB     r0,[r4,#0]
        0x00003e48:    7a20         z      LDRB     r0,[r4,#8]
        0x00003e4a:    4631        1F      MOV      r1,r6
        0x00003e4c:    f7fffc1e    ....    BL       subAndClamp ; 0x368c
        0x00003e50:    7220         r      STRB     r0,[r4,#8]
        0x00003e52:    1c7f        ..      ADDS     r7,r7,#1
        0x00003e54:    b2ff        ..      UXTB     r7,r7
        0x00003e56:    1c64        d.      ADDS     r4,r4,#1
        0x00003e58:    1c6d        m.      ADDS     r5,r5,#1
        0x00003e5a:    2f08        ./      CMP      r7,#8
        0x00003e5c:    d3d7        ..      BCC      0x3e0e ; upsampleCrV + 30
        0x00003e5e:    9805        ..      LDR      r0,[sp,#0x14]
        0x00003e60:    3408        .4      ADDS     r4,r4,#8
        0x00003e62:    1c40        @.      ADDS     r0,r0,#1
        0x00003e64:    b2c0        ..      UXTB     r0,r0
        0x00003e66:    3508        .5      ADDS     r5,r5,#8
        0x00003e68:    9005        ..      STR      r0,[sp,#0x14]
        0x00003e6a:    2804        .(      CMP      r0,#4
        0x00003e6c:    d3ce        ..      BCC      0x3e0c ; upsampleCrV + 28
        0x00003e6e:    b009        ..      ADD      sp,sp,#0x24
        0x00003e70:    bdf0        ..      POP      {r4-r7,pc}
    $d
        0x00003e72:    0000        ..      DCW    0
        0x00003e74:    1ffff6ac    ....    DCD    536868524
    $d.realdata
    .constdata
    RegionTable
        0x00003e78:    000003cd    ....    DCD    973
        0x00003e7c:    000003e8    ....    DCD    1000
        0x00003e80:    5f44434c    LCD_    DCD    1598309196
        0x00003e84:    5f533432    24S_    DCD    1599288370
        0x00003e88:    74697257    Writ    DCD    1953067607
        0x00003e8c:    6f435f65    e_Co    DCD    1866686309
        0x00003e90:    6e616d6d    mman    DCD    1851878765
        0x00003e94:    00000064    d...    DCD    100
        0x00003e98:    00000475    u...    DCD    1141
        0x00003e9c:    0000048a    ....    DCD    1162
        0x00003ea0:    5f44434c    LCD_    DCD    1598309196
        0x00003ea4:    5f533432    24S_    DCD    1599288370
        0x00003ea8:    74697257    Writ    DCD    1953067607
        0x00003eac:    61445f65    e_Da    DCD    1631870821
        0x00003eb0:    00006174    ta..    DCD    24948
        0x00003eb4:    00000000    ....    DCD    0
        0x00003eb8:    00001a8d    ....    DCD    6797
        0x00003ebc:    00001aaa    ....    DCD    6826
        0x00003ec0:    41646461    addA    DCD    1097098337
        0x00003ec4:    6c43646e    ndCl    DCD    1816355950
        0x00003ec8:    00706d61    amp.    DCD    7368033
        0x00003ecc:    00000000    ....    DCD    0
        0x00003ed0:    00000000    ....    DCD    0
        0x00003ed4:    00000000    ....    DCD    0
        0x00003ed8:    00001b01    ....    DCD    6913
        0x00003edc:    00001b1a    ....    DCD    6938
        0x00003ee0:    6d616c63    clam    DCD    1835101283
        0x00003ee4:    00000070    p...    DCD    112
        0x00003ee8:    00000000    ....    DCD    0
        0x00003eec:    00000000    ....    DCD    0
        0x00003ef0:    00000000    ....    DCD    0
        0x00003ef4:    00000000    ....    DCD    0
        0x00003ef8:    00001b3d    =...    DCD    6973
        0x00003efc:    00001b86    ....    DCD    7046
        0x00003f00:    766e6f63    conv    DCD    1986948963
        0x00003f04:    43747265    ertC    DCD    1131704933
        0x00003f08:    00000062    b...    DCD    98
        0x00003f0c:    00000000    ....    DCD    0
        0x00003f10:    00000000    ....    DCD    0
        0x00003f14:    00000000    ....    DCD    0
        0x00003f18:    00001b91    ....    DCD    7057
        0x00003f1c:    00001bdc    ....    DCD    7132
        0x00003f20:    766e6f63    conv    DCD    1986948963
        0x00003f24:    43747265    ertC    DCD    1131704933
        0x00003f28:    00000072    r...    DCD    114
        0x00003f2c:    00000000    ....    DCD    0
        0x00003f30:    00000000    ....    DCD    0
        0x00003f34:    00000000    ....    DCD    0
        0x00003f38:    00001be1    ....    DCD    7137
        0x00003f3c:    00001c12    ....    DCD    7186
        0x00003f40:    79706f63    copy    DCD    2037411683
        0x00003f44:    00000059    Y...    DCD    89
        0x00003f48:    00000000    ....    DCD    0
        0x00003f4c:    00000000    ....    DCD    0
        0x00003f50:    00000000    ....    DCD    0
        0x00003f54:    00000000    ....    DCD    0
        0x00003f58:    00001c91    ....    DCD    7313
        0x00003f5c:    00001e54    T...    DCD    7764
        0x00003f60:    6f636564    deco    DCD    1868784996
        0x00003f64:    654e6564    deNe    DCD    1699636580
        0x00003f68:    434d7478    xtMC    DCD    1129149560
        0x00003f6c:    00000055    U...    DCD    85
        0x00003f70:    00000000    ....    DCD    0
        0x00003f74:    00000000    ....    DCD    0
        0x00003f78:    00002051    Q ..    DCD    8273
        0x00003f7c:    00002084    . ..    DCD    8324
        0x00003f80:    42746567    getB    DCD    1114924391
        0x00003f84:    00007469    it..    DCD    29801
        0x00003f88:    00000000    ....    DCD    0
        0x00003f8c:    00000000    ....    DCD    0
        0x00003f90:    00000000    ....    DCD    0
        0x00003f94:    00000000    ....    DCD    0
        0x00003f98:    00002089    . ..    DCD    8329
        0x00003f9c:    000020fe    . ..    DCD    8446
        0x00003fa0:    42746567    getB    DCD    1114924391
        0x00003fa4:    00737469    its.    DCD    7566441
        0x00003fa8:    00000000    ....    DCD    0
        0x00003fac:    00000000    ....    DCD    0
        0x00003fb0:    00000000    ....    DCD    0
        0x00003fb4:    00000000    ....    DCD    0
        0x00003fb8:    00002105    .!..    DCD    8453
        0x00003fbc:    0000210e    .!..    DCD    8462
        0x00003fc0:    42746567    getB    DCD    1114924391
        0x00003fc4:    31737469    its1    DCD    829650025
        0x00003fc8:    00000000    ....    DCD    0
        0x00003fcc:    00000000    ....    DCD    0
        0x00003fd0:    00000000    ....    DCD    0
        0x00003fd4:    00000000    ....    DCD    0
        0x00003fd8:    0000210f    .!..    DCD    8463
        0x00003fdc:    00002118    .!..    DCD    8472
        0x00003fe0:    42746567    getB    DCD    1114924391
        0x00003fe4:    32737469    its2    DCD    846427241
        0x00003fe8:    00000000    ....    DCD    0
        0x00003fec:    00000000    ....    DCD    0
        0x00003ff0:    00000000    ....    DCD    0
        0x00003ff4:    00000000    ....    DCD    0
        0x00003ff8:    00002119    .!..    DCD    8473
        0x00003ffc:    00002168    h!..    DCD    8552
        0x00004000:    43746567    getC    DCD    1131701607
        0x00004004:    00726168    har.    DCD    7496040
        0x00004008:    00000000    ....    DCD    0
        0x0000400c:    00000000    ....    DCD    0
        0x00004010:    00000000    ....    DCD    0
        0x00004014:    00000000    ....    DCD    0
        0x00004018:    00002171    q!..    DCD    8561
        0x0000401c:    000021da    .!..    DCD    8666
        0x00004020:    45746567    getE    DCD    1165256039
        0x00004024:    6e657478    xten    DCD    1852142712
        0x00004028:    66664f64    dOff    DCD    1717981028
        0x0000402c:    00746573    set.    DCD    7628147
        0x00004030:    00000000    ....    DCD    0
        0x00004034:    00000000    ....    DCD    0
        0x00004038:    000021f9    .!..    DCD    8697
        0x0000403c:    00002260    `"..    DCD    8800
        0x00004040:    45746567    getE    DCD    1165256039
        0x00004044:    6e657478    xten    DCD    1852142712
        0x00004048:    73655464    dTes    DCD    1936020580
        0x0000404c:    00000074    t...    DCD    116
        0x00004050:    00000000    ....    DCD    0
        0x00004054:    00000000    ....    DCD    0
        0x00004058:    00002261    a"..    DCD    8801
        0x0000405c:    00002288    ."..    DCD    8840
        0x00004060:    4f746567    getO    DCD    1333028199
        0x00004064:    74657463    ctet    DCD    1952805987
        0x00004068:    00000000    ....    DCD    0
        0x0000406c:    00000000    ....    DCD    0
        0x00004070:    00000000    ....    DCD    0
        0x00004074:    00000000    ....    DCD    0
        0x00004078:    00002355    U#..    DCD    9045
        0x0000407c:    000023a6    .#..    DCD    9126
        0x00004080:    66667568    huff    DCD    1717990760
        0x00004084:    6f636544    Deco    DCD    1868784964
        0x00004088:    00006564    de..    DCD    25956
        0x0000408c:    00000000    ....    DCD    0
        0x00004090:    00000000    ....    DCD    0
        0x00004094:    00000000    ....    DCD    0
        0x00004098:    000023b1    .#..    DCD    9137
        0x0000409c:    000023ce    .#..    DCD    9166
        0x000040a0:    66667568    huff    DCD    1717990760
        0x000040a4:    65747845    Exte    DCD    1702131781
        0x000040a8:    0000646e    nd..    DCD    25710
        0x000040ac:    00000000    ....    DCD    0
        0x000040b0:    00000000    ....    DCD    0
        0x000040b4:    00000000    ....    DCD    0
        0x000040b8:    000023d1    .#..    DCD    9169
        0x000040bc:    00002574    t%..    DCD    9588
        0x000040c0:    74636469    idct    DCD    1952670825
        0x000040c4:    736c6f43    Cols    DCD    1936486211
        0x000040c8:    00000000    ....    DCD    0
        0x000040cc:    00000000    ....    DCD    0
        0x000040d0:    00000000    ....    DCD    0
        0x000040d4:    00000000    ....    DCD    0
        0x000040d8:    00002579    y%..    DCD    9593
        0x000040dc:    0000266a    j&..    DCD    9834
        0x000040e0:    74636469    idct    DCD    1952670825
        0x000040e4:    73776f52    Rows    DCD    1937207122
        0x000040e8:    00000000    ....    DCD    0
        0x000040ec:    00000000    ....    DCD    0
        0x000040f0:    00000000    ....    DCD    0
        0x000040f4:    00000000    ....    DCD    0
        0x000040f8:    00002671    q&..    DCD    9841
        0x000040fc:    0000267e    ~&..    DCD    9854
        0x00004100:    6c756d69    imul    DCD    1819635049
        0x00004104:    5f31625f    _b1_    DCD    1597071967
        0x00004108:    00003362    b3..    DCD    13154
        0x0000410c:    00000000    ....    DCD    0
        0x00004110:    00000000    ....    DCD    0
        0x00004114:    00000000    ....    DCD    0
        0x00004118:    00002681    .&..    DCD    9857
        0x0000411c:    0000268c    .&..    DCD    9868
        0x00004120:    6c756d69    imul    DCD    1819635049
        0x00004124:    0032625f    _b2.    DCD    3301983
        0x00004128:    00000000    ....    DCD    0
        0x0000412c:    00000000    ....    DCD    0
        0x00004130:    00000000    ....    DCD    0
        0x00004134:    00000000    ....    DCD    0
        0x00004138:    00002691    .&..    DCD    9873
        0x0000413c:    0000269e    .&..    DCD    9886
        0x00004140:    6c756d69    imul    DCD    1819635049
        0x00004144:    0034625f    _b4.    DCD    3433055
        0x00004148:    00000000    ....    DCD    0
        0x0000414c:    00000000    ....    DCD    0
        0x00004150:    00000000    ....    DCD    0
        0x00004154:    00000000    ....    DCD    0
        0x00004158:    0000269f    .&..    DCD    9887
        0x0000415c:    000026aa    .&..    DCD    9898
        0x00004160:    6c756d69    imul    DCD    1819635049
        0x00004164:    0035625f    _b5.    DCD    3498591
        0x00004168:    00000000    ....    DCD    0
        0x0000416c:    00000000    ....    DCD    0
        0x00004170:    00000000    ....    DCD    0
        0x00004174:    00000000    ....    DCD    0
        0x00004178:    000026ad    .&..    DCD    9901
        0x0000417c:    000026dc    .&..    DCD    9948
        0x00004180:    74696e69    init    DCD    1953066601
        0x00004184:    00000000    ....    DCD    0
        0x00004188:    00000000    ....    DCD    0
        0x0000418c:    00000000    ....    DCD    0
        0x00004190:    00000000    ....    DCD    0
        0x00004194:    00000000    ....    DCD    0
        0x00004198:    000026e1    .&..    DCD    9953
        0x0000419c:    000027de    .'..    DCD    10206
        0x000041a0:    74696e69    init    DCD    1953066601
        0x000041a4:    6d617246    Fram    DCD    1835102790
        0x000041a8:    00000065    e...    DCD    101
        0x000041ac:    00000000    ....    DCD    0
        0x000041b0:    00000000    ....    DCD    0
        0x000041b4:    00000000    ....    DCD    0
        0x000041b8:    000027e5    .'..    DCD    10213
        0x000041bc:    000028ae    .(..    DCD    10414
        0x000041c0:    74696e69    init    DCD    1953066601
        0x000041c4:    6e616353    Scan    DCD    1851876179
        0x000041c8:    00000000    ....    DCD    0
        0x000041cc:    00000000    ....    DCD    0
        0x000041d0:    00000000    ....    DCD    0
        0x000041d4:    00000000    ....    DCD    0
        0x000041d8:    000028d9    .(..    DCD    10457
        0x000041dc:    00002950    P)..    DCD    10576
        0x000041e0:    61636f6c    loca    DCD    1633906540
        0x000041e4:    4f536574    teSO    DCD    1330865524
        0x000041e8:    72614d46    FMar    DCD    1918979398
        0x000041ec:    0072656b    ker.    DCD    7497067
        0x000041f0:    00000000    ....    DCD    0
        0x000041f4:    00000000    ....    DCD    0
        0x000041f8:    00003199    .1..    DCD    12697
        0x000041fc:    00003266    f2..    DCD    12902
        0x00004200:    636f7270    proc    DCD    1668248176
        0x00004204:    4d737365    essM    DCD    1299411813
        0x00004208:    656b7261    arke    DCD    1701540449
        0x0000420c:    00007372    rs..    DCD    29554
        0x00004210:    00000000    ....    DCD    0
        0x00004214:    00000000    ....    DCD    0
        0x00004218:    0000326d    m2..    DCD    12909
        0x0000421c:    000032d8    .2..    DCD    13016
        0x00004220:    636f7270    proc    DCD    1668248176
        0x00004224:    52737365    essR    DCD    1383297893
        0x00004228:    61747365    esta    DCD    1635021669
        0x0000422c:    00007472    rt..    DCD    29810
        0x00004230:    00000000    ....    DCD    0
        0x00004234:    00000000    ....    DCD    0
        0x00004238:    000032dd    .2..    DCD    13021
        0x0000423c:    00003420     4..    DCD    13344
        0x00004240:    64616572    read    DCD    1684104562
        0x00004244:    4d544844    DHTM    DCD    1297369156
        0x00004248:    656b7261    arke    DCD    1701540449
        0x0000424c:    00000072    r...    DCD    114
        0x00004250:    00000000    ....    DCD    0
        0x00004254:    00000000    ....    DCD    0
        0x00004258:    00003431    14..    DCD    13361
        0x0000425c:    000034ea    .4..    DCD    13546
        0x00004260:    64616572    read    DCD    1684104562
        0x00004264:    4d545144    DQTM    DCD    1297371460
        0x00004268:    656b7261    arke    DCD    1701540449
        0x0000426c:    00000072    r...    DCD    114
        0x00004270:    00000000    ....    DCD    0
        0x00004274:    00000000    ....    DCD    0
        0x00004278:    000034f9    .4..    DCD    13561
        0x0000427c:    000035aa    .5..    DCD    13738
        0x00004280:    64616572    read    DCD    1684104562
        0x00004284:    4d464f53    SOFM    DCD    1296453459
        0x00004288:    656b7261    arke    DCD    1701540449
        0x0000428c:    00000072    r...    DCD    114
        0x00004290:    00000000    ....    DCD    0
        0x00004294:    00000000    ....    DCD    0
        0x00004298:    000035b1    .5..    DCD    13745
        0x0000429c:    00003666    f6..    DCD    13926
        0x000042a0:    64616572    read    DCD    1684104562
        0x000042a4:    4d534f53    SOSM    DCD    1297305427
        0x000042a8:    656b7261    arke    DCD    1701540449
        0x000042ac:    00000072    r...    DCD    114
        0x000042b0:    00000000    ....    DCD    0
        0x000042b4:    00000000    ....    DCD    0
        0x000042b8:    0000366d    m6..    DCD    13933
        0x000042bc:    00003682    .6..    DCD    13954
        0x000042c0:    66757473    stuf    DCD    1718973555
        0x000042c4:    61684366    fCha    DCD    1634222950
        0x000042c8:    00000072    r...    DCD    114
        0x000042cc:    00000000    ....    DCD    0
        0x000042d0:    00000000    ....    DCD    0
        0x000042d4:    00000000    ....    DCD    0
        0x000042d8:    0000368d    .6..    DCD    13965
        0x000042dc:    000036aa    .6..    DCD    13994
        0x000042e0:    41627573    subA    DCD    1096971635
        0x000042e4:    6c43646e    ndCl    DCD    1816355950
        0x000042e8:    00706d61    amp.    DCD    7368033
        0x000042ec:    00000000    ....    DCD    0
        0x000042f0:    00000000    ....    DCD    0
        0x000042f4:    00000000    ....    DCD    0
        0x000042f8:    000036ad    .6..    DCD    13997
        0x000042fc:    000037b8    .7..    DCD    14264
        0x00004300:    6e617274    tran    DCD    1851880052
        0x00004304:    726f6673    sfor    DCD    1919903347
        0x00004308:    6f6c426d    mBlo    DCD    1869365869
        0x0000430c:    00006b63    ck..    DCD    27491
        0x00004310:    00000000    ....    DCD    0
        0x00004314:    00000000    ....    DCD    0
        0x00004318:    000037bd    .7..    DCD    14269
        0x0000431c:    00003aee    .:..    DCD    15086
        0x00004320:    6e617274    tran    DCD    1851880052
        0x00004324:    726f6673    sfor    DCD    1919903347
        0x00004328:    6f6c426d    mBlo    DCD    1869365869
        0x0000432c:    65526b63    ckRe    DCD    1699900259
        0x00004330:    65637564    duce    DCD    1701016932
        0x00004334:    00000000    ....    DCD    0
        0x00004338:    00003b01    .;..    DCD    15105
        0x0000433c:    00003ba6    .;..    DCD    15270
        0x00004340:    61737075    upsa    DCD    1634955381
        0x00004344:    656c706d    mple    DCD    1701605485
        0x00004348:    00006243    Cb..    DCD    25155
        0x0000434c:    00000000    ....    DCD    0
        0x00004350:    00000000    ....    DCD    0
        0x00004354:    00000000    ....    DCD    0
        0x00004358:    00003bb1    .;..    DCD    15281
        0x0000435c:    00003c2e    .<..    DCD    15406
        0x00004360:    61737075    upsa    DCD    1634955381
        0x00004364:    656c706d    mple    DCD    1701605485
        0x00004368:    00486243    CbH.    DCD    4743747
        0x0000436c:    00000000    ....    DCD    0
        0x00004370:    00000000    ....    DCD    0
        0x00004374:    00000000    ....    DCD    0
        0x00004378:    00003c39    9<..    DCD    15417
        0x0000437c:    00003cb8    .<..    DCD    15544
        0x00004380:    61737075    upsa    DCD    1634955381
        0x00004384:    656c706d    mple    DCD    1701605485
        0x00004388:    00566243    CbV.    DCD    5661251
        0x0000438c:    00000000    ....    DCD    0
        0x00004390:    00000000    ....    DCD    0
        0x00004394:    00000000    ....    DCD    0
        0x00004398:    00003cc1    .<..    DCD    15553
        0x0000439c:    00003d68    h=..    DCD    15720
        0x000043a0:    61737075    upsa    DCD    1634955381
        0x000043a4:    656c706d    mple    DCD    1701605485
        0x000043a8:    00007243    Cr..    DCD    29251
        0x000043ac:    00000000    ....    DCD    0
        0x000043b0:    00000000    ....    DCD    0
        0x000043b4:    00000000    ....    DCD    0
        0x000043b8:    00003d6d    m=..    DCD    15725
        0x000043bc:    00003dec    .=..    DCD    15852
        0x000043c0:    61737075    upsa    DCD    1634955381
        0x000043c4:    656c706d    mple    DCD    1701605485
        0x000043c8:    00487243    CrH.    DCD    4747843
        0x000043cc:    00000000    ....    DCD    0
        0x000043d0:    00000000    ....    DCD    0
        0x000043d4:    00000000    ....    DCD    0
        0x000043d8:    00003df1    .=..    DCD    15857
        0x000043dc:    00003e72    r>..    DCD    15986
        0x000043e0:    61737075    upsa    DCD    1634955381
        0x000043e4:    656c706d    mple    DCD    1701605485
        0x000043e8:    00567243    CrV.    DCD    5665347
        0x000043ec:    00000000    ....    DCD    0
        0x000043f0:    00000000    ....    DCD    0
        0x000043f4:    00000000    ....    DCD    0
        0x000043f8:    00001aad    ....    DCD    6829
        0x000043fc:    00001af8    ....    DCD    6904
        0x00004400:    63656863    chec    DCD    1667590243
        0x00004404:    73665f6b    k_fs    DCD    1936088939
        0x00004408:    00000000    ....    DCD    0
        0x0000440c:    00000000    ....    DCD    0
        0x00004410:    00000000    ....    DCD    0
        0x00004414:    00000000    ....    DCD    0
        0x00004418:    00001b1d    ....    DCD    6941
        0x0000441c:    00001b38    8...    DCD    6968
        0x00004420:    73756c63    clus    DCD    1937075299
        0x00004424:    65733274    t2se    DCD    1702048372
        0x00004428:    00007463    ct..    DCD    29795
        0x0000442c:    00000000    ....    DCD    0
        0x00004430:    00000000    ....    DCD    0
        0x00004434:    00000000    ....    DCD    0
        0x00004438:    00001c19    ....    DCD    7193
        0x0000443c:    00001c8c    ....    DCD    7308
        0x00004440:    61657263    crea    DCD    1634038371
        0x00004444:    6e5f6574    te_n    DCD    1851745652
        0x00004448:    00656d61    ame.    DCD    6647137
        0x0000444c:    00000000    ....    DCD    0
        0x00004450:    00000000    ....    DCD    0
        0x00004454:    00000000    ....    DCD    0
        0x00004458:    00001e6d    m...    DCD    7789
        0x0000445c:    00001ece    ....    DCD    7886
        0x00004460:    5f726964    dir_    DCD    1601333604
        0x00004464:    646e6966    find    DCD    1684957542
        0x00004468:    00000000    ....    DCD    0
        0x0000446c:    00000000    ....    DCD    0
        0x00004470:    00000000    ....    DCD    0
        0x00004474:    00000000    ....    DCD    0
        0x00004478:    00001ed1    ....    DCD    7889
        0x0000447c:    00001f2c    ,...    DCD    7980
        0x00004480:    5f726964    dir_    DCD    1601333604
        0x00004484:    7478656e    next    DCD    1954047342
        0x00004488:    00000000    ....    DCD    0
        0x0000448c:    00000000    ....    DCD    0
        0x00004490:    00000000    ....    DCD    0
        0x00004494:    00000000    ....    DCD    0
        0x00004498:    00001f31    1...    DCD    7985
        0x0000449c:    00001f5e    ^...    DCD    8030
        0x000044a0:    5f726964    dir_    DCD    1601333604
        0x000044a4:    69776572    rewi    DCD    1769432434
        0x000044a8:    0000646e    nd..    DCD    25710
        0x000044ac:    00000000    ....    DCD    0
        0x000044b0:    00000000    ....    DCD    0
        0x000044b4:    00000000    ....    DCD    0
        0x000044b8:    00001f95    ....    DCD    8085
        0x000044bc:    00001ffc    ....    DCD    8188
        0x000044c0:    6c6c6f66    foll    DCD    1819045734
        0x000044c4:    705f776f    ow_p    DCD    1885304687
        0x000044c8:    00687461    ath.    DCD    6845537
        0x000044cc:    00000000    ....    DCD    0
        0x000044d0:    00000000    ....    DCD    0
        0x000044d4:    00000000    ....    DCD    0
        0x000044d8:    00002289    ."..    DCD    8841
        0x000044dc:    000022a0    ."..    DCD    8864
        0x000044e0:    5f746567    get_    DCD    1601463655
        0x000044e4:    73756c63    clus    DCD    1937075299
        0x000044e8:    00000074    t...    DCD    116
        0x000044ec:    00000000    ....    DCD    0
        0x000044f0:    00000000    ....    DCD    0
        0x000044f4:    00000000    ....    DCD    0
        0x000044f8:    000022a1    ."..    DCD    8865
        0x000044fc:    000022dc    ."..    DCD    8924
        0x00004500:    5f746567    get_    DCD    1601463655
        0x00004504:    00746166    fat.    DCD    7627110
        0x00004508:    00000000    ....    DCD    0
        0x0000450c:    00000000    ....    DCD    0
        0x00004510:    00000000    ....    DCD    0
        0x00004514:    00000000    ....    DCD    0
        0x00004518:    000022e1    ."..    DCD    8929
        0x0000451c:    00002352    R#..    DCD    9042
        0x00004520:    5f746567    get_    DCD    1601463655
        0x00004524:    656c6966    file    DCD    1701603686
        0x00004528:    6f666e69    info    DCD    1868983913
        0x0000452c:    00000000    ....    DCD    0
        0x00004530:    00000000    ....    DCD    0
        0x00004534:    00000000    ....    DCD    0
        0x00004538:    000028b5    .(..    DCD    10421
        0x0000453c:    000028ca    .(..    DCD    10442
        0x00004540:    645f646c    ld_d    DCD    1683973228
        0x00004544:    64726f77    word    DCD    1685221239
        0x00004548:    00000000    ....    DCD    0
        0x0000454c:    00000000    ....    DCD    0
        0x00004550:    00000000    ....    DCD    0
        0x00004554:    00000000    ....    DCD    0
        0x00004558:    000028cb    .(..    DCD    10443
        0x0000455c:    000028d6    .(..    DCD    10454
        0x00004560:    775f646c    ld_w    DCD    2002740332
        0x00004564:    0064726f    ord.    DCD    6582895
        0x00004568:    00000000    ....    DCD    0
        0x0000456c:    00000000    ....    DCD    0
        0x00004570:    00000000    ....    DCD    0
        0x00004574:    00000000    ....    DCD    0
        0x00004578:    000000d5    ....    DCD    213
        0x0000457c:    000000e0    ....    DCD    224
        0x00004580:    65736552    Rese    DCD    1702061394
        0x00004584:    61485f74    t_Ha    DCD    1632132980
        0x00004588:    656c646e    ndle    DCD    1701602414
        0x0000458c:    00000072    r...    DCD    114
        0x00004590:    00000000    ....    DCD    0
        0x00004594:    00000000    ....    DCD    0
        0x00004598:    000000e1    ....    DCD    225
        0x0000459c:    000000e2    ....    DCD    226
        0x000045a0:    5f494d4e    NMI_    DCD    1598639438
        0x000045a4:    646e6148    Hand    DCD    1684955464
        0x000045a8:    0072656c    ler.    DCD    7497068
        0x000045ac:    00000000    ....    DCD    0
        0x000045b0:    00000000    ....    DCD    0
        0x000045b4:    00000000    ....    DCD    0
        0x000045b8:    000000e3    ....    DCD    227
        0x000045bc:    000000e4    ....    DCD    228
        0x000045c0:    64726148    Hard    DCD    1685217608
        0x000045c4:    6c756146    Faul    DCD    1819631942
        0x000045c8:    61485f74    t_Ha    DCD    1632132980
        0x000045cc:    656c646e    ndle    DCD    1701602414
        0x000045d0:    00000072    r...    DCD    114
        0x000045d4:    00000000    ....    DCD    0
        0x000045d8:    000000e5    ....    DCD    229
        0x000045dc:    000000e6    ....    DCD    230
        0x000045e0:    5f435653    SVC_    DCD    1598248531
        0x000045e4:    646e6148    Hand    DCD    1684955464
        0x000045e8:    0072656c    ler.    DCD    7497068
        0x000045ec:    00000000    ....    DCD    0
        0x000045f0:    00000000    ....    DCD    0
        0x000045f4:    00000000    ....    DCD    0
        0x000045f8:    000000e7    ....    DCD    231
        0x000045fc:    000000e8    ....    DCD    232
        0x00004600:    646e6550    Pend    DCD    1684956496
        0x00004604:    485f5653    SV_H    DCD    1214207571
        0x00004608:    6c646e61    andl    DCD    1818521185
        0x0000460c:    00007265    er..    DCD    29285
        0x00004610:    00000000    ....    DCD    0
        0x00004614:    00000000    ....    DCD    0
        0x00004618:    000000e9    ....    DCD    233
        0x0000461c:    000000ea    ....    DCD    234
        0x00004620:    54737953    SysT    DCD    1416853843
        0x00004624:    5f6b6369    ick_    DCD    1600873321
        0x00004628:    646e6148    Hand    DCD    1684955464
        0x0000462c:    0072656c    ler.    DCD    7497068
        0x00004630:    00000000    ....    DCD    0
        0x00004634:    00000000    ....    DCD    0
        0x00004638:    0000014d    M...    DCD    333
        0x0000463c:    0000017e    ~...    DCD    382
        0x00004640:    746e6f43    Cont    DCD    1953394499
        0x00004644:    5f6c6f72    rol_    DCD    1600941938
        0x00004648:    5f424752    RGB_    DCD    1598179154
        0x0000464c:    7344454c    LEDs    DCD    1933854028
        0x00004650:    00000000    ....    DCD    0
        0x00004654:    00000000    ....    DCD    0
        0x00004658:    00000185    ....    DCD    389
        0x0000465c:    00000196    ....    DCD    406
        0x00004660:    616c6544    Dela    DCD    1634493764
        0x00004664:    00000079    y...    DCD    121
        0x00004668:    00000000    ....    DCD    0
        0x0000466c:    00000000    ....    DCD    0
        0x00004670:    00000000    ....    DCD    0
        0x00004674:    00000000    ....    DCD    0
        0x00004678:    0000019d    ....    DCD    413
        0x0000467c:    000001a4    ....    DCD    420
        0x00004680:    61736944    Disa    DCD    1634953540
        0x00004684:    5f656c62    ble_    DCD    1600482402
        0x00004688:    666f7250    Prof    DCD    1718579792
        0x0000468c:    6e696c69    ilin    DCD    1852402793
        0x00004690:    00000067    g...    DCD    103
        0x00004694:    00000000    ....    DCD    0
        0x00004698:    000001a9    ....    DCD    425
        0x0000469c:    0000026a    j...    DCD    618
        0x000046a0:    70736944    Disp    DCD    1886611780
        0x000046a4:    5f79616c    lay_    DCD    1601790316
        0x000046a8:    666f7250    Prof    DCD    1718579792
        0x000046ac:    00656c69    ile.    DCD    6646889
        0x000046b0:    00000000    ....    DCD    0
        0x000046b4:    00000000    ....    DCD    0
        0x000046b8:    000002bd    ....    DCD    701
        0x000046bc:    000002c4    ....    DCD    708
        0x000046c0:    62616e45    Enab    DCD    1650552389
        0x000046c4:    505f656c    le_P    DCD    1348429164
        0x000046c8:    69666f72    rofi    DCD    1768320882
        0x000046cc:    676e696c    ling    DCD    1735289196
        0x000046d0:    00000000    ....    DCD    0
        0x000046d4:    00000000    ....    DCD    0
        0x000046d8:    000002c9    ....    DCD    713
        0x000046dc:    000002e0    ....    DCD    736
        0x000046e0:    74696e49    Init    DCD    1953066569
        0x000046e4:    4344415f    _ADC    DCD    1128546655
        0x000046e8:    00000000    ....    DCD    0
        0x000046ec:    00000000    ....    DCD    0
        0x000046f0:    00000000    ....    DCD    0
        0x000046f4:    00000000    ....    DCD    0
        0x000046f8:    000002e9    ....    DCD    745
        0x000046fc:    0000035c    \...    DCD    860
        0x00004700:    74696e49    Init    DCD    1953066569
        0x00004704:    6265445f    _Deb    DCD    1650803807
        0x00004708:    535f6775    ug_S    DCD    1398761333
        0x0000470c:    616e6769    igna    DCD    1634625385
        0x00004710:    0000736c    ls..    DCD    29548
        0x00004714:    00000000    ....    DCD    0
        0x00004718:    0000036d    m...    DCD    877
        0x0000471c:    000003ba    ....    DCD    954
        0x00004720:    74696e49    Init    DCD    1953066569
        0x00004724:    6f72505f    _Pro    DCD    1869762655
        0x00004728:    696c6966    fili    DCD    1768712550
        0x0000472c:    0000676e    ng..    DCD    26478
        0x00004730:    00000000    ....    DCD    0
        0x00004734:    00000000    ....    DCD    0
        0x00004738:    000003ed    ....    DCD    1005
        0x0000473c:    000003f6    ....    DCD    1014
        0x00004740:    5f44434c    LCD_    DCD    1598309196
        0x00004744:    73617245    Eras    DCD    1935766085
        0x00004748:    00000065    e...    DCD    101
        0x0000474c:    00000000    ....    DCD    0
        0x00004750:    00000000    ....    DCD    0
        0x00004754:    00000000    ....    DCD    0
        0x00004758:    00000411    ....    DCD    1041
        0x0000475c:    00000464    d...    DCD    1124
        0x00004760:    74696e49    Init    DCD    1953066569
        0x00004764:    4247525f    _RGB    DCD    1111970399
        0x00004768:    44454c5f    _LED    DCD    1145392223
        0x0000476c:    00000073    s...    DCD    115
        0x00004770:    00000000    ....    DCD    0
        0x00004774:    00000000    ....    DCD    0
        0x00004778:    00000491    ....    DCD    1169
        0x0000477c:    000004e8    ....    DCD    1256
        0x00004780:    5f44434c    LCD_    DCD    1598309196
        0x00004784:    746e6f43    Cont    DCD    1953394499
        0x00004788:    6c6c6f72    roll    DCD    1819045746
        0x0000478c:    495f7265    er_I    DCD    1230991973
        0x00004790:    0074696e    nit.    DCD    7629166
        0x00004794:    00000000    ....    DCD    0
        0x00004798:    000004ed    ....    DCD    1261
        0x0000479c:    0000056e    n...    DCD    1390
        0x000047a0:    5f44434c    LCD_    DCD    1598309196
        0x000047a4:    6c6c6946    Fill    DCD    1819044166
        0x000047a8:    6675425f    _Buf    DCD    1718960735
        0x000047ac:    00726566    fer.    DCD    7497062
        0x000047b0:    00000000    ....    DCD    0
        0x000047b4:    00000000    ....    DCD    0
        0x000047b8:    00000571    q...    DCD    1393
        0x000047bc:    0000061c    ....    DCD    1564
        0x000047c0:    5f44434c    LCD_    DCD    1598309196
        0x000047c4:    4f495047    GPIO    DCD    1330204743
        0x000047c8:    696e495f    _Ini    DCD    1768835423
        0x000047cc:    00000074    t...    DCD    116
        0x000047d0:    00000000    ....    DCD    0
        0x000047d4:    00000000    ....    DCD    0
        0x000047d8:    00000629    )...    DCD    1577
        0x000047dc:    00000676    v...    DCD    1654
        0x000047e0:    5f44434c    LCD_    DCD    1598309196
        0x000047e4:    74696e49    Init    DCD    1953066569
        0x000047e8:    00000000    ....    DCD    0
        0x000047ec:    00000000    ....    DCD    0
        0x000047f0:    00000000    ....    DCD    0
        0x000047f4:    00000000    ....    DCD    0
        0x000047f8:    00000691    ....    DCD    1681
        0x000047fc:    00000726    &...    DCD    1830
        0x00004800:    5f44434c    LCD_    DCD    1598309196
        0x00004804:    4745504a    JPEG    DCD    1195724874
        0x00004808:    00000000    ....    DCD    0
        0x0000480c:    00000000    ....    DCD    0
        0x00004810:    00000000    ....    DCD    0
        0x00004814:    00000000    ....    DCD    0
        0x00004818:    00000781    ....    DCD    1921
        0x0000481c:    000007f2    ....    DCD    2034
        0x00004820:    5f44434c    LCD_    DCD    1598309196
        0x00004824:    746f6c50    Plot    DCD    1953459280
        0x00004828:    7869505f    _Pix    DCD    2020167775
        0x0000482c:    00006c65    el..    DCD    27749
        0x00004830:    00000000    ....    DCD    0
        0x00004834:    00000000    ....    DCD    0
        0x00004838:    000007f3    ....    DCD    2035
        0x0000483c:    00000888    ....    DCD    2184
        0x00004840:    5f44434c    LCD_    DCD    1598309196
        0x00004844:    72617453    Star    DCD    1918989395
        0x00004848:    65525f74    t_Re    DCD    1699897204
        0x0000484c:    6e617463    ctan    DCD    1851880547
        0x00004850:    00656c67    gle.    DCD    6646887
        0x00004854:    00000000    ....    DCD    0
        0x00004858:    00000889    ....    DCD    2185
        0x0000485c:    000008ac    ....    DCD    2220
        0x00004860:    5f44434c    LCD_    DCD    1598309196
        0x00004864:    425f5354    TS_B    DCD    1113543508
        0x00004868:    6b636f6c    lock    DCD    1801678700
        0x0000486c:    5f676e69    ing_    DCD    1600613993
        0x00004870:    64616552    Read    DCD    1684104530
        0x00004874:    00000000    ....    DCD    0
        0x00004878:    000008ad    ....    DCD    2221
        0x0000487c:    000008b4    ....    DCD    2228
        0x00004880:    5f44434c    LCD_    DCD    1598309196
        0x00004884:    495f5354    TS_I    DCD    1230984020
        0x00004888:    0074696e    nit.    DCD    7629166
        0x0000488c:    00000000    ....    DCD    0
        0x00004890:    00000000    ....    DCD    0
        0x00004894:    00000000    ....    DCD    0
        0x00004898:    000008b5    ....    DCD    2229
        0x0000489c:    00000a3e    >...    DCD    2622
        0x000048a0:    5f44434c    LCD_    DCD    1598309196
        0x000048a4:    525f5354    TS_R    DCD    1381978964
        0x000048a8:    00646165    ead.    DCD    6578533
        0x000048ac:    00000000    ....    DCD    0
        0x000048b0:    00000000    ....    DCD    0
        0x000048b4:    00000000    ....    DCD    0
        0x000048b8:    00000a55    U...    DCD    2645
        0x000048bc:    00000a66    f...    DCD    2662
        0x000048c0:    5f44434c    LCD_    DCD    1598309196
        0x000048c4:    74786554    Text    DCD    1954047316
        0x000048c8:    7465475f    _Get    DCD    1952794463
        0x000048cc:    70796c47    Glyp    DCD    1887005767
        0x000048d0:    64695768    hWid    DCD    1684625256
        0x000048d4:    00006874    th..    DCD    26740
        0x000048d8:    00000a6d    m...    DCD    2669
        0x000048dc:    00000a98    ....    DCD    2712
        0x000048e0:    5f44434c    LCD_    DCD    1598309196
        0x000048e4:    74786554    Text    DCD    1954047316
        0x000048e8:    696e495f    _Ini    DCD    1768835423
        0x000048ec:    00000074    t...    DCD    116
        0x000048f0:    00000000    ....    DCD    0
        0x000048f4:    00000000    ....    DCD    0
        0x000048f8:    00000aa1    ....    DCD    2721
        0x000048fc:    00000c1c    ....    DCD    3100
        0x00004900:    5f44434c    LCD_    DCD    1598309196
        0x00004904:    74786554    Text    DCD    1954047316
        0x00004908:    6972505f    _Pri    DCD    1769099359
        0x0000490c:    6843746e    ntCh    DCD    1749251182
        0x00004910:    00007261    ar..    DCD    29281
        0x00004914:    00000000    ....    DCD    0
        0x00004918:    00000c21    !...    DCD    3105
        0x0000491c:    00000c52    R...    DCD    3154
        0x00004920:    5f44434c    LCD_    DCD    1598309196
        0x00004924:    74786554    Text    DCD    1954047316
        0x00004928:    6972505f    _Pri    DCD    1769099359
        0x0000492c:    7453746e    ntSt    DCD    1951626350
        0x00004930:    00000072    r...    DCD    114
        0x00004934:    00000000    ....    DCD    0
        0x00004938:    00000c59    Y...    DCD    3161
        0x0000493c:    00000c94    ....    DCD    3220
        0x00004940:    5f44434c    LCD_    DCD    1598309196
        0x00004944:    74786554    Text    DCD    1954047316
        0x00004948:    6972505f    _Pri    DCD    1769099359
        0x0000494c:    7453746e    ntSt    DCD    1951626350
        0x00004950:    43525f72    r_RC    DCD    1129471858
        0x00004954:    00000000    ....    DCD    0
        0x00004958:    00000c99    ....    DCD    3225
        0x0000495c:    00000cb8    ....    DCD    3256
        0x00004960:    5f44434c    LCD_    DCD    1598309196
        0x00004964:    74786554    Text    DCD    1954047316
        0x00004968:    7465535f    _Set    DCD    1952797535
        0x0000496c:    6c6f435f    _Col    DCD    1819231071
        0x00004970:    0073726f    ors.    DCD    7565935
        0x00004974:    00000000    ....    DCD    0
        0x00004978:    00000cbd    ....    DCD    3261
        0x0000497c:    00000d14    ....    DCD    3348
        0x00004980:    5f44434c    LCD_    DCD    1598309196
        0x00004984:    74697257    Writ    DCD    1953067607
        0x00004988:    65525f65    e_Re    DCD    1699897189
        0x0000498c:    6e617463    ctan    DCD    1851880547
        0x00004990:    5f656c67    gle_    DCD    1600482407
        0x00004994:    75515f4e    N_Qu    DCD    1968267086
        0x00004998:    00000d1d    ....    DCD    3357
        0x0000499c:    00000d4c    L...    DCD    3404
        0x000049a0:    5f44434c    LCD_    DCD    1598309196
        0x000049a4:    74697257    Writ    DCD    1953067607
        0x000049a8:    65525f65    e_Re    DCD    1699897189
        0x000049ac:    6e617463    ctan    DCD    1851880547
        0x000049b0:    5f656c67    gle_    DCD    1600482407
        0x000049b4:    65786950    Pixe    DCD    1702390096
        0x000049b8:    00000df9    ....    DCD    3577
        0x000049bc:    00000e54    T...    DCD    3668
        0x000049c0:    5f4d5750    PWM_    DCD    1598904144
        0x000049c4:    74696e49    Init    DCD    1953066569
        0x000049c8:    00000000    ....    DCD    0
        0x000049cc:    00000000    ....    DCD    0
        0x000049d0:    00000000    ....    DCD    0
        0x000049d4:    00000000    ....    DCD    0
        0x000049d8:    00000e65    e...    DCD    3685
        0x000049dc:    00000ec2    ....    DCD    3778
        0x000049e0:    636f7250    Proc    DCD    1668248144
        0x000049e4:    5f737365    ess_    DCD    1601401701
        0x000049e8:    666f7250    Prof    DCD    1718579792
        0x000049ec:    5f656c69    ile_    DCD    1600482409
        0x000049f0:    706d6153    Samp    DCD    1886216531
        0x000049f4:    0000656c    le..    DCD    25964
        0x000049f8:    00000f65    e...    DCD    3941
        0x000049fc:    00001132    2...    DCD    4402
        0x00004a00:    495f4453    SD_I    DCD    1230980179
        0x00004a04:    0074696e    nit.    DCD    7629166
        0x00004a08:    00000000    ....    DCD    0
        0x00004a0c:    00000000    ....    DCD    0
        0x00004a10:    00000000    ....    DCD    0
        0x00004a14:    00000000    ....    DCD    0
        0x00004a18:    00001139    9...    DCD    4409
        0x00004a1c:    000011e2    ....    DCD    4578
        0x00004a20:    525f4453    SD_R    DCD    1381975123
        0x00004a24:    00646165    ead.    DCD    6578533
        0x00004a28:    00000000    ....    DCD    0
        0x00004a2c:    00000000    ....    DCD    0
        0x00004a30:    00000000    ....    DCD    0
        0x00004a34:    00000000    ....    DCD    0
        0x00004a38:    000011ed    ....    DCD    4589
        0x00004a3c:    000011f8    ....    DCD    4600
        0x00004a40:    5f495053    SPI_    DCD    1598640211
        0x00004a44:    485f5343    CS_H    DCD    1214206787
        0x00004a48:    00686769    igh.    DCD    6842217
        0x00004a4c:    00000000    ....    DCD    0
        0x00004a50:    00000000    ....    DCD    0
        0x00004a54:    00000000    ....    DCD    0
        0x00004a58:    000011fd    ....    DCD    4605
        0x00004a5c:    00001208    ....    DCD    4616
        0x00004a60:    5f495053    SPI_    DCD    1598640211
        0x00004a64:    4c5f5343    CS_L    DCD    1281315651
        0x00004a68:    0000776f    ow..    DCD    30575
        0x00004a6c:    00000000    ....    DCD    0
        0x00004a70:    00000000    ....    DCD    0
        0x00004a74:    00000000    ....    DCD    0
        0x00004a78:    0000120d    ....    DCD    4621
        0x00004a7c:    00001214    ....    DCD    4628
        0x00004a80:    5f495053    SPI_    DCD    1598640211
        0x00004a84:    71657246    Freq    DCD    1902473798
        0x00004a88:    6769485f    _Hig    DCD    1734953055
        0x00004a8c:    00000068    h...    DCD    104
        0x00004a90:    00000000    ....    DCD    0
        0x00004a94:    00000000    ....    DCD    0
        0x00004a98:    00001219    ....    DCD    4633
        0x00004a9c:    00001220     ...    DCD    4640
        0x00004aa0:    5f495053    SPI_    DCD    1598640211
        0x00004aa4:    71657246    Freq    DCD    1902473798
        0x00004aa8:    776f4c5f    _Low    DCD    2003782751
        0x00004aac:    00000000    ....    DCD    0
        0x00004ab0:    00000000    ....    DCD    0
        0x00004ab4:    00000000    ....    DCD    0
        0x00004ab8:    00001225    %...    DCD    4645
        0x00004abc:    00001264    d...    DCD    4708
        0x00004ac0:    5f495053    SPI_    DCD    1598640211
        0x00004ac4:    74696e49    Init    DCD    1953066569
        0x00004ac8:    00000000    ....    DCD    0
        0x00004acc:    00000000    ....    DCD    0
        0x00004ad0:    00000000    ....    DCD    0
        0x00004ad4:    00000000    ....    DCD    0
        0x00004ad8:    00001279    y...    DCD    4729
        0x00004adc:    000012a0    ....    DCD    4768
        0x00004ae0:    5f495053    SPI_    DCD    1598640211
        0x00004ae4:    00005752    RW..    DCD    22354
        0x00004ae8:    00000000    ....    DCD    0
        0x00004aec:    00000000    ....    DCD    0
        0x00004af0:    00000000    ....    DCD    0
        0x00004af4:    00000000    ....    DCD    0
        0x00004af8:    000012a9    ....    DCD    4777
        0x00004afc:    000012c4    ....    DCD    4804
        0x00004b00:    5f495053    SPI_    DCD    1598640211
        0x00004b04:    656c6552    Rele    DCD    1701602642
        0x00004b08:    00657361    ase.    DCD    6648673
        0x00004b0c:    00000000    ....    DCD    0
        0x00004b10:    00000000    ....    DCD    0
        0x00004b14:    00000000    ....    DCD    0
        0x00004b18:    000012c5    ....    DCD    4805
        0x00004b1c:    000012cc    ....    DCD    4812
        0x00004b20:    5f495053    SPI_    DCD    1598640211
        0x00004b24:    656d6954    Time    DCD    1701669204
        0x00004b28:    664f5f72    r_Of    DCD    1716477810
        0x00004b2c:    00000066    f...    DCD    102
        0x00004b30:    00000000    ....    DCD    0
        0x00004b34:    00000000    ....    DCD    0
        0x00004b38:    000012d1    ....    DCD    4817
        0x00004b3c:    000012ea    ....    DCD    4842
        0x00004b40:    5f495053    SPI_    DCD    1598640211
        0x00004b44:    656d6954    Time    DCD    1701669204
        0x00004b48:    6e4f5f72    r_On    DCD    1850695538
        0x00004b4c:    00000000    ....    DCD    0
        0x00004b50:    00000000    ....    DCD    0
        0x00004b54:    00000000    ....    DCD    0
        0x00004b58:    000012f5    ....    DCD    4853
        0x00004b5c:    00001300    ....    DCD    4864
        0x00004b60:    5f495053    SPI_    DCD    1598640211
        0x00004b64:    656d6954    Time    DCD    1701669204
        0x00004b68:    74535f72    r_St    DCD    1951620978
        0x00004b6c:    73757461    atus    DCD    1937077345
        0x00004b70:    00000000    ....    DCD    0
        0x00004b74:    00000000    ....    DCD    0
        0x00004b78:    00001305    ....    DCD    4869
        0x00004b7c:    0000139c    ....    DCD    5020
        0x00004b80:    74726f53    Sort    DCD    1953656659
        0x00004b84:    6f72505f    _Pro    DCD    1869762655
        0x00004b88:    656c6966    file    DCD    1701603686
        0x00004b8c:    6765525f    _Reg    DCD    1734693471
        0x00004b90:    736e6f69    ions    DCD    1936617321
        0x00004b94:    00000000    ....    DCD    0
        0x00004b98:    000013ad    ....    DCD    5037
        0x00004b9c:    00001466    f...    DCD    5222
        0x00004ba0:    74737953    Syst    DCD    1953724755
        0x00004ba4:    6e496d65    emIn    DCD    1850305893
        0x00004ba8:    00007469    it..    DCD    29801
        0x00004bac:    00000000    ....    DCD    0
        0x00004bb0:    00000000    ....    DCD    0
        0x00004bb4:    00000000    ....    DCD    0
        0x00004bb8:    00001495    ....    DCD    5269
        0x00004bbc:    000014a0    ....    DCD    5280
        0x00004bc0:    304d5054    TPM0    DCD    810373204
        0x00004bc4:    5152495f    _IRQ    DCD    1364347231
        0x00004bc8:    646e6148    Hand    DCD    1684955464
        0x00004bcc:    0072656c    ler.    DCD    7497068
        0x00004bd0:    00000000    ....    DCD    0
        0x00004bd4:    00000000    ....    DCD    0
        0x00004bd8:    000014a5    ....    DCD    5285
        0x00004bdc:    000014fc    ....    DCD    5372
        0x00004be0:    54524155    UART    DCD    1414676821
        0x00004be4:    52495f30    0_IR    DCD    1380540208
        0x00004be8:    6e614851    QHan    DCD    1851869265
        0x00004bec:    72656c64    dler    DCD    1919249508
        0x00004bf0:    00000000    ....    DCD    0
        0x00004bf4:    00000000    ....    DCD    0
        0x00004bf8:    00001f65    e...    DCD    8037
        0x00004bfc:    00001f74    t...    DCD    8052
        0x00004c00:    6b736964    disk    DCD    1802725732
        0x00004c04:    696e695f    _ini    DCD    1768843615
        0x00004c08:    6c616974    tial    DCD    1818323316
        0x00004c0c:    00657a69    ize.    DCD    6650473
        0x00004c10:    00000000    ....    DCD    0
        0x00004c14:    00000000    ....    DCD    0
        0x00004c18:    00001f79    y...    DCD    8057
        0x00004c1c:    00001f90    ....    DCD    8080
        0x00004c20:    6b736964    disk    DCD    1802725732
        0x00004c24:    6165725f    _rea    DCD    1634038367
        0x00004c28:    00007064    dp..    DCD    28772
        0x00004c2c:    00000000    ....    DCD    0
        0x00004c30:    00000000    ....    DCD    0
        0x00004c34:    00000000    ....    DCD    0
        0x00004c38:    00001ffd    ....    DCD    8189
        0x00004c3c:    0000204c    L ..    DCD    8268
        0x00004c40:    65657266    free    DCD    1701147238
        0x00004c44:    00000000    ....    DCD    0
        0x00004c48:    00000000    ....    DCD    0
        0x00004c4c:    00000000    ....    DCD    0
        0x00004c50:    00000000    ....    DCD    0
        0x00004c54:    00000000    ....    DCD    0
        0x00004c58:    00002955    U)..    DCD    10581
        0x00004c5c:    00002a04    .*..    DCD    10756
        0x00004c60:    6e69616d    main    DCD    1852399981
        0x00004c64:    00000000    ....    DCD    0
        0x00004c68:    00000000    ....    DCD    0
        0x00004c6c:    00000000    ....    DCD    0
        0x00004c70:    00000000    ....    DCD    0
        0x00004c74:    00000000    ....    DCD    0
        0x00004c78:    00002a65    e*..    DCD    10853
        0x00004c7c:    00002ac0    .*..    DCD    10944
        0x00004c80:    6c6c616d    mall    DCD    1819042157
        0x00004c84:    0000636f    oc..    DCD    25455
        0x00004c88:    00000000    ....    DCD    0
        0x00004c8c:    00000000    ....    DCD    0
        0x00004c90:    00000000    ....    DCD    0
        0x00004c94:    00000000    ....    DCD    0
        0x00004c98:    00002ad1    .*..    DCD    10961
        0x00004c9c:    00002bd0    .+..    DCD    11216
        0x00004ca0:    6d5f6670    pf_m    DCD    1834968688
        0x00004ca4:    746e756f    ount    DCD    1953396079
        0x00004ca8:    00000000    ....    DCD    0
        0x00004cac:    00000000    ....    DCD    0
        0x00004cb0:    00000000    ....    DCD    0
        0x00004cb4:    00000000    ....    DCD    0
        0x00004cb8:    00002bd9    .+..    DCD    11225
        0x00004cbc:    00002c2e    .,..    DCD    11310
        0x00004cc0:    6f5f6670    pf_o    DCD    1868523120
        0x00004cc4:    006e6570    pen.    DCD    7234928
        0x00004cc8:    00000000    ....    DCD    0
        0x00004ccc:    00000000    ....    DCD    0
        0x00004cd0:    00000000    ....    DCD    0
        0x00004cd4:    00000000    ....    DCD    0
        0x00004cd8:    00002c35    5,..    DCD    11317
        0x00004cdc:    00002c7e    ~,..    DCD    11390
        0x00004ce0:    6f5f6670    pf_o    DCD    1868523120
        0x00004ce4:    646e6570    pend    DCD    1684956528
        0x00004ce8:    00007269    ir..    DCD    29289
        0x00004cec:    00000000    ....    DCD    0
        0x00004cf0:    00000000    ....    DCD    0
        0x00004cf4:    00000000    ....    DCD    0
        0x00004cf8:    00002c85    .,..    DCD    11397
        0x00004cfc:    00002d4c    L-..    DCD    11596
        0x00004d00:    725f6670    pf_r    DCD    1918854768
        0x00004d04:    00646165    ead.    DCD    6578533
        0x00004d08:    00000000    ....    DCD    0
        0x00004d0c:    00000000    ....    DCD    0
        0x00004d10:    00000000    ....    DCD    0
        0x00004d14:    00000000    ....    DCD    0
        0x00004d18:    00002d55    U-..    DCD    11605
        0x00004d1c:    00002dec    .-..    DCD    11756
        0x00004d20:    725f6670    pf_r    DCD    1918854768
        0x00004d24:    64646165    eadd    DCD    1684300133
        0x00004d28:    00007269    ir..    DCD    29289
        0x00004d2c:    00000000    ....    DCD    0
        0x00004d30:    00000000    ....    DCD    0
        0x00004d34:    00000000    ....    DCD    0
        0x00004d38:    00002df1    .-..    DCD    11761
        0x00004d3c:    00002e8a    ....    DCD    11914
        0x00004d40:    65706a70    pjpe    DCD    1701866096
        0x00004d44:    65645f67    g_de    DCD    1701076839
        0x00004d48:    65646f63    code    DCD    1701080931
        0x00004d4c:    696e695f    _ini    DCD    1768843615
        0x00004d50:    00000074    t...    DCD    116
        0x00004d54:    00000000    ....    DCD    0
        0x00004d58:    00002e95    ....    DCD    11925
        0x00004d5c:    00002ec8    ....    DCD    11976
        0x00004d60:    65706a70    pjpe    DCD    1701866096
        0x00004d64:    65645f67    g_de    DCD    1701076839
        0x00004d68:    65646f63    code    DCD    1701080931
        0x00004d6c:    75636d5f    _mcu    DCD    1969450335
        0x00004d70:    00000000    ....    DCD    0
        0x00004d74:    00000000    ....    DCD    0
        0x00004d78:    00002ecd    ....    DCD    11981
        0x00004d7c:    00003164    d1..    DCD    12644
        0x00004d80:    65706a70    pjpe    DCD    1701866096
        0x00004d84:    6f6c5f67    g_lo    DCD    1869373287
        0x00004d88:    665f6461    ad_f    DCD    1717527649
        0x00004d8c:    5f6d6f72    rom_    DCD    1601007474
        0x00004d90:    656c6966    file    DCD    1701603686
        0x00004d94:    00000000    ....    DCD    0
        0x00004d98:    0000316d    m1..    DCD    12653
        0x00004d9c:    00003192    .1..    DCD    12690
        0x00004da0:    65706a70    pjpe    DCD    1701866096
        0x00004da4:    656e5f67    g_ne    DCD    1701732199
        0x00004da8:    625f6465    ed_b    DCD    1650418789
        0x00004dac:    73657479    ytes    DCD    1936028793
        0x00004db0:    6c61635f    _cal    DCD    1818321759
        0x00004db4:    6361626c    lbac    DCD    1667326572
    .constdata
    NumProfileRegions
        0x00004db8:    0000007a    z...    DCD    122
    .constdata
    Lucida_Console12x19
        0x00004dbc:    00200000    .. .    DCD    2097152
        0x00004dc0:    0013007f    ....    DCD    1245311
        0x00004dc4:    00018801    ....    DCD    100353
        0x00004dc8:    00019b08    ....    DCD    105224
        0x00004dcc:    0001ae0a    ....    DCD    110090
        0x00004dd0:    0001d40c    ....    DCD    119820
        0x00004dd4:    0001fa0a    ....    DCD    129546
        0x00004dd8:    0002200c    . ..    DCD    139276
        0x00004ddc:    0002460c    .F..    DCD    149004
        0x00004de0:    00026c07    .l..    DCD    158727
        0x00004de4:    00027f0b    ....    DCD    163595
        0x00004de8:    0002a509    ....    DCD    173321
        0x00004dec:    0002cb0a    ....    DCD    183050
        0x00004df0:    0002f10c    ....    DCD    192780
        0x00004df4:    00031708    ....    DCD    202504
        0x00004df8:    00032a0a    .*..    DCD    207370
        0x00004dfc:    00035008    .P..    DCD    217096
        0x00004e00:    0003630b    .c..    DCD    221963
        0x00004e04:    0003890b    ....    DCD    231691
        0x00004e08:    0003af0c    ....    DCD    241420
        0x00004e0c:    0003d50b    ....    DCD    251147
        0x00004e10:    0003fb0a    ....    DCD    260874
        0x00004e14:    0004210b    .!..    DCD    270603
        0x00004e18:    0004470a    .G..    DCD    280330
        0x00004e1c:    00046d0b    .m..    DCD    290059
        0x00004e20:    0004930a    ....    DCD    299786
        0x00004e24:    0004b90b    ....    DCD    309515
        0x00004e28:    0004df0b    ....    DCD    319243
        0x00004e2c:    00050508    ....    DCD    328968
        0x00004e30:    00051808    ....    DCD    333832
        0x00004e34:    00052b0b    .+..    DCD    338699
        0x00004e38:    0005510b    .Q..    DCD    348427
        0x00004e3c:    0005770a    .w..    DCD    358154
        0x00004e40:    00059d0b    ....    DCD    367883
        0x00004e44:    0005c30c    ....    DCD    377612
        0x00004e48:    0005e90c    ....    DCD    387340
        0x00004e4c:    00060f0b    ....    DCD    397067
        0x00004e50:    0006350c    .5..    DCD    406796
        0x00004e54:    00065b0c    .[..    DCD    416524
        0x00004e58:    0006810b    ....    DCD    426251
        0x00004e5c:    0006a70b    ....    DCD    435979
        0x00004e60:    0006cd0b    ....    DCD    445707
        0x00004e64:    0006f30b    ....    DCD    455435
        0x00004e68:    0007190a    ....    DCD    465162
        0x00004e6c:    00073f0a    .?..    DCD    474890
        0x00004e70:    0007650c    .e..    DCD    484620
        0x00004e74:    00078b0b    ....    DCD    494347
        0x00004e78:    0007b10b    ....    DCD    504075
        0x00004e7c:    0007d70b    ....    DCD    513803
        0x00004e80:    0007fd0b    ....    DCD    523531
        0x00004e84:    0008230b    .#..    DCD    533259
        0x00004e88:    0008490c    .I..    DCD    542988
        0x00004e8c:    00086f0c    .o..    DCD    552716
        0x00004e90:    0008950b    ....    DCD    562443
        0x00004e94:    0008bb0b    ....    DCD    572171
        0x00004e98:    0008e10b    ....    DCD    581899
        0x00004e9c:    0009070c    ....    DCD    591628
        0x00004ea0:    00092d0c    .-..    DCD    601356
        0x00004ea4:    0009530c    .S..    DCD    611084
        0x00004ea8:    0009790c    .y..    DCD    620812
        0x00004eac:    00099f0c    ....    DCD    630540
        0x00004eb0:    0009c50b    ....    DCD    640267
        0x00004eb4:    0009eb0b    ....    DCD    649995
        0x00004eb8:    000a1109    ....    DCD    659721
        0x00004ebc:    000a370b    .7..    DCD    669451
        0x00004ec0:    000a5d0c    .]..    DCD    679180
        0x00004ec4:    000a8308    ....    DCD    688904
        0x00004ec8:    000a960c    ....    DCD    693772
        0x00004ecc:    000abc0b    ....    DCD    703499
        0x00004ed0:    000ae20b    ....    DCD    713227
        0x00004ed4:    000b080b    ....    DCD    722955
        0x00004ed8:    000b2e0b    ....    DCD    732683
        0x00004edc:    000b540c    .T..    DCD    742412
        0x00004ee0:    000b7a0b    .z..    DCD    752139
        0x00004ee4:    000ba00b    ....    DCD    761867
        0x00004ee8:    000bc608    ....    DCD    771592
        0x00004eec:    000bd909    ....    DCD    776457
        0x00004ef0:    000bff0b    ....    DCD    786187
        0x00004ef4:    000c2509    .%..    DCD    795913
        0x00004ef8:    000c4b0b    .K..    DCD    805643
        0x00004efc:    000c710b    .q..    DCD    815371
        0x00004f00:    000c970b    ....    DCD    825099
        0x00004f04:    000cbd0b    ....    DCD    834827
        0x00004f08:    000ce30b    ....    DCD    844555
        0x00004f0c:    000d090a    ....    DCD    854282
        0x00004f10:    000d2f0b    ./..    DCD    864011
        0x00004f14:    000d550b    .U..    DCD    873739
        0x00004f18:    000d7b0b    .{..    DCD    883467
        0x00004f1c:    000da10b    ....    DCD    893195
        0x00004f20:    000dc70c    ....    DCD    902924
        0x00004f24:    000ded0b    ....    DCD    912651
        0x00004f28:    000e130b    ....    DCD    922379
        0x00004f2c:    000e390b    .9..    DCD    932107
        0x00004f30:    000e5f0b    ._..    DCD    941835
        0x00004f34:    000e8508    ....    DCD    951560
        0x00004f38:    000e980a    ....    DCD    956426
        0x00004f3c:    000ebe0b    ....    DCD    966155
        0x00004f40:    000ee405    ....    DCD    975877
        0x00004f44:    00000000    ....    DCD    0
        0x00004f48:    00000000    ....    DCD    0
        0x00004f4c:    00000000    ....    DCD    0
        0x00004f50:    00000000    ....    DCD    0
        0x00004f54:    00000000    ....    DCD    0
        0x00004f58:    e0e0e0e0    ....    DCD    3772834016
        0x00004f5c:    e0e0e0e0    ....    DCD    3772834016
        0x00004f60:    0000e0e0    ....    DCD    57568
        0x00004f64:    0000e0e0    ....    DCD    57568
        0x00004f68:    039c0000    ....    DCD    60555264
        0x00004f6c:    039c039c    ....    DCD    60556188
        0x00004f70:    039c039c    ....    DCD    60556188
        0x00004f74:    00000000    ....    DCD    0
        0x00004f78:    00000000    ....    DCD    0
        0x00004f7c:    00000000    ....    DCD    0
        0x00004f80:    00000000    ....    DCD    0
        0x00004f84:    00000000    ....    DCD    0
        0x00004f88:    00000000    ....    DCD    0
        0x00004f8c:    00000000    ....    DCD    0
        0x00004f90:    03300000    ..0.    DCD    53477376
        0x00004f94:    03300330    0.0.    DCD    53478192
        0x00004f98:    01980198    ....    DCD    26739096
        0x00004f9c:    01980ffe    ....    DCD    26742782
        0x00004fa0:    00cc00d8    ....    DCD    13369560
        0x00004fa4:    00cc07ff    ....    DCD    13371391
        0x00004fa8:    006600cc    ..f.    DCD    6684876
        0x00004fac:    00000066    f...    DCD    102
        0x00004fb0:    00000000    ....    DCD    0
        0x00004fb4:    00600000    ..`.    DCD    6291456
        0x00004fb8:    03fc01f8    ....    DCD    66847224
        0x00004fbc:    006e006e    n.n.    DCD    7209070
        0x00004fc0:    007c006e    n.|.    DCD    8126574
        0x00004fc4:    01e00078    x...    DCD    31457400
        0x00004fc8:    03e001e0    ....    DCD    65012192
        0x00004fcc:    03e603e0    ....    DCD    65405920
        0x00004fd0:    00fc01fe    ....    DCD    16515582
        0x00004fd4:    00000060    `...    DCD    96
        0x00004fd8:    00000000    ....    DCD    0
        0x00004fdc:    0c3e0000    ..>.    DCD    205389824
        0x00004fe0:    03770677    w.w.    DCD    58132087
        0x00004fe4:    01f703f7    ....    DCD    32965623
        0x00004fe8:    006000fe    ..`.    DCD    6291710
        0x00004fec:    07f00060    `...    DCD    133169248
        0x00004ff0:    0efc0ef8    ....    DCD    251399928
        0x00004ff4:    0ee60eec    ....    DCD    249958124
        0x00004ff8:    000007c3    ....    DCD    1987
        0x00004ffc:    00000000    ....    DCD    0
        0x00005000:    00000000    ....    DCD    0
        0x00005004:    01fc00f8    ....    DCD    33292536
        0x00005008:    01dc01dc    ....    DCD    31195612
        0x0000500c:    007800fc    ..x.    DCD    7864572
        0x00005010:    0e7e003c    <.~.    DCD    243138620
        0x00005014:    0ee70ef7    ....    DCD    250023671
        0x00005018:    07cf07c7    ....    DCD    131008455
        0x0000501c:    0ffc07fe    ....    DCD    268175358
        0x00005020:    00000000    ....    DCD    0
        0x00005024:    00000000    ....    DCD    0
        0x00005028:    70707070    pppp    DCD    1886417008
        0x0000502c:    00000070    p...    DCD    112
        0x00005030:    00000000    ....    DCD    0
        0x00005034:    00000000    ....    DCD    0
        0x00005038:    00000000    ....    DCD    0
        0x0000503c:    e007c007    ....    DCD    3758604295
        0x00005040:    7000e001    ...p    DCD    1879105537
        0x00005044:    38007000    .p.8    DCD    939552768
        0x00005048:    38003800    .8.8    DCD    939538432
        0x0000504c:    38003800    .8.8    DCD    939538432
        0x00005050:    70003800    .8.p    DCD    1879062528
        0x00005054:    e0007000    .p..    DCD    3758125056
        0x00005058:    c001e000    ....    DCD    3221348352
        0x0000505c:    00070007    ....    DCD    458759
        0x00005060:    3e000e00    ...>    DCD    1040190976
        0x00005064:    70007800    .x.p    DCD    1879078912
        0x00005068:    e000e000    ....    DCD    3758153728
        0x0000506c:    c001c000    ....    DCD    3221340160
        0x00005070:    c001c001    ....    DCD    3221340161
        0x00005074:    c001c001    ....    DCD    3221340161
        0x00005078:    e000e001    ....    DCD    3758153729
        0x0000507c:    78007000    .p.x    DCD    2013294592
        0x00005080:    0e003e00    .>..    DCD    234896896
        0x00005084:    00000000    ....    DCD    0
        0x00005088:    70007000    .p.p    DCD    1879076864
        0x0000508c:    de03fe00    ....    DCD    3724803584
        0x00005090:    f8000003    ....    DCD    4160749571
        0x00005094:    d801dc00    ....    DCD    3624000512
        0x00005098:    00000000    ....    DCD    0
        0x0000509c:    00000000    ....    DCD    0
        0x000050a0:    00000000    ....    DCD    0
        0x000050a4:    00000000    ....    DCD    0
        0x000050a8:    00000000    ....    DCD    0
        0x000050ac:    00000000    ....    DCD    0
        0x000050b0:    00000000    ....    DCD    0
        0x000050b4:    e0000000    ....    DCD    3758096384
        0x000050b8:    e000e000    ....    DCD    3758153728
        0x000050bc:    fe00e000    ....    DCD    4261470208
        0x000050c0:    e00ffe0f    ....    DCD    3759144463
        0x000050c4:    e000e000    ....    DCD    3758153728
        0x000050c8:    0000e000    ....    DCD    57344
        0x000050cc:    00000000    ....    DCD    0
        0x000050d0:    00000000    ....    DCD    0
        0x000050d4:    00000000    ....    DCD    0
        0x000050d8:    00000000    ....    DCD    0
        0x000050dc:    f0000000    ....    DCD    4026531840
        0x000050e0:    60e0f0f0    ...`    DCD    1625354480
        0x000050e4:    00000070    p...    DCD    112
        0x000050e8:    00000000    ....    DCD    0
        0x000050ec:    00000000    ....    DCD    0
        0x000050f0:    00000000    ....    DCD    0
        0x000050f4:    03fc0000    ....    DCD    66846720
        0x000050f8:    000003fc    ....    DCD    1020
        0x000050fc:    00000000    ....    DCD    0
        0x00005100:    00000000    ....    DCD    0
        0x00005104:    00000000    ....    DCD    0
        0x00005108:    00000000    ....    DCD    0
        0x0000510c:    00000000    ....    DCD    0
        0x00005110:    00000000    ....    DCD    0
        0x00005114:    00000000    ....    DCD    0
        0x00005118:    00f0f0f0    ....    DCD    15790320
        0x0000511c:    00000000    ....    DCD    0
        0x00005120:    80038007    ....    DCD    2147713031
        0x00005124:    c0038003    ....    DCD    3221454851
        0x00005128:    e001c001    ....    DCD    3758211073
        0x0000512c:    e000e000    ....    DCD    3758153728
        0x00005130:    70007000    .p.p    DCD    1879076864
        0x00005134:    38007000    .p.8    DCD    939552768
        0x00005138:    1c003800    .8..    DCD    469776384
        0x0000513c:    1c001c00    ....    DCD    469769216
        0x00005140:    00000e00    ....    DCD    3584
        0x00005144:    f0000000    ....    DCD    4026531840
        0x00005148:    9c03f800    ....    DCD    2617505792
        0x0000514c:    0e079e03    ....    DCD    235380227
        0x00005150:    0e070e07    ....    DCD    235343367
        0x00005154:    0e070e07    ....    DCD    235343367
        0x00005158:    9e070e07    ....    DCD    2651262471
        0x0000515c:    f8039c07    ....    DCD    4160986119
        0x00005160:    0000f001    ....    DCD    61441
        0x00005164:    00000000    ....    DCD    0
        0x00005168:    00000000    ....    DCD    0
        0x0000516c:    fc00e000    ....    DCD    4227915776
        0x00005170:    e000ee00    ....    DCD    3758157312
        0x00005174:    e000e000    ....    DCD    3758153728
        0x00005178:    e000e000    ....    DCD    3758153728
        0x0000517c:    e000e000    ....    DCD    3758153728
        0x00005180:    e000e000    ....    DCD    3758153728
        0x00005184:    fe0ffe00    ....    DCD    4262460928
        0x00005188:    0000000f    ....    DCD    15
        0x0000518c:    00000000    ....    DCD    0
        0x00005190:    f8000000    ....    DCD    4160749568
        0x00005194:    8c03fc01    ....    DCD    2349071361
        0x00005198:    00070007    ....    DCD    458759
        0x0000519c:    80070007    ....    DCD    2147942407
        0x000051a0:    e001c003    ....    DCD    3758211075
        0x000051a4:    38007000    .p.8    DCD    939552768
        0x000051a8:    fc001c00    ....    DCD    4227865600
        0x000051ac:    0007fc07    ....    DCD    523271
        0x000051b0:    00000000    ....    DCD    0
        0x000051b4:    00000000    ....    DCD    0
        0x000051b8:    fc01f800    ....    DCD    4227987456
        0x000051bc:    80038c03    ....    DCD    2147716099
        0x000051c0:    f801c003    ....    DCD    4160864259
        0x000051c4:    c001f800    ....    DCD    3221354496
        0x000051c8:    80038001    ....    DCD    2147713025
        0x000051cc:    c0038003    ....    DCD    3221454851
        0x000051d0:    fc01fc03    ....    DCD    4227988483
        0x000051d4:    00000000    ....    DCD    0
        0x000051d8:    00000000    ....    DCD    0
        0x000051dc:    c0000000    ....    DCD    3221225472
        0x000051e0:    f001e001    ....    DCD    4026654721
        0x000051e4:    d801f001    ....    DCD    3624005633
        0x000051e8:    ce01dc01    ....    DCD    3456228353
        0x000051ec:    ff01c601    ....    DCD    4278306305
        0x000051f0:    c007ff07    ....    DCD    3221749511
        0x000051f4:    c001c001    ....    DCD    3221340161
        0x000051f8:    0001c001    ....    DCD    114689
        0x000051fc:    00000000    ....    DCD    0
        0x00005200:    00000000    ....    DCD    0
        0x00005204:    fc03fc00    ....    DCD    4228119552
        0x00005208:    1c001c03    ....    DCD    469769219
        0x0000520c:    fc001c00    ....    DCD    4227865600
        0x00005210:    c001fc00    ....    DCD    3221355520
        0x00005214:    80038003    ....    DCD    2147713027
        0x00005218:    c0038003    ....    DCD    3221454851
        0x0000521c:    fc01fc03    ....    DCD    4227988483
        0x00005220:    00000000    ....    DCD    0
        0x00005224:    00000000    ....    DCD    0
        0x00005228:    f0000000    ....    DCD    4026531840
        0x0000522c:    3c03f801    ...<    DCD    1006893057
        0x00005230:    0e001c00    ....    DCD    234888192
        0x00005234:    fe01ee00    ....    DCD    4261539328
        0x00005238:    0e079e03    ....    DCD    235380227
        0x0000523c:    0e070e07    ....    DCD    235343367
        0x00005240:    fc079c07    ....    DCD    4228357127
        0x00005244:    0001f003    ....    DCD    126979
        0x00005248:    00000000    ....    DCD    0
        0x0000524c:    00000000    ....    DCD    0
        0x00005250:    fe03fe00    ....    DCD    4261674496
        0x00005254:    c0038003    ....    DCD    3221454851
        0x00005258:    e001c001    ....    DCD    3758211073
        0x0000525c:    7000e000    ...p    DCD    1879105536
        0x00005260:    38007000    .p.8    DCD    939552768
        0x00005264:    38003800    .8.8    DCD    939538432
        0x00005268:    1c001c00    ....    DCD    469769216
        0x0000526c:    00000000    ....    DCD    0
        0x00005270:    00000000    ....    DCD    0
        0x00005274:    f0000000    ....    DCD    4026531840
        0x00005278:    9c03fc01    ....    DCD    2617506817
        0x0000527c:    bc039c03    ....    DCD    3154353155
        0x00005280:    f001f803    ....    DCD    4026660867
        0x00005284:    8e03fc00    ....    DCD    2382625792
        0x00005288:    0e070e07    ....    DCD    235343367
        0x0000528c:    fc079e07    ....    DCD    4228357639
        0x00005290:    0001f803    ....    DCD    129027
        0x00005294:    00000000    ....    DCD    0
        0x00005298:    00000000    ....    DCD    0
        0x0000529c:    fc00f800    ....    DCD    4227921920
        0x000052a0:    0e039e03    ....    DCD    235118083
        0x000052a4:    0e070e07    ....    DCD    235343367
        0x000052a8:    fc079e07    ....    DCD    4228357639
        0x000052ac:    00077807    .x..    DCD    489479
        0x000052b0:    c0038007    ....    DCD    3221454855
        0x000052b4:    f801fc03    ....    DCD    4160879619
        0x000052b8:    00000000    ....    DCD    0
        0x000052bc:    00000000    ....    DCD    0
        0x000052c0:    00000000    ....    DCD    0
        0x000052c4:    f0f00000    ....    DCD    4042260480
        0x000052c8:    000000f0    ....    DCD    240
        0x000052cc:    f0f0f000    ....    DCD    4042321920
        0x000052d0:    00000000    ....    DCD    0
        0x000052d4:    00000000    ....    DCD    0
        0x000052d8:    f0f0f000    ....    DCD    4042321920
        0x000052dc:    00000000    ....    DCD    0
        0x000052e0:    e0f0f0f0    ....    DCD    3773886704
        0x000052e4:    00007060    `p..    DCD    28768
        0x000052e8:    00000000    ....    DCD    0
        0x000052ec:    00000000    ....    DCD    0
        0x000052f0:    80060000    ....    DCD    2147876864
        0x000052f4:    f003e007    ....    DCD    4026785799
        0x000052f8:    3c003c00    .<.<    DCD    1006648320
        0x000052fc:    e000f000    ....    DCD    3758157824
        0x00005300:    00078003    ....    DCD    491523
        0x00005304:    00000006    ....    DCD    6
        0x00005308:    00000000    ....    DCD    0
        0x0000530c:    00000000    ....    DCD    0
        0x00005310:    00000000    ....    DCD    0
        0x00005314:    00000000    ....    DCD    0
        0x00005318:    fe07fe00    ....    DCD    4261936640
        0x0000531c:    00000007    ....    DCD    7
        0x00005320:    fe07fe00    ....    DCD    4261936640
        0x00005324:    00000007    ....    DCD    7
        0x00005328:    00000000    ....    DCD    0
        0x0000532c:    00000000    ....    DCD    0
        0x00005330:    00000000    ....    DCD    0
        0x00005334:    00000000    ....    DCD    0
        0x00005338:    00000000    ....    DCD    0
        0x0000533c:    1e000600    ....    DCD    503318016
        0x00005340:    f0007c00    .|..    DCD    4026563584
        0x00005344:    c003c000    ....    DCD    3221471232
        0x00005348:    7c00f003    ...|    DCD    2080436227
        0x0000534c:    06001e00    ....    DCD    100670976
        0x00005350:    00000000    ....    DCD    0
        0x00005354:    00000000    ....    DCD    0
        0x00005358:    fe000000    ....    DCD    4261412864
        0x0000535c:    8607fe01    ....    DCD    2248670721
        0x00005360:    00070007    ....    DCD    458759
        0x00005364:    c0038007    ....    DCD    3221454855
        0x00005368:    7000e001    ...p    DCD    1879105537
        0x0000536c:    00007000    .p..    DCD    28672
        0x00005370:    70000000    ...p    DCD    1879048192
        0x00005374:    00007000    .p..    DCD    28672
        0x00005378:    00000000    ....    DCD    0
        0x0000537c:    00000000    ....    DCD    0
        0x00005380:    9c01f000    ....    DCD    2617372672
        0x00005384:    c6070e03    ....    DCD    3322351107
        0x00005388:    7307e307    ...s    DCD    1929896711
        0x0000538c:    33063306    .3.3    DCD    856044294
        0x00005390:    f3077306    .s..    DCD    4077351686
        0x00005394:    0e0ce607    ....    DCD    235726343
        0x00005398:    f0031c00    ....    DCD    4026735616
        0x0000539c:    00000003    ....    DCD    3
        0x000053a0:    00000000    ....    DCD    0
        0x000053a4:    00000000    ....    DCD    0
        0x000053a8:    f0000000    ....    DCD    4026531840
        0x000053ac:    f000f000    ....    DCD    4026593280
        0x000053b0:    9801f800    ....    DCD    2550265856
        0x000053b4:    9c039c01    ....    DCD    2617482241
        0x000053b8:    fe03fc03    ....    DCD    4261673987
        0x000053bc:    0f070e07    ....    DCD    252120583
        0x000053c0:    000e070f    ....    DCD    919311
        0x000053c4:    00000000    ....    DCD    0
        0x000053c8:    00000000    ....    DCD    0
        0x000053cc:    00000000    ....    DCD    0
        0x000053d0:    fe01fe00    ....    DCD    4261543424
        0x000053d4:    0e070e03    ....    DCD    235343363
        0x000053d8:    fe038e07    ....    DCD    4261645831
        0x000053dc:    8e03fe01    ....    DCD    2382626305
        0x000053e0:    0e070e03    ....    DCD    235343363
        0x000053e4:    fe03fe07    ....    DCD    4261674503
        0x000053e8:    00000001    ....    DCD    1
        0x000053ec:    00000000    ....    DCD    0
        0x000053f0:    00000000    ....    DCD    0
        0x000053f4:    e0000000    ....    DCD    3758096384
        0x000053f8:    3c0ff807    ...<    DCD    1007679495
        0x000053fc:    0e001e0c    ....    DCD    234888716
        0x00005400:    0e000e00    ....    DCD    234884608
        0x00005404:    1e000e00    ....    DCD    503320064
        0x00005408:    f8003c00    .<..    DCD    4160764928
        0x0000540c:    0007e00f    ....    DCD    516111
        0x00005410:    00000000    ....    DCD    0
        0x00005414:    00000000    ....    DCD    0
        0x00005418:    00000000    ....    DCD    0
        0x0000541c:    fe01fe00    ....    DCD    4261543424
        0x00005420:    0e078e07    ....    DCD    235376135
        0x00005424:    0e0e0e0f    ....    DCD    235802127
        0x00005428:    0e0e0e0e    ....    DCD    235802126
        0x0000542c:    8e0f0e0e    ....    DCD    2383351310
        0x00005430:    fe03fe07    ....    DCD    4261674503
        0x00005434:    00000001    ....    DCD    1
        0x00005438:    00000000    ....    DCD    0
        0x0000543c:    00000000    ....    DCD    0
        0x00005440:    fc000000    ....    DCD    4227858432
        0x00005444:    1c07fc07    ....    DCD    470285319
        0x00005448:    1c001c00    ....    DCD    469769216
        0x0000544c:    fc03fc00    ....    DCD    4228119552
        0x00005450:    1c001c03    ....    DCD    469769219
        0x00005454:    fc001c00    ....    DCD    4227865600
        0x00005458:    0007fc07    ....    DCD    523271
        0x0000545c:    00000000    ....    DCD    0
        0x00005460:    00000000    ....    DCD    0
        0x00005464:    00000000    ....    DCD    0
        0x00005468:    fc07fc00    ....    DCD    4228381696
        0x0000546c:    1c001c07    ....    DCD    469769223
        0x00005470:    fc001c00    ....    DCD    4227865600
        0x00005474:    1c03fc03    ....    DCD    470023171
        0x00005478:    1c001c00    ....    DCD    469769216
        0x0000547c:    1c001c00    ....    DCD    469769216
        0x00005480:    00000000    ....    DCD    0
        0x00005484:    00000000    ....    DCD    0
        0x00005488:    00000000    ....    DCD    0
        0x0000548c:    f0000000    ....    DCD    4026531840
        0x00005490:    1e07fc03    ....    DCD    503839747
        0x00005494:    07000f06    ....    DCD    117444358
        0x00005498:    c707c700    ....    DCD    3339175680
        0x0000549c:    0f070707    ....    DCD    252118791
        0x000054a0:    fc071e07    ....    DCD    4228324871
        0x000054a4:    0003f007    ....    DCD    258055
        0x000054a8:    00000000    ....    DCD    0
        0x000054ac:    00000000    ....    DCD    0
        0x000054b0:    00000000    ....    DCD    0
        0x000054b4:    0e070e00    ....    DCD    235343360
        0x000054b8:    0e070e07    ....    DCD    235343367
        0x000054bc:    fe070e07    ....    DCD    4261875207
        0x000054c0:    0e07fe07    ....    DCD    235404807
        0x000054c4:    0e070e07    ....    DCD    235343367
        0x000054c8:    0e070e07    ....    DCD    235343367
        0x000054cc:    00000007    ....    DCD    7
        0x000054d0:    00000000    ....    DCD    0
        0x000054d4:    00000000    ....    DCD    0
        0x000054d8:    fe000000    ....    DCD    4261412864
        0x000054dc:    7003fe03    ...p    DCD    1879309827
        0x000054e0:    70007000    .p.p    DCD    1879076864
        0x000054e4:    70007000    .p.p    DCD    1879076864
        0x000054e8:    70007000    .p.p    DCD    1879076864
        0x000054ec:    fe007000    .p..    DCD    4261441536
        0x000054f0:    0003fe03    ....    DCD    261635
        0x000054f4:    00000000    ....    DCD    0
        0x000054f8:    00000000    ....    DCD    0
        0x000054fc:    00000000    ....    DCD    0
        0x00005500:    f803f800    ....    DCD    4161009664
        0x00005504:    80038003    ....    DCD    2147713027
        0x00005508:    80038003    ....    DCD    2147713027
        0x0000550c:    80038003    ....    DCD    2147713027
        0x00005510:    c0038003    ....    DCD    3221454851
        0x00005514:    fc01fc03    ....    DCD    4227988483
        0x00005518:    00000000    ....    DCD    0
        0x0000551c:    00000000    ....    DCD    0
        0x00005520:    00000000    ....    DCD    0
        0x00005524:    8e000000    ....    DCD    2382364672
        0x00005528:    ce03ce07    ....    DCD    3456355847
        0x0000552c:    7e00ee01    ...~    DCD    2113990145
        0x00005530:    7e003e00    .>.~    DCD    2113945088
        0x00005534:    ee00fe00    ....    DCD    3993042432
        0x00005538:    8e03ce01    ....    DCD    2382614017
        0x0000553c:    000f0e07    ....    DCD    986631
        0x00005540:    00000000    ....    DCD    0
        0x00005544:    00000000    ....    DCD    0
        0x00005548:    00000000    ....    DCD    0
        0x0000554c:    1c001c00    ....    DCD    469769216
        0x00005550:    1c001c00    ....    DCD    469769216
        0x00005554:    1c001c00    ....    DCD    469769216
        0x00005558:    1c001c00    ....    DCD    469769216
        0x0000555c:    1c001c00    ....    DCD    469769216
        0x00005560:    fc07fc00    ....    DCD    4228381696
        0x00005564:    00000007    ....    DCD    7
        0x00005568:    00000000    ....    DCD    0
        0x0000556c:    00000000    ....    DCD    0
        0x00005570:    8f000000    ....    DCD    2399141888
        0x00005574:    9f078f07    ....    DCD    2668072711
        0x00005578:    df07df07    ....    DCD    3741835015
        0x0000557c:    7707ff07    ...w    DCD    1997012743
        0x00005580:    77077707    .w.w    DCD    1996977927
        0x00005584:    07070707    ....    DCD    117901063
        0x00005588:    00070707    ....    DCD    460551
        0x0000558c:    00000000    ....    DCD    0
        0x00005590:    00000000    ....    DCD    0
        0x00005594:    00000000    ....    DCD    0
        0x00005598:    1e070e00    ....    DCD    503778816
        0x0000559c:    3e073e07    .>.>    DCD    1040662023
        0x000055a0:    7e077e07    .~.~    DCD    2114420231
        0x000055a4:    ee07ee07    ....    DCD    3993497095
        0x000055a8:    ce07ce07    ....    DCD    3456617991
        0x000055ac:    0e078e07    ....    DCD    235376135
        0x000055b0:    00000007    ....    DCD    7
        0x000055b4:    00000000    ....    DCD    0
        0x000055b8:    00000000    ....    DCD    0
        0x000055bc:    f8000000    ....    DCD    4160749568
        0x000055c0:    8e03fe00    ....    DCD    2382626304
        0x000055c4:    07070703    ....    DCD    117901059
        0x000055c8:    07070707    ....    DCD    117901063
        0x000055cc:    07070707    ....    DCD    117901063
        0x000055d0:    fe038e07    ....    DCD    4261645831
        0x000055d4:    0000f803    ....    DCD    63491
        0x000055d8:    00000000    ....    DCD    0
        0x000055dc:    00000000    ....    DCD    0
        0x000055e0:    00000000    ....    DCD    0
        0x000055e4:    fe01fe00    ....    DCD    4261543424
        0x000055e8:    0e070e07    ....    DCD    235343367
        0x000055ec:    fe078e07    ....    DCD    4261907975
        0x000055f0:    0e01fe03    ....    DCD    235011587
        0x000055f4:    0e000e00    ....    DCD    234884608
        0x000055f8:    0e000e00    ....    DCD    234884608
        0x000055fc:    00000000    ....    DCD    0
        0x00005600:    00000000    ....    DCD    0
        0x00005604:    00000000    ....    DCD    0
        0x00005608:    f8000000    ....    DCD    4160749568
        0x0000560c:    8e03fe00    ....    DCD    2382626304
        0x00005610:    07070703    ....    DCD    117901059
        0x00005614:    07070707    ....    DCD    117901063
        0x00005618:    07070707    ....    DCD    117901063
        0x0000561c:    fc038e07    ....    DCD    4228091399
        0x00005620:    c000f801    ....    DCD    3221288961
        0x00005624:    000f8003    ....    DCD    1015811
        0x00005628:    00000006    ....    DCD    6
        0x0000562c:    00000000    ....    DCD    0
        0x00005630:    fe01fe00    ....    DCD    4261543424
        0x00005634:    8e038e03    ....    DCD    2382597635
        0x00005638:    fe03ce03    ....    DCD    4261662211
        0x0000563c:    ee00fe01    ....    DCD    3993042433
        0x00005640:    8e01ce01    ....    DCD    2382482945
        0x00005644:    0e078e03    ....    DCD    235376131
        0x00005648:    0000000f    ....    DCD    15
        0x0000564c:    00000000    ....    DCD    0
        0x00005650:    00000000    ....    DCD    0
        0x00005654:    f8000000    ....    DCD    4160749568
        0x00005658:    0e03fe01    ....    DCD    235142657
        0x0000565c:    1e000e03    ....    DCD    503320067
        0x00005660:    e000fc00    ....    DCD    3758160896
        0x00005664:    00078003    ....    DCD    491523
        0x00005668:    fe070e07    ....    DCD    4261875207
        0x0000566c:    0001fc03    ....    DCD    130051
        0x00005670:    00000000    ....    DCD    0
        0x00005674:    00000000    ....    DCD    0
        0x00005678:    00000000    ....    DCD    0
        0x0000567c:    ff07ff00    ....    DCD    4278714112
        0x00005680:    70007007    .p.p    DCD    1879076871
        0x00005684:    70007000    .p.p    DCD    1879076864
        0x00005688:    70007000    .p.p    DCD    1879076864
        0x0000568c:    70007000    .p.p    DCD    1879076864
        0x00005690:    70007000    .p.p    DCD    1879076864
        0x00005694:    00000000    ....    DCD    0
        0x00005698:    00000000    ....    DCD    0
        0x0000569c:    00000000    ....    DCD    0
        0x000056a0:    0e000000    ....    DCD    234881024
        0x000056a4:    0e070e07    ....    DCD    235343367
        0x000056a8:    0e070e07    ....    DCD    235343367
        0x000056ac:    0e070e07    ....    DCD    235343367
        0x000056b0:    0e070e07    ....    DCD    235343367
        0x000056b4:    fc079e07    ....    DCD    4228357639
        0x000056b8:    0001f803    ....    DCD    129027
        0x000056bc:    00000000    ....    DCD    0
        0x000056c0:    00000000    ....    DCD    0
        0x000056c4:    00000000    ....    DCD    0
        0x000056c8:    0e0e0700    ....    DCD    235800320
        0x000056cc:    1e070e0f    ....    DCD    503778831
        0x000056d0:    bc071c07    ....    DCD    3154582535
        0x000056d4:    b803b803    ....    DCD    3087251459
        0x000056d8:    f001f003    ....    DCD    4026658819
        0x000056dc:    e001f001    ....    DCD    3758223361
        0x000056e0:    00000000    ....    DCD    0
        0x000056e4:    00000000    ....    DCD    0
        0x000056e8:    00000000    ....    DCD    0
        0x000056ec:    07000000    ....    DCD    117440512
        0x000056f0:    070e070c    ....    DCD    118359820
        0x000056f4:    f606e60e    ....    DCD    4127647246
        0x000056f8:    f606f606    ....    DCD    4127651334
        0x000056fc:    fe07fe06    ....    DCD    4261936646
        0x00005700:    9c039e07    ....    DCD    2617482759
        0x00005704:    00039c03    ....    DCD    236547
        0x00005708:    00000000    ....    DCD    0
        0x0000570c:    00000000    ....    DCD    0
        0x00005710:    00000000    ....    DCD    0
        0x00005714:    1e0e0f00    ....    DCD    504237824
        0x00005718:    fc039c07    ....    DCD    4228094983
        0x0000571c:    f000f801    ....    DCD    4026595329
        0x00005720:    f800f000    ....    DCD    4160811008
        0x00005724:    9c03d801    ....    DCD    2617497601
        0x00005728:    07078e03    ....    DCD    117935619
        0x0000572c:    0000000f    ....    DCD    15
        0x00005730:    00000000    ....    DCD    0
        0x00005734:    00000000    ....    DCD    0
        0x00005738:    07000000    ....    DCD    117440512
        0x0000573c:    1c070e0e    ....    DCD    470224398
        0x00005740:    b803bc07    ....    DCD    3087252487
        0x00005744:    e001f001    ....    DCD    3758223361
        0x00005748:    e000e000    ....    DCD    3758153728
        0x0000574c:    e000e000    ....    DCD    3758153728
        0x00005750:    0000e000    ....    DCD    57344
        0x00005754:    00000000    ....    DCD    0
        0x00005758:    00000000    ....    DCD    0
        0x0000575c:    00000000    ....    DCD    0
        0x00005760:    fe0ffe00    ....    DCD    4262460928
        0x00005764:    800f000f    ....    DCD    2148466703
        0x00005768:    e003c007    ....    DCD    3758342151
        0x0000576c:    7800f001    ...x    DCD    2013327361
        0x00005770:    1e003c00    .<..    DCD    503331840
        0x00005774:    fe0ffe00    ....    DCD    4262460928
        0x00005778:    0000000f    ....    DCD    15
        0x0000577c:    00000000    ....    DCD    0
        0x00005780:    f007f000    ....    DCD    4027052032
        0x00005784:    70007007    .p.p    DCD    1879076871
        0x00005788:    70007000    .p.p    DCD    1879076864
        0x0000578c:    70007000    .p.p    DCD    1879076864
        0x00005790:    70007000    .p.p    DCD    1879076864
        0x00005794:    70007000    .p.p    DCD    1879076864
        0x00005798:    70007000    .p.p    DCD    1879076864
        0x0000579c:    70007000    .p.p    DCD    1879076864
        0x000057a0:    f007f000    ....    DCD    4027052032
        0x000057a4:    0e000007    ....    DCD    234881031
        0x000057a8:    1c001c00    ....    DCD    469769216
        0x000057ac:    38001c00    ...8    DCD    939531264
        0x000057b0:    70003800    .8.p    DCD    1879062528
        0x000057b4:    70007000    .p.p    DCD    1879076864
        0x000057b8:    e000e000    ....    DCD    3758153728
        0x000057bc:    c000e000    ....    DCD    3221282816
        0x000057c0:    8001c001    ....    DCD    2147598337
        0x000057c4:    80038003    ....    DCD    2147713027
        0x000057c8:    00070003    ....    DCD    458755
        0x000057cc:    fc01fc00    ....    DCD    4227988480
        0x000057d0:    c001c001    ....    DCD    3221340161
        0x000057d4:    c001c001    ....    DCD    3221340161
        0x000057d8:    c001c001    ....    DCD    3221340161
        0x000057dc:    c001c001    ....    DCD    3221340161
        0x000057e0:    c001c001    ....    DCD    3221340161
        0x000057e4:    c001c001    ....    DCD    3221340161
        0x000057e8:    c001c001    ....    DCD    3221340161
        0x000057ec:    fc01fc01    ....    DCD    4227988481
        0x000057f0:    00000001    ....    DCD    1
        0x000057f4:    60006000    .`.`    DCD    1610637312
        0x000057f8:    f000f000    ....    DCD    4026593280
        0x000057fc:    f800f000    ....    DCD    4160811008
        0x00005800:    9c019801    ....    DCD    2617350145
        0x00005804:    0c039c03    ....    DCD    201563139
        0x00005808:    00070e03    ....    DCD    462339
        0x0000580c:    00000000    ....    DCD    0
        0x00005810:    00000000    ....    DCD    0
        0x00005814:    00000000    ....    DCD    0
        0x00005818:    00000000    ....    DCD    0
        0x0000581c:    00000000    ....    DCD    0
        0x00005820:    00000000    ....    DCD    0
        0x00005824:    00000000    ....    DCD    0
        0x00005828:    00000000    ....    DCD    0
        0x0000582c:    00000000    ....    DCD    0
        0x00005830:    00000000    ....    DCD    0
        0x00005834:    ff000000    ....    DCD    4278190080
        0x00005838:    000fff0f    ....    DCD    1048335
        0x0000583c:    70000000    ...p    DCD    1879048192
        0x00005840:    000000e0    ....    DCD    224
        0x00005844:    00000000    ....    DCD    0
        0x00005848:    00000000    ....    DCD    0
        0x0000584c:    00000000    ....    DCD    0
        0x00005850:    00000000    ....    DCD    0
        0x00005854:    00000000    ....    DCD    0
        0x00005858:    00000000    ....    DCD    0
        0x0000585c:    03fc01f8    ....    DCD    66847224
        0x00005860:    0380038c    ....    DCD    58721164
        0x00005864:    039c03f8    ....    DCD    60556280
        0x00005868:    03ce038e    ....    DCD    63832974
        0x0000586c:    0f7c0ffe    ..|.    DCD    259788798
        0x00005870:    00000000    ....    DCD    0
        0x00005874:    00000000    ....    DCD    0
        0x00005878:    000e000e    ....    DCD    917518
        0x0000587c:    000e000e    ....    DCD    917518
        0x00005880:    01ee000e    ....    DCD    32374798
        0x00005884:    079e03fe    ....    DCD    127796222
        0x00005888:    070e070e    ....    DCD    118359822
        0x0000588c:    070e070e    ....    DCD    118359822
        0x00005890:    03fe039e    ....    DCD    66978718
        0x00005894:    000001fe    ....    DCD    510
        0x00005898:    00000000    ....    DCD    0
        0x0000589c:    00000000    ....    DCD    0
        0x000058a0:    00000000    ....    DCD    0
        0x000058a4:    00000000    ....    DCD    0
        0x000058a8:    07fc03f0    ....    DCD    133956592
        0x000058ac:    000e001c    ....    DCD    917532
        0x000058b0:    000e000e    ....    DCD    917518
        0x000058b4:    003c000e    ..<.    DCD    3932174
        0x000058b8:    03f007fc    ....    DCD    66062332
        0x000058bc:    00000000    ....    DCD    0
        0x000058c0:    00000000    ....    DCD    0
        0x000058c4:    07000700    ....    DCD    117442304
        0x000058c8:    07000700    ....    DCD    117442304
        0x000058cc:    07f80700    ....    DCD    133695232
        0x000058d0:    079c07fc    ....    DCD    127666172
        0x000058d4:    070e070e    ....    DCD    118359822
        0x000058d8:    070e070e    ....    DCD    118359822
        0x000058dc:    07fc079e    ....    DCD    133957534
        0x000058e0:    000007f8    ....    DCD    2040
        0x000058e4:    00000000    ....    DCD    0
        0x000058e8:    00000000    ....    DCD    0
        0x000058ec:    00000000    ....    DCD    0
        0x000058f0:    00000000    ....    DCD    0
        0x000058f4:    03fc01f0    ....    DCD    66847216
        0x000058f8:    070e079c    ....    DCD    118359964
        0x000058fc:    07fe07fe    ....    DCD    134088702
        0x00005900:    061e000e    ....    DCD    102629390
        0x00005904:    03f007fc    ....    DCD    66062332
        0x00005908:    00000000    ....    DCD    0
        0x0000590c:    00000000    ....    DCD    0
        0x00005910:    0fe00fc0    ....    DCD    266342336
        0x00005914:    00700070    p.p.    DCD    7340144
        0x00005918:    0ffe0070    p...    DCD    268304496
        0x0000591c:    00700ffe    ..p.    DCD    7344126
        0x00005920:    00700070    p.p.    DCD    7340144
        0x00005924:    00700070    p.p.    DCD    7340144
        0x00005928:    00700070    p.p.    DCD    7340144
        0x0000592c:    00000070    p...    DCD    112
        0x00005930:    00000000    ....    DCD    0
        0x00005934:    00000000    ....    DCD    0
        0x00005938:    00000000    ....    DCD    0
        0x0000593c:    00000000    ....    DCD    0
        0x00005940:    07fc07f8    ....    DCD    133957624
        0x00005944:    070e079c    ....    DCD    118359964
        0x00005948:    070e070e    ....    DCD    118359822
        0x0000594c:    079e070e    ....    DCD    127797006
        0x00005950:    07f807fc    ....    DCD    133695484
        0x00005954:    078c0700    ....    DCD    126617344
        0x00005958:    01f803fc    ....    DCD    33031164
        0x0000595c:    000e000e    ....    DCD    917518
        0x00005960:    000e000e    ....    DCD    917518
        0x00005964:    03ee000e    ....    DCD    65929230
        0x00005968:    073e07fe    ..>.    DCD    121505790
        0x0000596c:    070e070e    ....    DCD    118359822
        0x00005970:    070e070e    ....    DCD    118359822
        0x00005974:    070e070e    ....    DCD    118359822
        0x00005978:    0000070e    ....    DCD    1806
        0x0000597c:    00000000    ....    DCD    0
        0x00005980:    e0000000    ....    DCD    3758096384
        0x00005984:    fe0000e0    ....    DCD    4261413088
        0x00005988:    e0e0e0fe    ....    DCD    3772834046
        0x0000598c:    e0e0e0e0    ....    DCD    3772834016
        0x00005990:    000000e0    ....    DCD    224
        0x00005994:    c0000000    ....    DCD    3221225472
        0x00005998:    0001c001    ....    DCD    114689
        0x0000599c:    fc000000    ....    DCD    4227858432
        0x000059a0:    c001fc01    ....    DCD    3221355521
        0x000059a4:    c001c001    ....    DCD    3221340161
        0x000059a8:    c001c001    ....    DCD    3221340161
        0x000059ac:    c001c001    ....    DCD    3221340161
        0x000059b0:    c001c001    ....    DCD    3221340161
        0x000059b4:    fe01c601    ....    DCD    4261529089
        0x000059b8:    0e007c00    .|..    DCD    234912768
        0x000059bc:    0e000e00    ....    DCD    234884608
        0x000059c0:    0e000e00    ....    DCD    234884608
        0x000059c4:    ee03ce00    ....    DCD    3993226752
        0x000059c8:    7e00ee01    ...~    DCD    2113990145
        0x000059cc:    7e007e00    .~.~    DCD    2113961472
        0x000059d0:    ee00fe00    ....    DCD    3993042432
        0x000059d4:    8e03ce01    ....    DCD    2382614017
        0x000059d8:    00000007    ....    DCD    7
        0x000059dc:    00000000    ....    DCD    0
        0x000059e0:    fc01fc00    ....    DCD    4227988480
        0x000059e4:    c001c001    ....    DCD    3221340161
        0x000059e8:    c001c001    ....    DCD    3221340161
        0x000059ec:    c001c001    ....    DCD    3221340161
        0x000059f0:    c001c001    ....    DCD    3221340161
        0x000059f4:    c001c001    ....    DCD    3221340161
        0x000059f8:    c001c001    ....    DCD    3221340161
        0x000059fc:    0001c001    ....    DCD    114689
        0x00005a00:    00000000    ....    DCD    0
        0x00005a04:    00000000    ....    DCD    0
        0x00005a08:    00000000    ....    DCD    0
        0x00005a0c:    00000000    ....    DCD    0
        0x00005a10:    ff03bf00    ....    DCD    4278435584
        0x00005a14:    7707ff07    ...w    DCD    1997012743
        0x00005a18:    77077707    .w.w    DCD    1996977927
        0x00005a1c:    77077707    .w.w    DCD    1996977927
        0x00005a20:    77077707    .w.w    DCD    1996977927
        0x00005a24:    00000007    ....    DCD    7
        0x00005a28:    00000000    ....    DCD    0
        0x00005a2c:    00000000    ....    DCD    0
        0x00005a30:    00000000    ....    DCD    0
        0x00005a34:    ee000000    ....    DCD    3992977408
        0x00005a38:    3e07fe03    ...>    DCD    1040711171
        0x00005a3c:    0e070e07    ....    DCD    235343367
        0x00005a40:    0e070e07    ....    DCD    235343367
        0x00005a44:    0e070e07    ....    DCD    235343367
        0x00005a48:    00070e07    ....    DCD    462343
        0x00005a4c:    00000000    ....    DCD    0
        0x00005a50:    00000000    ....    DCD    0
        0x00005a54:    00000000    ....    DCD    0
        0x00005a58:    00000000    ....    DCD    0
        0x00005a5c:    fe00f800    ....    DCD    4261476352
        0x00005a60:    07038e03    ....    DCD    117673475
        0x00005a64:    07070707    ....    DCD    117901063
        0x00005a68:    8e070707    ....    DCD    2382825223
        0x00005a6c:    f803fe03    ....    DCD    4161011203
        0x00005a70:    00000000    ....    DCD    0
        0x00005a74:    00000000    ....    DCD    0
        0x00005a78:    00000000    ....    DCD    0
        0x00005a7c:    00000000    ....    DCD    0
        0x00005a80:    fe000000    ....    DCD    4261412864
        0x00005a84:    9e03fe01    ....    DCD    2651061761
        0x00005a88:    0e070e07    ....    DCD    235343367
        0x00005a8c:    0e070e07    ....    DCD    235343367
        0x00005a90:    fe039e07    ....    DCD    4261649927
        0x00005a94:    0e01fe03    ....    DCD    235011587
        0x00005a98:    0e000e00    ....    DCD    234884608
        0x00005a9c:    00000e00    ....    DCD    3584
        0x00005aa0:    00000000    ....    DCD    0
        0x00005aa4:    00000000    ....    DCD    0
        0x00005aa8:    fc07f800    ....    DCD    4228380672
        0x00005aac:    0e079c07    ....    DCD    235379719
        0x00005ab0:    0e070e07    ....    DCD    235343367
        0x00005ab4:    9e070e07    ....    DCD    2651262471
        0x00005ab8:    7807fc07    ...x    DCD    2013789191
        0x00005abc:    00070007    ....    DCD    458759
        0x00005ac0:    00070007    ....    DCD    458759
        0x00005ac4:    00000007    ....    DCD    7
        0x00005ac8:    00000000    ....    DCD    0
        0x00005acc:    fc000000    ....    DCD    4227858432
        0x00005ad0:    3c03fc03    ...<    DCD    1006894083
        0x00005ad4:    1c001c03    ....    DCD    469769219
        0x00005ad8:    1c001c00    ....    DCD    469769216
        0x00005adc:    1c001c00    ....    DCD    469769216
        0x00005ae0:    00001c00    ....    DCD    7168
        0x00005ae4:    00000000    ....    DCD    0
        0x00005ae8:    00000000    ....    DCD    0
        0x00005aec:    00000000    ....    DCD    0
        0x00005af0:    00000000    ....    DCD    0
        0x00005af4:    fc03f800    ....    DCD    4228118528
        0x00005af8:    3c001c03    ...<    DCD    1006640131
        0x00005afc:    e001f800    ....    DCD    3758225408
        0x00005b00:    0c070003    ....    DCD    201785347
        0x00005b04:    f807fc07    ....    DCD    4161272839
        0x00005b08:    00000001    ....    DCD    1
        0x00005b0c:    00000000    ....    DCD    0
        0x00005b10:    00000000    ....    DCD    0
        0x00005b14:    38000000    ...8    DCD    939524096
        0x00005b18:    ff003800    .8..    DCD    4278204416
        0x00005b1c:    3807ff07    ...8    DCD    940048135
        0x00005b20:    38003800    .8.8    DCD    939538432
        0x00005b24:    38003800    .8.8    DCD    939538432
        0x00005b28:    f8003800    .8..    DCD    4160763904
        0x00005b2c:    0007f007    ....    DCD    520199
        0x00005b30:    00000000    ....    DCD    0
        0x00005b34:    00000000    ....    DCD    0
        0x00005b38:    00000000    ....    DCD    0
        0x00005b3c:    00000000    ....    DCD    0
        0x00005b40:    0e070e00    ....    DCD    235343360
        0x00005b44:    0e070e07    ....    DCD    235343367
        0x00005b48:    0e070e07    ....    DCD    235343367
        0x00005b4c:    ce070e07    ....    DCD    3456568839
        0x00005b50:    7c07fe07    ...|    DCD    2080898567
        0x00005b54:    00000007    ....    DCD    7
        0x00005b58:    00000000    ....    DCD    0
        0x00005b5c:    00000000    ....    DCD    0
        0x00005b60:    00000000    ....    DCD    0
        0x00005b64:    0e000000    ....    DCD    234881024
        0x00005b68:    9c071c07    ....    DCD    2617711623
        0x00005b6c:    b8039c03    ....    DCD    3087244291
        0x00005b70:    f001b803    ....    DCD    4026644483
        0x00005b74:    f001f001    ....    DCD    4026658817
        0x00005b78:    0000e000    ....    DCD    57344
        0x00005b7c:    00000000    ....    DCD    0
        0x00005b80:    00000000    ....    DCD    0
        0x00005b84:    00000000    ....    DCD    0
        0x00005b88:    00000000    ....    DCD    0
        0x00005b8c:    e70c0700    ....    DCD    3876325120
        0x00005b90:    f60ef70e    ....    DCD    4128175886
        0x00005b94:    fe06f606    ....    DCD    4261869062
        0x00005b98:    9e07de07    ....    DCD    2651315719
        0x00005b9c:    9c039c07    ....    DCD    2617482247
        0x00005ba0:    00000003    ....    DCD    3
        0x00005ba4:    00000000    ....    DCD    0
        0x00005ba8:    00000000    ....    DCD    0
        0x00005bac:    00000000    ....    DCD    0
        0x00005bb0:    1e000000    ....    DCD    503316480
        0x00005bb4:    f8039c07    ....    DCD    4160986119
        0x00005bb8:    f001f801    ....    DCD    4026660865
        0x00005bbc:    f800f000    ....    DCD    4160811008
        0x00005bc0:    9c01d801    ....    DCD    2617366529
        0x00005bc4:    00078e03    ....    DCD    495107
        0x00005bc8:    00000000    ....    DCD    0
        0x00005bcc:    00000000    ....    DCD    0
        0x00005bd0:    00000000    ....    DCD    0
        0x00005bd4:    00000000    ....    DCD    0
        0x00005bd8:    1c070e00    ....    DCD    470224384
        0x00005bdc:    9c039c03    ....    DCD    2617482243
        0x00005be0:    f801f803    ....    DCD    4160878595
        0x00005be4:    f000f801    ....    DCD    4026595329
        0x00005be8:    6000f000    ...`    DCD    1610674176
        0x00005bec:    70007000    .p.p    DCD    1879076864
        0x00005bf0:    1c003c00    .<..    DCD    469777408
        0x00005bf4:    00000000    ....    DCD    0
        0x00005bf8:    00000000    ....    DCD    0
        0x00005bfc:    fe000000    ....    DCD    4261412864
        0x00005c00:    8007fe07    ....    DCD    2148007431
        0x00005c04:    e001c003    ....    DCD    3758211075
        0x00005c08:    38007000    .p.8    DCD    939552768
        0x00005c0c:    fe001c00    ....    DCD    4261420032
        0x00005c10:    0007fe07    ....    DCD    523783
        0x00005c14:    00000000    ....    DCD    0
        0x00005c18:    c0000000    ....    DCD    3221225472
        0x00005c1c:    e007e007    ....    DCD    3758612487
        0x00005c20:    e000e000    ....    DCD    3758153728
        0x00005c24:    e000e000    ....    DCD    3758153728
        0x00005c28:    7800e000    ...x    DCD    2013323264
        0x00005c2c:    e0007800    .x..    DCD    3758127104
        0x00005c30:    e000e000    ....    DCD    3758153728
        0x00005c34:    e000e000    ....    DCD    3758153728
        0x00005c38:    e000e000    ....    DCD    3758153728
        0x00005c3c:    0007c007    ....    DCD    507911
        0x00005c40:    e0e0e000    ....    DCD    3772833792
        0x00005c44:    e0e0e0e0    ....    DCD    3772834016
        0x00005c48:    e0e0e0e0    ....    DCD    3772834016
        0x00005c4c:    e0e0e0e0    ....    DCD    3772834016
        0x00005c50:    00e0e0e0    ....    DCD    14737632
        0x00005c54:    00fc007c    |...    DCD    16515196
        0x00005c58:    00e000e0    ....    DCD    14680288
        0x00005c5c:    00e000e0    ....    DCD    14680288
        0x00005c60:    00e000e0    ....    DCD    14680288
        0x00005c64:    03c003c0    ....    DCD    62915520
        0x00005c68:    00e000e0    ....    DCD    14680288
        0x00005c6c:    00e000e0    ....    DCD    14680288
        0x00005c70:    00e000e0    ....    DCD    14680288
        0x00005c74:    007c00fc    ..|.    DCD    8126716
        0x00005c78:    00000000    ....    DCD    0
        0x00005c7c:    00000000    ....    DCD    0
        0x00005c80:    00000000    ....    DCD    0
        0x00005c84:    00000000    ....    DCD    0
        0x00005c88:    067c0000    ..|.    DCD    108789760
        0x00005c8c:    03e607fe    ....    DCD    65406974
        0x00005c90:    00000000    ....    DCD    0
        0x00005c94:    00000000    ....    DCD    0
        0x00005c98:    00000000    ....    DCD    0
        0x00005c9c:    00000000    ....    DCD    0
        0x00005ca0:    1f000000    ....    DCD    520093696
        0x00005ca4:    1b1b1b1b    ....    DCD    454761243
        0x00005ca8:    1b1b1b1b    ....    DCD    454761243
        0x00005cac:    00001f1b    ....    DCD    7963
        0x00005cb0:    0000        ..      DCW    0
        0x00005cb2:    00          .       DCB    0
    .constdata
    Init_Seq_ST7789
        0x00005cb3:    01          .       DCB    1
        0x00005cb4:    02360111    ..6.    DCD    37093649
        0x00005cb8:    023a0100    ..:.    DCD    37355776
        0x00005cbc:    02b20155    U...    DCD    45220181
        0x00005cc0:    020c020c    ....    DCD    34341388
        0x00005cc4:    02330200    ..3.    DCD    36897280
        0x00005cc8:    02b70133    3...    DCD    45547827
        0x00005ccc:    02bb0135    5...    DCD    45809973
        0x00005cd0:    02c0012b    +...    DCD    46137643
        0x00005cd4:    02c2012c    ,...    DCD    46268716
        0x00005cd8:    01ff0201    ....    DCD    33489409
        0x00005cdc:    011102c3    ....    DCD    17892035
        0x00005ce0:    012002c4    .. .    DCD    18875076
        0x00005ce4:    010f02c6    ....    DCD    17760966
        0x00005ce8:    02a402d0    ....    DCD    44303056
        0x00005cec:    02e001a1    ....    DCD    48234913
        0x00005cf0:    020002d0    ....    DCD    33555152
        0x00005cf4:    020e0205    ....    DCD    34472453
        0x00005cf8:    020d0215    ....    DCD    34406933
        0x00005cfc:    02430237    7.C.    DCD    37945911
        0x00005d00:    02090247    G...    DCD    34144839
        0x00005d04:    02120215    ....    DCD    34734613
        0x00005d08:    01190216    ....    DCD    18416150
        0x00005d0c:    02d002e1    ....    DCD    47186657
        0x00005d10:    02050200    ....    DCD    33882624
        0x00005d14:    020c020d    ....    DCD    34341389
        0x00005d18:    022d0206    ..-.    DCD    36504070
        0x00005d1c:    02400244    D.@.    DCD    37749316
        0x00005d20:    021c020e    ....    DCD    35389966
        0x00005d24:    02160218    ....    DCD    34996760
        0x00005d28:    022a0119    ..*.    DCD    36307225
        0x00005d2c:    02000200    ....    DCD    33554944
        0x00005d30:    01ef0200    ....    DCD    32440832
        0x00005d34:    0200022b    +...    DCD    33554987
        0x00005d38:    02010200    ....    DCD    33620480
        0x00005d3c:    0029013f    ?.).    DCD    2687295
        0x00005d40:    00          .       DCB    0
    .constdata
    ZAG
        0x00005d41:    000108      ...     DCB    0,1,8
        0x00005d44:    03020910    ....    DCD    50465040
        0x00005d48:    2018110a    ...     DCD    538448138
        0x00005d4c:    040b1219    ....    DCD    67834393
        0x00005d50:    1a130c05    ....    DCD    437455877
        0x00005d54:    29302821    !(0)    DCD    691021857
        0x00005d58:    0d141b22    "...    DCD    219421474
        0x00005d5c:    150e0706    ....    DCD    353240838
        0x00005d60:    312a231c    .#*1    DCD    824845084
        0x00005d64:    2b323938    892+    DCD    724711736
        0x00005d68:    0f161d24    $...    DCD    253107492
        0x00005d6c:    2c251e17    ..%,    DCD    740630039
        0x00005d70:    343b3a33    3:;4    DCD    876296755
        0x00005d74:    271f262d    -&.'    DCD    656352813
        0x00005d78:    3d3c352e    .5<=    DCD    1027355950
        0x00005d7c:    3e372f36    6/7>    DCD    1043803958
        0x00005d80:    3f          ?       DCB    63
    gWinogradQuant
        0x00005d81:    80b2b2      ...     DCB    128,178,178
        0x00005d84:    97a7f6a7    ....    DCD    2544367271
        0x00005d88:    8097e8e8    ....    DCD    2157439208
        0x00005d8c:    80d1dbd1    ....    DCD    2161236945
        0x00005d90:    c5c5b265    e...    DCD    3318067813
        0x00005d94:    8b4565b2    .eE.    DCD    2336581042
        0x00005d98:    8ba7b1a7    ....    DCD    2343023015
        0x00005d9c:    83602345    E#`.    DCD    2204115781
        0x00005da0:    60839797    ...`    DCD    1619236759
        0x00005da4:    765b3123    #1[v    DCD    1985687843
        0x00005da8:    315b7680    .v[1    DCD    828077696
        0x00005dac:    6565512e    .Qee    DCD    1701138734
        0x00005db0:    452a2e51    Q.*E    DCD    1160392273
        0x00005db4:    232a454f    OE*#    DCD    589972815
        0x00005db8:    1c233636    66#.    DCD    472069686
        0x00005dbc:    13131c25    %...    DCD    320019493
        0x00005dc0:    0a          .       DCB    10
    .constdata
    cvt
        0x00005dc1:    809a45      ..E     DCB    128,154,69
        0x00005dc4:    8f418e41    A.A.    DCD    2403438145
        0x00005dc8:    45454580    .EEE    DCD    1162167680
        0x00005dcc:    8e494949    III.    DCD    2387167561
        0x00005dd0:    9292908f    ....    DCD    2459078799
        0x00005dd4:    554f994f    O.OU    DCD    1431279951
        0x00005dd8:    9a995955    UY..    DCD    2593741141
        0x00005ddc:    9e9d9c9b    ....    DCD    2661129371
        0x00005de0:    4f49419f    .AIO    DCD    1330200991
        0x00005de4:    a6a5a555    U...    DCD    2795873621
        0x00005de8:    aaa9a8a7    ....    DCD    2863245479
        0x00005dec:    aeadacab    ....    DCD    2930617515
        0x00005df0:    b2b1b0af    ....    DCD    2997989551
        0x00005df4:    b6b5b4b3    ....    DCD    3065361587
        0x00005df8:    bab9b8b7    ....    DCD    3132733623
        0x00005dfc:    bebdbcbb    ....    DCD    3200105659
        0x00005e00:    c2c1c0bf    ....    DCD    3267477695
        0x00005e04:    c6c5c4c3    ....    DCD    3334849731
        0x00005e08:    cac9c8c7    ....    DCD    3402221767
        0x00005e0c:    cecdcccb    ....    DCD    3469593803
        0x00005e10:    d2d1d0cf    ....    DCD    3536965839
        0x00005e14:    d6d5d4d3    ....    DCD    3604337875
        0x00005e18:    dad9d8d7    ....    DCD    3671709911
        0x00005e1c:    dedddcdb    ....    DCD    3739081947
        0x00005e20:    e2e1e0df    ....    DCD    3806453983
        0x00005e24:    e6e5e4e3    ....    DCD    3873826019
        0x00005e28:    eae9e8e7    ....    DCD    3941198055
        0x00005e2c:    eeedeceb    ....    DCD    4008570091
        0x00005e30:    f2f1f0ef    ....    DCD    4075942127
        0x00005e34:    f6f5f4f3    ....    DCD    4143314163
        0x00005e38:    faf9f8f7    ....    DCD    4210686199
        0x00005e3c:    fefdfcfb    ....    DCD    4278058235
        0x00005e40:    000000ff    ....    DCD    255
    Region$$Table$$Base
        0x00005e44:    00005e64    d^..    DCD    24164
        0x00005e48:    1ffff000    ....    DCD    536866816
        0x00005e4c:    000000c4    ....    DCD    196
        0x00005e50:    000016fe    ....    DCD    5886
        0x00005e54:    00005f28    (_..    DCD    24360
        0x00005e58:    1ffff0c4    ....    DCD    536867012
        0x00005e5c:    00001ad4    ....    DCD    6868
        0x00005e60:    0000170c    ....    DCD    5900
    Region$$Table$$Limit

** Section #2 'RW_IRAM1' (SHT_PROGBITS) [SHF_ALLOC + SHF_WRITE]
    Size   : 196 bytes (alignment 4)
    Address: 0x1ffff000


** Section #3 'RW_IRAM1' (SHT_NOBITS) [SHF_ALLOC + SHF_WRITE]
    Size   : 6868 bytes (alignment 8)
    Address: 0x1ffff0c4


** Section #4 '.debug_abbrev' (SHT_PROGBITS)
    Size   : 1476 bytes


** Section #5 '.debug_frame' (SHT_PROGBITS)
    Size   : 4304 bytes


** Section #6 '.debug_info' (SHT_PROGBITS)
    Size   : 68168 bytes


** Section #7 '.debug_line' (SHT_PROGBITS)
    Size   : 27384 bytes


** Section #8 '.debug_loc' (SHT_PROGBITS)
    Size   : 16292 bytes


** Section #9 '.debug_macinfo' (SHT_PROGBITS)
    Size   : 218448 bytes


** Section #10 '.debug_pubnames' (SHT_PROGBITS)
    Size   : 4244 bytes


** Section #11 '.symtab' (SHT_SYMTAB)
    Size   : 14016 bytes (alignment 4)
    String table #12 '.strtab'
    Last local symbol no. 656


** Section #12 '.strtab' (SHT_STRTAB)
    Size   : 8764 bytes


** Section #13 '.note' (SHT_NOTE)
    Size   : 28 bytes (alignment 4)


** Section #14 '.comment' (SHT_PROGBITS)
    Size   : 27996 bytes


** Section #15 '.shstrtab' (SHT_STRTAB)
    Size   : 156 bytes


