; generated by Component: ARM Compiler 5.06 update 4 (build 422) Tool: ArmCC [4d3604]
; commandline ArmCC [--c99 --list --split_sections --debug -c --asm --interleave -o.\objects\picojpeg.o --asm_dir=.\Listings\ --list_dir=.\Listings\ --depend=.\objects\picojpeg.d --cpu=Cortex-M0+ --fpmode=fast --apcs=interwork -O3 -Otime --diag_suppress=9931 -I.\Include -I.\Source\Profiler -I.\Source\LCD -I.\Source\FS -I.\Source\ulibSD -I.\RTE\Device\MKL25Z128xxx4 -I.\RTE\_Target_1 -IC:\Keil_v5\ARM\PACK\ARM\CMSIS\5.0.1\CMSIS\Include -IC:\Keil_v5\ARM\PACK\Keil\Kinetis_KLxx_DFP\1.15.0\Device\Include -D__MICROLIB -D__UVISION_VERSION=523 -D_RTE_ -DMKL25Z128xxx4 --omf_browse=.\objects\picojpeg.crf Source\LCD\picojpeg.c]
                          THUMB

                          AREA ||i.copyY||, CODE, READONLY, ALIGN=2

                  copyY PROC
;;;1747   // Convert Y to RGB
;;;1748   static void copyY(uint8 dstOfs) // AD Opt: Move data 32 bits at a time. Need prolog and epilog.
000000  490a              LDR      r1,|L1.44|
;;;1749   {
;;;1750      uint8 i;
;;;1751      uint8* pRDst = gMCUBufR + dstOfs;
;;;1752      uint8* pGDst = gMCUBufG + dstOfs;
;;;1753      uint8* pBDst = gMCUBufB + dstOfs;
000002  4b0c              LDR      r3,|L1.52|
000004  180a              ADDS     r2,r1,r0              ;1751
000006  490a              LDR      r1,|L1.48|
000008  b430              PUSH     {r4,r5}               ;1749
00000a  1809              ADDS     r1,r1,r0              ;1752
00000c  1818              ADDS     r0,r3,r0
;;;1754      int16* pSrc = gCoeffBuf;
00000e  4b0a              LDR      r3,|L1.56|
;;;1755      
;;;1756      for (i = 64; i > 0; i--)
000010  2540              MOVS     r5,#0x40
                  |L1.18|
;;;1757      {
;;;1758         uint8 c = (uint8)*pSrc++;
000012  781c              LDRB     r4,[r3,#0]
;;;1759         
;;;1760         *pRDst++ = c;
000014  7014              STRB     r4,[r2,#0]
;;;1761         *pGDst++ = c;
000016  700c              STRB     r4,[r1,#0]
;;;1762         *pBDst++ = c;
000018  7004              STRB     r4,[r0,#0]
00001a  1c40              ADDS     r0,r0,#1
00001c  1c49              ADDS     r1,r1,#1
00001e  1c52              ADDS     r2,r2,#1
000020  1c9b              ADDS     r3,r3,#2
000022  1e6d              SUBS     r5,r5,#1
000024  d1f5              BNE      |L1.18|
;;;1763      }
;;;1764   }
000026  bc30              POP      {r4,r5}
000028  4770              BX       lr
;;;1765   /*----------------------------------------------------------------------------*/
                          ENDP

00002a  0000              DCW      0x0000
                  |L1.44|
                          DCD      ||.bss||+0x80
                  |L1.48|
                          DCD      ||.bss||+0x180
                  |L1.52|
                          DCD      ||.bss||+0x280
                  |L1.56|
                          DCD      ||.bss||

                          AREA ||i.decodeNextMCU||, CODE, READONLY, ALIGN=2

                  decodeNextMCU PROC
;;;2181   
;;;2182   static uint8 decodeNextMCU(void)
000000  b5f0              PUSH     {r4-r7,lr}
;;;2183   {
;;;2184      uint8 status;
;;;2185      uint8 mcuBlock;   
;;;2186   
;;;2187      if (gRestartInterval) {
000002  4df9              LDR      r5,|L2.1000|
000004  4ff9              LDR      r7,|L2.1004|
000006  8aa8              LDRH     r0,[r5,#0x14]  ; gRestartInterval
000008  b08f              SUB      sp,sp,#0x3c           ;2183
00000a  2800              CMP      r0,#0
00000c  d034              BEQ      |L2.120|
;;;2188         if (gRestartsLeft == 0) {
00000e  8b28              LDRH     r0,[r5,#0x18]  ; gRestartsLeft
000010  2800              CMP      r0,#0
000012  d12e              BNE      |L2.114|
000014  2403              MOVS     r4,#3
000016  0264              LSLS     r4,r4,#9
000018  261d              MOVS     r6,#0x1d
                  |L2.26|
00001a  f7fffffe          BL       getChar
00001e  28ff              CMP      r0,#0xff
000020  d004              BEQ      |L2.44|
000022  1e64              SUBS     r4,r4,#1
000024  0424              LSLS     r4,r4,#16
000026  0c24              LSRS     r4,r4,#16
000028  d1f7              BNE      |L2.26|
00002a  e001              B        |L2.48|
                  |L2.44|
00002c  2c00              CMP      r4,#0
00002e  d102              BNE      |L2.54|
                  |L2.48|
000030  4630              MOV      r0,r6
;;;2189            status = processRestart();
;;;2190            if (status)
;;;2191               return status;
;;;2192         }
;;;2193         gRestartsLeft--;
;;;2194      }      
;;;2195      
;;;2196      for (mcuBlock = 0; mcuBlock < gMaxBlocksPerMCU; mcuBlock++) {
;;;2197         uint8 componentID = gMCUOrg[mcuBlock];
;;;2198         uint8 compQuant = gCompQuant[componentID];	
;;;2199         uint8 compDCTab = gCompDCTab[componentID];
;;;2200         uint8 numExtraBits, compACTab, k;
;;;2201         const int16* pQ = compQuant ? gQuant1 : gQuant0;
;;;2202         uint16 r, dc;
;;;2203         uint8 s = huffDecode(compDCTab ? &gHuffTab1 : &gHuffTab0, compDCTab ? gHuffVal1 : gHuffVal0);
;;;2204        
;;;2205         r = 0;
;;;2206         numExtraBits = s & 0xF;
;;;2207         if (numExtraBits)
;;;2208            r = getBits(numExtraBits,1);
;;;2209         dc = huffExtend(r, s);          
;;;2210         dc = dc + gLastDC[componentID];
;;;2211         gLastDC[componentID] = dc;
;;;2212         gCoeffBuf[0] = dc * pQ[0];
;;;2213         compACTab = gCompACTab[componentID];
;;;2214   
;;;2215         if (gReduce) {
;;;2216            // Decode, but throw out the AC coefficients in reduce mode.
;;;2217            for (k = 1; k < 64; k++) {
;;;2218               s = huffDecode(compACTab ? &gHuffTab3 : &gHuffTab2, compACTab ? gHuffVal3 : gHuffVal2);
;;;2219               numExtraBits = s & 0xF;
;;;2220               if (numExtraBits)
;;;2221                  getBits(numExtraBits,1);
;;;2222               r = s >> 4;
;;;2223               s &= 15;
;;;2224               if (s) {
;;;2225                  if (r) {
;;;2226                     if ((k + r) > 63)
;;;2227                        return PJPG_DECODE_ERROR;
;;;2228                     k = (uint8)(k + r);
;;;2229                  }
;;;2230               } else {
;;;2231                  if (r == 15) {
;;;2232                     if ((k + 16) > 64)
;;;2233                        return PJPG_DECODE_ERROR;
;;;2234                     k += (16 - 1); // - 1 because the loop counter is k
;;;2235                  } else
;;;2236                     break;
;;;2237               }
;;;2238            }
;;;2239            transformBlockReduce(mcuBlock); 
;;;2240         } else {
;;;2241            // Decode and dequantize AC coefficients
;;;2242            for (k = 1; k < 64; k++) {
;;;2243               uint16 extraBits;
;;;2244               s = huffDecode(compACTab ? &gHuffTab3 : &gHuffTab2, compACTab ? gHuffVal3 : gHuffVal2);
;;;2245               extraBits = 0;
;;;2246               numExtraBits = s & 0xF;
;;;2247               if (numExtraBits)
;;;2248                  extraBits = getBits(numExtraBits,1);
;;;2249   
;;;2250               r = s >> 4;
;;;2251               s &= 15;
;;;2252               if (s) {
;;;2253                  int16 ac;
;;;2254                  if (r) {
;;;2255                     if ((k + r) > 63)
;;;2256                        return PJPG_DECODE_ERROR;
;;;2257                     while (r) {
;;;2258                        gCoeffBuf[ZAG[k++]] = 0;
;;;2259                        r--;
;;;2260                     }
;;;2261                  }
;;;2262                  ac = huffExtend(extraBits, s);
;;;2263                  gCoeffBuf[ZAG[k]] = ac * pQ[k]; 
;;;2264               } else {
;;;2265                  if (r == 15) {
;;;2266                     if ((k + 16) > 64)
;;;2267                        return PJPG_DECODE_ERROR;
;;;2268                     for (r = 16; r > 0; r--)
;;;2269                        gCoeffBuf[ZAG[k++]] = 0;
;;;2270                     k--; // - 1 because the loop counter is k
;;;2271                  } else
;;;2272                     break;
;;;2273               }
;;;2274            }     
;;;2275            while (k < 64)
;;;2276               gCoeffBuf[ZAG[k++]] = 0;
;;;2277            transformBlock(mcuBlock); 
;;;2278         }
;;;2279      }        
;;;2280      return 0;
;;;2281   }
000032  b00f              ADD      sp,sp,#0x3c
000034  bdf0              POP      {r4-r7,pc}
                  |L2.54|
000036  f7fffffe          BL       getChar
00003a  28ff              CMP      r0,#0xff
00003c  d02d              BEQ      |L2.154|
00003e  2c00              CMP      r4,#0
000040  d0f6              BEQ      |L2.48|
000042  8ae9              LDRH     r1,[r5,#0x16]  ; gNextRestartNum
000044  460a              MOV      r2,r1
000046  32d0              ADDS     r2,r2,#0xd0
000048  4290              CMP      r0,r2
00004a  d1f1              BNE      |L2.48|
00004c  2000              MOVS     r0,#0
00004e  8038              STRH     r0,[r7,#0]
000050  8078              STRH     r0,[r7,#2]
000052  80b8              STRH     r0,[r7,#4]
000054  8aa8              LDRH     r0,[r5,#0x14]  ; gRestartInterval
000056  8328              STRH     r0,[r5,#0x18]
000058  1c49              ADDS     r1,r1,#1
00005a  0748              LSLS     r0,r1,#29
00005c  0f40              LSRS     r0,r0,#29
00005e  82e8              STRH     r0,[r5,#0x16]
000060  2008              MOVS     r0,#8
000062  7168              STRB     r0,[r5,#5]
000064  2101              MOVS     r1,#1
000066  f7fffffe          BL       getBits
00006a  2101              MOVS     r1,#1
00006c  2008              MOVS     r0,#8
00006e  f7fffffe          BL       getBits
                  |L2.114|
000072  8b28              LDRH     r0,[r5,#0x18]         ;2193  ; gRestartsLeft
000074  1e40              SUBS     r0,r0,#1              ;2193
000076  8328              STRH     r0,[r5,#0x18]         ;2193
                  |L2.120|
000078  2000              MOVS     r0,#0                 ;2196
00007a  9008              STR      r0,[sp,#0x20]         ;2196
00007c  7a68              LDRB     r0,[r5,#9]            ;2196  ; gMaxBlocksPerMCU
00007e  2800              CMP      r0,#0                 ;2196
000080  d800              BHI      |L2.132|
000082  e3fd              B        |L2.2176|
                  |L2.132|
000084  48da              LDR      r0,|L2.1008|
000086  9908              LDR      r1,[sp,#0x20]         ;2197
000088  5c45              LDRB     r5,[r0,r1]            ;2197
00008a  48da              LDR      r0,|L2.1012|
00008c  49da              LDR      r1,|L2.1016|
00008e  5d40              LDRB     r0,[r0,r5]            ;2198
000090  5d49              LDRB     r1,[r1,r5]            ;2199
000092  2800              CMP      r0,#0                 ;2201
000094  d006              BEQ      |L2.164|
000096  48d9              LDR      r0,|L2.1020|
000098  e005              B        |L2.166|
                  |L2.154|
00009a  1e64              SUBS     r4,r4,#1              ;2201
00009c  0424              LSLS     r4,r4,#16             ;2201
00009e  0c24              LSRS     r4,r4,#16             ;2201
0000a0  d1c9              BNE      |L2.54|
0000a2  e7c5              B        |L2.48|
                  |L2.164|
0000a4  48d6              LDR      r0,|L2.1024|
                  |L2.166|
0000a6  9006              STR      r0,[sp,#0x18]         ;2203
0000a8  2900              CMP      r1,#0                 ;2203
0000aa  d002              BEQ      |L2.178|
0000ac  49d5              LDR      r1,|L2.1028|
0000ae  48d6              LDR      r0,|L2.1032|
0000b0  e001              B        |L2.182|
                  |L2.178|
0000b2  49d6              LDR      r1,|L2.1036|
0000b4  48d6              LDR      r0,|L2.1040|
                  |L2.182|
0000b6  f7fffffe          BL       huffDecode
0000ba  4604              MOV      r4,r0                 ;2203
0000bc  2000              MOVS     r0,#0                 ;2205
0000be  0722              LSLS     r2,r4,#28             ;2206
0000c0  0f12              LSRS     r2,r2,#28             ;2206
0000c2  d003              BEQ      |L2.204|
0000c4  2101              MOVS     r1,#1                 ;2208
0000c6  4610              MOV      r0,r2                 ;2208
0000c8  f7fffffe          BL       getBits
                  |L2.204|
0000cc  2c10              CMP      r4,#0x10              ;2208
0000ce  d231              BCS      |L2.308|
0000d0  0021              MOVS     r1,r4                 ;2208
0000d2  4479              ADD      r1,r1,pc              ;2208
0000d4  7909              LDRB     r1,[r1,#4]            ;2208
0000d6  1849              ADDS     r1,r1,r1              ;2208
0000d8  448f              ADD      pc,pc,r1              ;2208
0000da  2c07              DCB      0x2c,0x07
0000dc  090b0d0f          DCB      0x09,0x0b,0x0d,0x0f
0000e0  11131517          DCB      0x11,0x13,0x15,0x17
0000e4  1a1d2023          DCB      0x1a,0x1d,0x20,0x23
0000e8  2629              DCB      0x26,0x29
0000ea  2101              MOVS     r1,#1                 ;2208
0000ec  e023              B        |L2.310|
0000ee  2102              MOVS     r1,#2                 ;2208
0000f0  e021              B        |L2.310|
0000f2  2104              MOVS     r1,#4                 ;2208
0000f4  e01f              B        |L2.310|
0000f6  2108              MOVS     r1,#8                 ;2208
0000f8  e01d              B        |L2.310|
0000fa  2110              MOVS     r1,#0x10              ;2208
0000fc  e01b              B        |L2.310|
0000fe  2120              MOVS     r1,#0x20              ;2208
000100  e019              B        |L2.310|
000102  2140              MOVS     r1,#0x40              ;2208
000104  e017              B        |L2.310|
000106  2180              MOVS     r1,#0x80              ;2208
000108  e015              B        |L2.310|
00010a  21ff              MOVS     r1,#0xff              ;2208
00010c  3101              ADDS     r1,#1                 ;2208
00010e  e012              B        |L2.310|
000110  2101              MOVS     r1,#1                 ;2208
000112  0249              LSLS     r1,r1,#9              ;2208
000114  e00f              B        |L2.310|
000116  2101              MOVS     r1,#1                 ;2208
000118  0289              LSLS     r1,r1,#10             ;2208
00011a  e00c              B        |L2.310|
00011c  2101              MOVS     r1,#1                 ;2208
00011e  02c9              LSLS     r1,r1,#11             ;2208
000120  e009              B        |L2.310|
000122  2101              MOVS     r1,#1                 ;2208
000124  0309              LSLS     r1,r1,#12             ;2208
000126  e006              B        |L2.310|
000128  2101              MOVS     r1,#1                 ;2208
00012a  0349              LSLS     r1,r1,#13             ;2208
00012c  e003              B        |L2.310|
00012e  2101              MOVS     r1,#1                 ;2208
000130  0389              LSLS     r1,r1,#14             ;2208
000132  e000              B        |L2.310|
                  |L2.308|
000134  2100              MOVS     r1,#0                 ;2208
                  |L2.310|
000136  4281              CMP      r1,r0                 ;2208
000138  d938              BLS      |L2.428|
00013a  2c10              CMP      r4,#0x10              ;2208
00013c  d232              BCS      |L2.420|
00013e  0021              MOVS     r1,r4                 ;2208
000140  4479              ADD      r1,r1,pc              ;2208
000142  7909              LDRB     r1,[r1,#4]            ;2208
000144  1849              ADDS     r1,r1,r1              ;2208
000146  448f              ADD      pc,pc,r1              ;2208
000148  2d070a0d          DCB      0x2d,0x07,0x0a,0x0d
00014c  10131619          DCB      0x10,0x13,0x16,0x19
000150  1c1f2123          DCB      0x1c,0x1f,0x21,0x23
000154  2527292b          DCB      0x25,0x27,0x29,0x2b
000158  2100              MOVS     r1,#0                 ;2208
00015a  43c9              MVNS     r1,r1                 ;2208
00015c  e023              B        |L2.422|
00015e  2102              MOVS     r1,#2                 ;2208
000160  43c9              MVNS     r1,r1                 ;2208
000162  e020              B        |L2.422|
000164  2106              MOVS     r1,#6                 ;2208
000166  43c9              MVNS     r1,r1                 ;2208
000168  e01d              B        |L2.422|
00016a  210e              MOVS     r1,#0xe               ;2208
00016c  43c9              MVNS     r1,r1                 ;2208
00016e  e01a              B        |L2.422|
000170  211e              MOVS     r1,#0x1e              ;2208
000172  43c9              MVNS     r1,r1                 ;2208
000174  e017              B        |L2.422|
000176  213e              MOVS     r1,#0x3e              ;2208
000178  43c9              MVNS     r1,r1                 ;2208
00017a  e014              B        |L2.422|
00017c  217e              MOVS     r1,#0x7e              ;2208
00017e  43c9              MVNS     r1,r1                 ;2208
000180  e011              B        |L2.422|
000182  21fe              MOVS     r1,#0xfe              ;2208
000184  43c9              MVNS     r1,r1                 ;2208
000186  e00e              B        |L2.422|
000188  49a2              LDR      r1,|L2.1044|
00018a  e00c              B        |L2.422|
00018c  49a2              LDR      r1,|L2.1048|
00018e  e00a              B        |L2.422|
000190  49a2              LDR      r1,|L2.1052|
000192  e008              B        |L2.422|
000194  49a2              LDR      r1,|L2.1056|
000196  e006              B        |L2.422|
000198  49a2              LDR      r1,|L2.1060|
00019a  e004              B        |L2.422|
00019c  49a2              LDR      r1,|L2.1064|
00019e  e002              B        |L2.422|
0001a0  49a2              LDR      r1,|L2.1068|
0001a2  e000              B        |L2.422|
                  |L2.420|
0001a4  2100              MOVS     r1,#0                 ;2208
                  |L2.422|
0001a6  b200              SXTH     r0,r0                 ;2208
0001a8  1808              ADDS     r0,r1,r0              ;2208
0001aa  e000              B        |L2.430|
                  |L2.428|
0001ac  b200              SXTH     r0,r0                 ;2208
                  |L2.430|
0001ae  498f              LDR      r1,|L2.1004|
0001b0  006a              LSLS     r2,r5,#1              ;2210
0001b2  5a8b              LDRH     r3,[r1,r2]            ;2210
0001b4  4e9e              LDR      r6,|L2.1072|
0001b6  1818              ADDS     r0,r3,r0              ;2210
0001b8  5288              STRH     r0,[r1,r2]            ;2211
0001ba  9906              LDR      r1,[sp,#0x18]         ;2212
0001bc  8809              LDRH     r1,[r1,#0]            ;2212
0001be  4341              MULS     r1,r0,r1              ;2212
0001c0  489c              LDR      r0,|L2.1076|
0001c2  8031              STRH     r1,[r6,#0]            ;2212
0001c4  5d40              LDRB     r0,[r0,r5]            ;2213
0001c6  9005              STR      r0,[sp,#0x14]         ;2215
0001c8  4887              LDR      r0,|L2.1000|
0001ca  7b40              LDRB     r0,[r0,#0xd]          ;2215  ; gReduce
0001cc  2800              CMP      r0,#0                 ;2215
0001ce  d076              BEQ      |L2.702|
0001d0  2501              MOVS     r5,#1                 ;2217
                  |L2.466|
0001d2  9805              LDR      r0,[sp,#0x14]         ;2218
0001d4  2800              CMP      r0,#0                 ;2218
0001d6  d002              BEQ      |L2.478|
0001d8  4997              LDR      r1,|L2.1080|
0001da  4898              LDR      r0,|L2.1084|
0001dc  e001              B        |L2.482|
                  |L2.478|
0001de  4998              LDR      r1,|L2.1088|
0001e0  4898              LDR      r0,|L2.1092|
                  |L2.482|
0001e2  f7fffffe          BL       huffDecode
0001e6  4607              MOV      r7,r0                 ;2218
0001e8  0700              LSLS     r0,r0,#28             ;2219
0001ea  0f00              LSRS     r0,r0,#28             ;2219
0001ec  4604              MOV      r4,r0                 ;2219
0001ee  d002              BEQ      |L2.502|
0001f0  2101              MOVS     r1,#1                 ;2221
0001f2  f7fffffe          BL       getBits
                  |L2.502|
0001f6  0938              LSRS     r0,r7,#4              ;2222
0001f8  2c00              CMP      r4,#0                 ;2224
0001fa  d006              BEQ      |L2.522|
0001fc  2800              CMP      r0,#0                 ;2225
0001fe  d00c              BEQ      |L2.538|
000200  1828              ADDS     r0,r5,r0              ;2226
000202  283f              CMP      r0,#0x3f              ;2226
000204  d86f              BHI      |L2.742|
000206  b2c5              UXTB     r5,r0                 ;2228
000208  e007              B        |L2.538|
                  |L2.522|
00020a  280f              CMP      r0,#0xf               ;2231
00020c  d109              BNE      |L2.546|
00020e  4628              MOV      r0,r5                 ;2232
000210  3010              ADDS     r0,r0,#0x10           ;2232
000212  2840              CMP      r0,#0x40              ;2232
000214  d867              BHI      |L2.742|
000216  350f              ADDS     r5,r5,#0xf            ;2232
000218  b2ed              UXTB     r5,r5                 ;2234
                  |L2.538|
00021a  1c6d              ADDS     r5,r5,#1              ;2234
00021c  b2ed              UXTB     r5,r5                 ;2236
00021e  2d40              CMP      r5,#0x40              ;2236
000220  d3d7              BCC      |L2.466|
                  |L2.546|
000222  2000              MOVS     r0,#0                 ;2236
000224  5e30              LDRSH    r0,[r6,r0]            ;2236  ; gCoeffBuf
000226  9908              LDR      r1,[sp,#0x20]         ;2236
000228  3040              ADDS     r0,r0,#0x40           ;2236
00022a  09c0              LSRS     r0,r0,#7              ;2236
00022c  3080              ADDS     r0,r0,#0x80           ;2236
00022e  b200              SXTH     r0,r0                 ;2236
000230  b282              UXTH     r2,r0                 ;2236
000232  2aff              CMP      r2,#0xff              ;2236
000234  d907              BLS      |L2.582|
000236  2800              CMP      r0,#0                 ;2236
000238  da01              BGE      |L2.574|
00023a  2000              MOVS     r0,#0                 ;2236
00023c  e004              B        |L2.584|
                  |L2.574|
00023e  28ff              CMP      r0,#0xff              ;2236
000240  dd01              BLE      |L2.582|
000242  20ff              MOVS     r0,#0xff              ;2236
000244  e000              B        |L2.584|
                  |L2.582|
000246  b2c0              UXTB     r0,r0                 ;2236
                  |L2.584|
000248  4a67              LDR      r2,|L2.1000|
00024a  7a12              LDRB     r2,[r2,#8]            ;2236  ; gScanType
00024c  2a05              CMP      r2,#5                 ;2236
00024e  d300              BCC      |L2.594|
000250  e24a              B        |L2.1768|
                  |L2.594|
000252  0013              MOVS     r3,r2                 ;2236
000254  447b              ADD      r3,r3,pc              ;2236
000256  791b              LDRB     r3,[r3,#4]            ;2236
000258  18db              ADDS     r3,r3,r3              ;2236
00025a  449f              ADD      pc,pc,r3              ;2236
00025c  0204c456          DCB      0x02,0x04,0xc4,0x56
000260  c300              DCB      0xc3,0x00
000262  4979              LDR      r1,|L2.1096|
000264  e1e7              B        |L2.1590|
000266  2900              CMP      r1,#0                 ;2236
000268  d071              BEQ      |L2.846|
00026a  2901              CMP      r1,#1                 ;2236
00026c  d003              BEQ      |L2.630|
00026e  2902              CMP      r1,#2                 ;2236
000270  d000              BEQ      |L2.628|
000272  e239              B        |L2.1768|
                  |L2.628|
000274  e024              B        |L2.704|
                  |L2.630|
000276  2158              MOVS     r1,#0x58              ;2236
000278  4a74              LDR      r2,|L2.1100|
00027a  4341              MULS     r1,r0,r1              ;2236
00027c  0a09              LSRS     r1,r1,#8              ;2236
00027e  7813              LDRB     r3,[r2,#0]            ;2236  ; gMCUBufG
000280  392c              SUBS     r1,r1,#0x2c           ;2236
000282  1a59              SUBS     r1,r3,r1              ;2236
000284  b28b              UXTH     r3,r1                 ;2236
000286  2bff              CMP      r3,#0xff              ;2236
000288  d907              BLS      |L2.666|
00028a  2900              CMP      r1,#0                 ;2236
00028c  da01              BGE      |L2.658|
00028e  2100              MOVS     r1,#0                 ;2236
000290  e004              B        |L2.668|
                  |L2.658|
000292  29ff              CMP      r1,#0xff              ;2236
000294  dd01              BLE      |L2.666|
000296  21ff              MOVS     r1,#0xff              ;2236
000298  e000              B        |L2.668|
                  |L2.666|
00029a  b2c9              UXTB     r1,r1                 ;2236
                  |L2.668|
00029c  7011              STRB     r1,[r2,#0]            ;2236
00029e  21c6              MOVS     r1,#0xc6              ;2236
0002a0  4341              MULS     r1,r0,r1              ;2236
0002a2  0a09              LSRS     r1,r1,#8              ;2236
0002a4  1808              ADDS     r0,r1,r0              ;2236
0002a6  496a              LDR      r1,|L2.1104|
0002a8  38e3              SUBS     r0,r0,#0xe3           ;2236
0002aa  780a              LDRB     r2,[r1,#0]            ;2236  ; gMCUBufB
0002ac  1810              ADDS     r0,r2,r0              ;2236
0002ae  b282              UXTH     r2,r0                 ;2236
0002b0  2aff              CMP      r2,#0xff              ;2236
0002b2  d96e              BLS      |L2.914|
0002b4  2800              CMP      r0,#0                 ;2236
0002b6  db6d              BLT      |L2.916|
0002b8  28ff              CMP      r0,#0xff              ;2236
0002ba  dc6c              BGT      |L2.918|
0002bc  e2e5              B        |L2.2186|
                  |L2.702|
0002be  e2e6              B        |L2.2190|
                  |L2.704|
0002c0  2167              MOVS     r1,#0x67              ;2236
0002c2  4341              MULS     r1,r0,r1              ;2236
0002c4  4a60              LDR      r2,|L2.1096|
0002c6  0a09              LSRS     r1,r1,#8              ;2236
0002c8  1809              ADDS     r1,r1,r0              ;2236
0002ca  7813              LDRB     r3,[r2,#0]            ;2236  ; gMCUBufR
0002cc  39b3              SUBS     r1,r1,#0xb3           ;2236
0002ce  1859              ADDS     r1,r3,r1              ;2236
0002d0  b28b              UXTH     r3,r1                 ;2236
0002d2  2bff              CMP      r3,#0xff              ;2236
0002d4  d908              BLS      |L2.744|
0002d6  2900              CMP      r1,#0                 ;2236
0002d8  da01              BGE      |L2.734|
0002da  2100              MOVS     r1,#0                 ;2236
0002dc  e005              B        |L2.746|
                  |L2.734|
0002de  29ff              CMP      r1,#0xff              ;2236
0002e0  dd02              BLE      |L2.744|
0002e2  21ff              MOVS     r1,#0xff              ;2236
0002e4  e001              B        |L2.746|
                  |L2.742|
0002e6  e360              B        |L2.2474|
                  |L2.744|
0002e8  b2c9              UXTB     r1,r1                 ;2236
                  |L2.746|
0002ea  7011              STRB     r1,[r2,#0]            ;2236
0002ec  21b7              MOVS     r1,#0xb7              ;2236
0002ee  4348              MULS     r0,r1,r0              ;2236
0002f0  4956              LDR      r1,|L2.1100|
0002f2  0a00              LSRS     r0,r0,#8              ;2236
0002f4  780a              LDRB     r2,[r1,#0]            ;2236  ; gMCUBufG
0002f6  385b              SUBS     r0,r0,#0x5b           ;2236
0002f8  1a10              SUBS     r0,r2,r0              ;2236
0002fa  b282              UXTH     r2,r0                 ;2236
0002fc  2aff              CMP      r2,#0xff              ;2236
0002fe  d948              BLS      |L2.914|
000300  2800              CMP      r0,#0                 ;2236
000302  db47              BLT      |L2.916|
000304  28ff              CMP      r0,#0xff              ;2236
000306  dc46              BGT      |L2.918|
000308  e2bf              B        |L2.2186|
00030a  2900              CMP      r1,#0                 ;2236
00030c  d01f              BEQ      |L2.846|
00030e  2901              CMP      r1,#1                 ;2236
000310  d005              BEQ      |L2.798|
000312  2902              CMP      r1,#2                 ;2236
000314  d009              BEQ      |L2.810|
000316  2903              CMP      r1,#3                 ;2236
000318  d000              BEQ      |L2.796|
00031a  e1e5              B        |L2.1768|
                  |L2.796|
00031c  e04f              B        |L2.958|
                  |L2.798|
00031e  494d              LDR      r1,|L2.1108|
000320  7008              STRB     r0,[r1,#0]            ;2236
000322  494d              LDR      r1,|L2.1112|
000324  7008              STRB     r0,[r1,#0]            ;2236
000326  494d              LDR      r1,|L2.1116|
000328  e185              B        |L2.1590|
                  |L2.810|
00032a  2158              MOVS     r1,#0x58              ;2236
00032c  4341              MULS     r1,r0,r1              ;2236
00032e  4b47              LDR      r3,|L2.1100|
000330  0a0a              LSRS     r2,r1,#8              ;2236
000332  7819              LDRB     r1,[r3,#0]            ;2236  ; gMCUBufG
000334  3a2c              SUBS     r2,r2,#0x2c           ;2236
000336  1a89              SUBS     r1,r1,r2              ;2236
000338  b28c              UXTH     r4,r1                 ;2236
00033a  2cff              CMP      r4,#0xff              ;2236
00033c  d908              BLS      |L2.848|
00033e  2900              CMP      r1,#0                 ;2236
000340  da01              BGE      |L2.838|
000342  2100              MOVS     r1,#0                 ;2236
000344  e005              B        |L2.850|
                  |L2.838|
000346  29ff              CMP      r1,#0xff              ;2236
000348  dd02              BLE      |L2.848|
00034a  21ff              MOVS     r1,#0xff              ;2236
00034c  e001              B        |L2.850|
                  |L2.846|
00034e  e12a              B        |L2.1446|
                  |L2.848|
000350  b2c9              UXTB     r1,r1                 ;2236
                  |L2.850|
000352  7019              STRB     r1,[r3,#0]            ;2236
000354  4b40              LDR      r3,|L2.1112|
000356  7819              LDRB     r1,[r3,#0]            ;2236  ; gMCUBufG
000358  1a89              SUBS     r1,r1,r2              ;2236
00035a  b28a              UXTH     r2,r1                 ;2236
00035c  2aff              CMP      r2,#0xff              ;2236
00035e  d907              BLS      |L2.880|
000360  2900              CMP      r1,#0                 ;2236
000362  da01              BGE      |L2.872|
000364  2100              MOVS     r1,#0                 ;2236
000366  e004              B        |L2.882|
                  |L2.872|
000368  29ff              CMP      r1,#0xff              ;2236
00036a  dd01              BLE      |L2.880|
00036c  21ff              MOVS     r1,#0xff              ;2236
00036e  e000              B        |L2.882|
                  |L2.880|
000370  b2c9              UXTB     r1,r1                 ;2236
                  |L2.882|
000372  7019              STRB     r1,[r3,#0]            ;2236
000374  21c6              MOVS     r1,#0xc6              ;2236
000376  4341              MULS     r1,r0,r1              ;2236
000378  0a09              LSRS     r1,r1,#8              ;2236
00037a  4a35              LDR      r2,|L2.1104|
00037c  1809              ADDS     r1,r1,r0              ;2236
00037e  7810              LDRB     r0,[r2,#0]            ;2236  ; gMCUBufB
000380  39e3              SUBS     r1,r1,#0xe3           ;2236
000382  1840              ADDS     r0,r0,r1              ;2236
000384  b283              UXTH     r3,r0                 ;2236
000386  2bff              CMP      r3,#0xff              ;2236
000388  d90a              BLS      |L2.928|
00038a  2800              CMP      r0,#0                 ;2236
00038c  da04              BGE      |L2.920|
00038e  2000              MOVS     r0,#0                 ;2236
000390  e007              B        |L2.930|
                  |L2.914|
000392  e24a              B        |L2.2090|
                  |L2.916|
000394  e24a              B        |L2.2092|
                  |L2.918|
000396  e24a              B        |L2.2094|
                  |L2.920|
000398  28ff              CMP      r0,#0xff              ;2236
00039a  dd01              BLE      |L2.928|
00039c  20ff              MOVS     r0,#0xff              ;2236
00039e  e000              B        |L2.930|
                  |L2.928|
0003a0  b2c0              UXTB     r0,r0                 ;2236
                  |L2.930|
0003a2  7010              STRB     r0,[r2,#0]            ;2236
0003a4  4a2d              LDR      r2,|L2.1116|
0003a6  7810              LDRB     r0,[r2,#0]            ;2236  ; gMCUBufB
0003a8  1840              ADDS     r0,r0,r1              ;2236
0003aa  b281              UXTH     r1,r0                 ;2236
0003ac  29ff              CMP      r1,#0xff              ;2236
0003ae  d977              BLS      |L2.1184|
0003b0  2800              CMP      r0,#0                 ;2236
0003b2  db76              BLT      |L2.1186|
0003b4  28ff              CMP      r0,#0xff              ;2236
0003b6  dc75              BGT      |L2.1188|
0003b8  e11f              B        |L2.1530|
                  |L2.954|
0003ba  7010              STRB     r0,[r2,#0]            ;2236
0003bc  e194              B        |L2.1768|
                  |L2.958|
0003be  2167              MOVS     r1,#0x67              ;2236
0003c0  4341              MULS     r1,r0,r1              ;2236
0003c2  4b21              LDR      r3,|L2.1096|
0003c4  0a09              LSRS     r1,r1,#8              ;2236
0003c6  1809              ADDS     r1,r1,r0              ;2236
0003c8  781a              LDRB     r2,[r3,#0]            ;2236  ; gMCUBufR
0003ca  39b3              SUBS     r1,r1,#0xb3           ;2236
0003cc  1852              ADDS     r2,r2,r1              ;2236
0003ce  b294              UXTH     r4,r2                 ;2236
0003d0  2cff              CMP      r4,#0xff              ;2236
0003d2  d945              BLS      |L2.1120|
0003d4  2a00              CMP      r2,#0                 ;2236
0003d6  da01              BGE      |L2.988|
0003d8  2200              MOVS     r2,#0                 ;2236
0003da  e042              B        |L2.1122|
                  |L2.988|
0003dc  2aff              CMP      r2,#0xff              ;2236
0003de  dd3f              BLE      |L2.1120|
0003e0  22ff              MOVS     r2,#0xff              ;2236
0003e2  e03e              B        |L2.1122|
0003e4  e10b              B        |L2.1534|
0003e6  e06f              B        |L2.1224|
                  |L2.1000|
                          DCD      ||.data||
                  |L2.1004|
                          DCD      ||.data||+0x44
                  |L2.1008|
                          DCD      ||.data||+0x4a
                  |L2.1012|
                          DCD      ||.data||+0x29
                  |L2.1016|
                          DCD      ||.data||+0x2f
                  |L2.1020|
                          DCD      ||.bss||+0x400
                  |L2.1024|
                          DCD      ||.bss||+0x380
                  |L2.1028|
                          DCD      ||.bss||+0x530
                  |L2.1032|
                          DCD      ||.bss||+0x4e0
                  |L2.1036|
                          DCD      ||.bss||+0x4d0
                  |L2.1040|
                          DCD      ||.bss||+0x480
                  |L2.1044|
                          DCD      0xfffffe01
                  |L2.1048|
                          DCD      0xfffffc01
                  |L2.1052|
                          DCD      0xfffff801
                  |L2.1056|
                          DCD      0xfffff001
                  |L2.1060|
                          DCD      0xffffe001
                  |L2.1064|
                          DCD      0xffffc001
                  |L2.1068|
                          DCD      0xffff8001
                  |L2.1072|
                          DCD      ||.bss||
                  |L2.1076|
                          DCD      ||.data||+0x32
                  |L2.1080|
                          DCD      ||.bss||+0x6e0
                  |L2.1084|
                          DCD      ||.bss||+0x690
                  |L2.1088|
                          DCD      ||.bss||+0x590
                  |L2.1092|
                          DCD      ||.bss||+0x540
                  |L2.1096|
                          DCD      ||.bss||+0x80
                  |L2.1100|
                          DCD      ||.bss||+0x180
                  |L2.1104|
                          DCD      ||.bss||+0x280
                  |L2.1108|
                          DCD      ||.bss||+0x100
                  |L2.1112|
                          DCD      ||.bss||+0x200
                  |L2.1116|
                          DCD      ||.bss||+0x300
                  |L2.1120|
000460  b2d2              UXTB     r2,r2                 ;2236
                  |L2.1122|
000462  701a              STRB     r2,[r3,#0]            ;2236
000464  4afa              LDR      r2,|L2.2128|
000466  7813              LDRB     r3,[r2,#0]            ;2236  ; gMCUBufR
000468  1859              ADDS     r1,r3,r1              ;2236
00046a  b28b              UXTH     r3,r1                 ;2236
00046c  2bff              CMP      r3,#0xff              ;2236
00046e  d907              BLS      |L2.1152|
000470  2900              CMP      r1,#0                 ;2236
000472  da01              BGE      |L2.1144|
000474  2100              MOVS     r1,#0                 ;2236
000476  e004              B        |L2.1154|
                  |L2.1144|
000478  29ff              CMP      r1,#0xff              ;2236
00047a  dd01              BLE      |L2.1152|
00047c  21ff              MOVS     r1,#0xff              ;2236
00047e  e000              B        |L2.1154|
                  |L2.1152|
000480  b2c9              UXTB     r1,r1                 ;2236
                  |L2.1154|
000482  7011              STRB     r1,[r2,#0]            ;2236
000484  21b7              MOVS     r1,#0xb7              ;2236
000486  4348              MULS     r0,r1,r0              ;2236
000488  4af2              LDR      r2,|L2.2132|
00048a  0a01              LSRS     r1,r0,#8              ;2236
00048c  7810              LDRB     r0,[r2,#0]            ;2236  ; gMCUBufG
00048e  395b              SUBS     r1,r1,#0x5b           ;2236
000490  1a40              SUBS     r0,r0,r1              ;2236
000492  b283              UXTH     r3,r0                 ;2236
000494  2bff              CMP      r3,#0xff              ;2236
000496  d90a              BLS      |L2.1198|
000498  2800              CMP      r0,#0                 ;2236
00049a  da04              BGE      |L2.1190|
00049c  2000              MOVS     r0,#0                 ;2236
00049e  e007              B        |L2.1200|
                  |L2.1184|
0004a0  e05f              B        |L2.1378|
                  |L2.1186|
0004a2  e07e              B        |L2.1442|
                  |L2.1188|
0004a4  e07e              B        |L2.1444|
                  |L2.1190|
0004a6  28ff              CMP      r0,#0xff              ;2236
0004a8  dd01              BLE      |L2.1198|
0004aa  20ff              MOVS     r0,#0xff              ;2236
0004ac  e000              B        |L2.1200|
                  |L2.1198|
0004ae  b2c0              UXTB     r0,r0                 ;2236
                  |L2.1200|
0004b0  7010              STRB     r0,[r2,#0]            ;2236
0004b2  4ae9              LDR      r2,|L2.2136|
0004b4  7810              LDRB     r0,[r2,#0]            ;2236  ; gMCUBufG
0004b6  1a40              SUBS     r0,r0,r1              ;2236
0004b8  b281              UXTH     r1,r0                 ;2236
0004ba  29ff              CMP      r1,#0xff              ;2236
0004bc  d951              BLS      |L2.1378|
0004be  2800              CMP      r0,#0                 ;2236
0004c0  db6f              BLT      |L2.1442|
0004c2  28ff              CMP      r0,#0xff              ;2236
0004c4  dc6e              BGT      |L2.1444|
0004c6  e098              B        |L2.1530|
                  |L2.1224|
0004c8  2900              CMP      r1,#0                 ;2236
0004ca  d06c              BEQ      |L2.1446|
0004cc  2901              CMP      r1,#1                 ;2236
0004ce  d06b              BEQ      |L2.1448|
0004d0  2902              CMP      r1,#2                 ;2236
0004d2  d003              BEQ      |L2.1244|
0004d4  2903              CMP      r1,#3                 ;2236
0004d6  d000              BEQ      |L2.1242|
0004d8  e106              B        |L2.1768|
                  |L2.1242|
0004da  e043              B        |L2.1380|
                  |L2.1244|
0004dc  2158              MOVS     r1,#0x58              ;2236
0004de  4bdd              LDR      r3,|L2.2132|
0004e0  4341              MULS     r1,r0,r1              ;2236
0004e2  0a09              LSRS     r1,r1,#8              ;2236
0004e4  781a              LDRB     r2,[r3,#0]            ;2236  ; gMCUBufG
0004e6  392c              SUBS     r1,r1,#0x2c           ;2236
0004e8  1a52              SUBS     r2,r2,r1              ;2236
0004ea  b294              UXTH     r4,r2                 ;2236
0004ec  2cff              CMP      r4,#0xff              ;2236
0004ee  d907              BLS      |L2.1280|
0004f0  2a00              CMP      r2,#0                 ;2236
0004f2  da01              BGE      |L2.1272|
0004f4  2200              MOVS     r2,#0                 ;2236
0004f6  e004              B        |L2.1282|
                  |L2.1272|
0004f8  2aff              CMP      r2,#0xff              ;2236
0004fa  dd01              BLE      |L2.1280|
0004fc  22ff              MOVS     r2,#0xff              ;2236
0004fe  e000              B        |L2.1282|
                  |L2.1280|
000500  b2d2              UXTB     r2,r2                 ;2236
                  |L2.1282|
000502  701a              STRB     r2,[r3,#0]            ;2236
000504  4ad5              LDR      r2,|L2.2140|
000506  7813              LDRB     r3,[r2,#0]            ;2236  ; gMCUBufG
000508  1a59              SUBS     r1,r3,r1              ;2236
00050a  b28b              UXTH     r3,r1                 ;2236
00050c  2bff              CMP      r3,#0xff              ;2236
00050e  d907              BLS      |L2.1312|
000510  2900              CMP      r1,#0                 ;2236
000512  da01              BGE      |L2.1304|
000514  2100              MOVS     r1,#0                 ;2236
000516  e004              B        |L2.1314|
                  |L2.1304|
000518  29ff              CMP      r1,#0xff              ;2236
00051a  dd01              BLE      |L2.1312|
00051c  21ff              MOVS     r1,#0xff              ;2236
00051e  e000              B        |L2.1314|
                  |L2.1312|
000520  b2c9              UXTB     r1,r1                 ;2236
                  |L2.1314|
000522  7011              STRB     r1,[r2,#0]            ;2236
000524  21c6              MOVS     r1,#0xc6              ;2236
000526  4341              MULS     r1,r0,r1              ;2236
000528  0a09              LSRS     r1,r1,#8              ;2236
00052a  4acd              LDR      r2,|L2.2144|
00052c  1809              ADDS     r1,r1,r0              ;2236
00052e  7810              LDRB     r0,[r2,#0]            ;2236  ; gMCUBufB
000530  39e3              SUBS     r1,r1,#0xe3           ;2236
000532  1840              ADDS     r0,r0,r1              ;2236
000534  b283              UXTH     r3,r0                 ;2236
000536  2bff              CMP      r3,#0xff              ;2236
000538  d907              BLS      |L2.1354|
00053a  2800              CMP      r0,#0                 ;2236
00053c  da01              BGE      |L2.1346|
00053e  2000              MOVS     r0,#0                 ;2236
000540  e004              B        |L2.1356|
                  |L2.1346|
000542  28ff              CMP      r0,#0xff              ;2236
000544  dd01              BLE      |L2.1354|
000546  20ff              MOVS     r0,#0xff              ;2236
000548  e000              B        |L2.1356|
                  |L2.1354|
00054a  b2c0              UXTB     r0,r0                 ;2236
                  |L2.1356|
00054c  7010              STRB     r0,[r2,#0]            ;2236
00054e  4ac5              LDR      r2,|L2.2148|
000550  7810              LDRB     r0,[r2,#0]            ;2236  ; gMCUBufB
000552  1840              ADDS     r0,r0,r1              ;2236
000554  b281              UXTH     r1,r0                 ;2236
000556  29ff              CMP      r1,#0xff              ;2236
000558  d94f              BLS      |L2.1530|
00055a  2800              CMP      r0,#0                 ;2236
00055c  db47              BLT      |L2.1518|
00055e  28ff              CMP      r0,#0xff              ;2236
000560  dc49              BGT      |L2.1526|
                  |L2.1378|
000562  e04a              B        |L2.1530|
                  |L2.1380|
000564  2167              MOVS     r1,#0x67              ;2236
000566  4341              MULS     r1,r0,r1              ;2236
000568  4bbf              LDR      r3,|L2.2152|
00056a  0a09              LSRS     r1,r1,#8              ;2236
00056c  1809              ADDS     r1,r1,r0              ;2236
00056e  781a              LDRB     r2,[r3,#0]            ;2236  ; gMCUBufR
000570  39b3              SUBS     r1,r1,#0xb3           ;2236
000572  1852              ADDS     r2,r2,r1              ;2236
000574  b294              UXTH     r4,r2                 ;2236
000576  2cff              CMP      r4,#0xff              ;2236
000578  d907              BLS      |L2.1418|
00057a  2a00              CMP      r2,#0                 ;2236
00057c  da01              BGE      |L2.1410|
00057e  2200              MOVS     r2,#0                 ;2236
000580  e004              B        |L2.1420|
                  |L2.1410|
000582  2aff              CMP      r2,#0xff              ;2236
000584  dd01              BLE      |L2.1418|
000586  22ff              MOVS     r2,#0xff              ;2236
000588  e000              B        |L2.1420|
                  |L2.1418|
00058a  b2d2              UXTB     r2,r2                 ;2236
                  |L2.1420|
00058c  701a              STRB     r2,[r3,#0]            ;2236
00058e  4ab7              LDR      r2,|L2.2156|
000590  7813              LDRB     r3,[r2,#0]            ;2236  ; gMCUBufR
000592  1859              ADDS     r1,r3,r1              ;2236
000594  b28b              UXTH     r3,r1                 ;2236
000596  2bff              CMP      r3,#0xff              ;2236
000598  d90b              BLS      |L2.1458|
00059a  2900              CMP      r1,#0                 ;2236
00059c  da05              BGE      |L2.1450|
00059e  2100              MOVS     r1,#0                 ;2236
0005a0  e008              B        |L2.1460|
                  |L2.1442|
0005a2  e024              B        |L2.1518|
                  |L2.1444|
0005a4  e027              B        |L2.1526|
                  |L2.1446|
0005a6  e035              B        |L2.1556|
                  |L2.1448|
0005a8  e03a              B        |L2.1568|
                  |L2.1450|
0005aa  29ff              CMP      r1,#0xff              ;2236
0005ac  dd01              BLE      |L2.1458|
0005ae  21ff              MOVS     r1,#0xff              ;2236
0005b0  e000              B        |L2.1460|
                  |L2.1458|
0005b2  b2c9              UXTB     r1,r1                 ;2236
                  |L2.1460|
0005b4  7011              STRB     r1,[r2,#0]            ;2236
0005b6  21b7              MOVS     r1,#0xb7              ;2236
0005b8  4348              MULS     r0,r1,r0              ;2236
0005ba  4aa6              LDR      r2,|L2.2132|
0005bc  0a01              LSRS     r1,r0,#8              ;2236
0005be  7810              LDRB     r0,[r2,#0]            ;2236  ; gMCUBufG
0005c0  395b              SUBS     r1,r1,#0x5b           ;2236
0005c2  1a40              SUBS     r0,r0,r1              ;2236
0005c4  b283              UXTH     r3,r0                 ;2236
0005c6  2bff              CMP      r3,#0xff              ;2236
0005c8  d907              BLS      |L2.1498|
0005ca  2800              CMP      r0,#0                 ;2236
0005cc  da01              BGE      |L2.1490|
0005ce  2000              MOVS     r0,#0                 ;2236
0005d0  e004              B        |L2.1500|
                  |L2.1490|
0005d2  28ff              CMP      r0,#0xff              ;2236
0005d4  dd01              BLE      |L2.1498|
0005d6  20ff              MOVS     r0,#0xff              ;2236
0005d8  e000              B        |L2.1500|
                  |L2.1498|
0005da  b2c0              UXTB     r0,r0                 ;2236
                  |L2.1500|
0005dc  7010              STRB     r0,[r2,#0]            ;2236
0005de  4a9f              LDR      r2,|L2.2140|
0005e0  7810              LDRB     r0,[r2,#0]            ;2236  ; gMCUBufG
0005e2  1a40              SUBS     r0,r0,r1              ;2236
0005e4  b281              UXTH     r1,r0                 ;2236
0005e6  29ff              CMP      r1,#0xff              ;2236
0005e8  d907              BLS      |L2.1530|
0005ea  2800              CMP      r0,#0                 ;2236
0005ec  da01              BGE      |L2.1522|
                  |L2.1518|
0005ee  2000              MOVS     r0,#0                 ;2236
0005f0  e6e3              B        |L2.954|
                  |L2.1522|
0005f2  28ff              CMP      r0,#0xff              ;2236
0005f4  dd01              BLE      |L2.1530|
                  |L2.1526|
0005f6  20ff              MOVS     r0,#0xff              ;2236
0005f8  e6df              B        |L2.954|
                  |L2.1530|
0005fa  b2c0              UXTB     r0,r0                 ;2236
0005fc  e6dd              B        |L2.954|
                  |L2.1534|
0005fe  2906              CMP      r1,#6                 ;2236
000600  d272              BCS      |L2.1768|
000602  000a              MOVS     r2,r1                 ;2236
000604  447a              ADD      r2,r2,pc              ;2236
000606  7912              LDRB     r2,[r2,#4]            ;2236
000608  1892              ADDS     r2,r2,r2              ;2236
00060a  4497              ADD      pc,pc,r2              ;2236
00060c  0309020f          DCB      0x03,0x09,0x02,0x0f
000610  169b              DCB      0x16,0x9b
000612  e684              B        |L2.798|
                  |L2.1556|
000614  4994              LDR      r1,|L2.2152|
000616  7008              STRB     r0,[r1,#0]            ;2236
000618  498e              LDR      r1,|L2.2132|
00061a  7008              STRB     r0,[r1,#0]            ;2236
00061c  4990              LDR      r1,|L2.2144|
00061e  e00a              B        |L2.1590|
                  |L2.1568|
000620  4992              LDR      r1,|L2.2156|
000622  7008              STRB     r0,[r1,#0]            ;2236
000624  498d              LDR      r1,|L2.2140|
000626  7008              STRB     r0,[r1,#0]            ;2236
000628  498e              LDR      r1,|L2.2148|
00062a  e004              B        |L2.1590|
00062c  4990              LDR      r1,|L2.2160|
00062e  7008              STRB     r0,[r1,#0]            ;2236
000630  4990              LDR      r1,|L2.2164|
000632  7008              STRB     r0,[r1,#0]            ;2236
000634  4990              LDR      r1,|L2.2168|
                  |L2.1590|
000636  7008              STRB     r0,[r1,#0]            ;2236
000638  e056              B        |L2.1768|
00063a  2158              MOVS     r1,#0x58              ;2236
00063c  4b85              LDR      r3,|L2.2132|
00063e  4341              MULS     r1,r0,r1              ;2236
000640  0a09              LSRS     r1,r1,#8              ;2236
000642  781a              LDRB     r2,[r3,#0]            ;2236  ; gMCUBufG
000644  392c              SUBS     r1,r1,#0x2c           ;2236
000646  1a52              SUBS     r2,r2,r1              ;2236
000648  b294              UXTH     r4,r2                 ;2236
00064a  2cff              CMP      r4,#0xff              ;2236
00064c  d907              BLS      |L2.1630|
00064e  2a00              CMP      r2,#0                 ;2236
000650  da01              BGE      |L2.1622|
000652  2200              MOVS     r2,#0                 ;2236
000654  e004              B        |L2.1632|
                  |L2.1622|
000656  2aff              CMP      r2,#0xff              ;2236
000658  dd01              BLE      |L2.1630|
00065a  22ff              MOVS     r2,#0xff              ;2236
00065c  e000              B        |L2.1632|
                  |L2.1630|
00065e  b2d2              UXTB     r2,r2                 ;2236
                  |L2.1632|
000660  701a              STRB     r2,[r3,#0]            ;2236
000662  4b7e              LDR      r3,|L2.2140|
000664  781a              LDRB     r2,[r3,#0]            ;2236  ; gMCUBufG
000666  1a52              SUBS     r2,r2,r1              ;2236
000668  b294              UXTH     r4,r2                 ;2236
00066a  2cff              CMP      r4,#0xff              ;2236
00066c  d907              BLS      |L2.1662|
00066e  2a00              CMP      r2,#0                 ;2236
000670  da01              BGE      |L2.1654|
000672  2200              MOVS     r2,#0                 ;2236
000674  e004              B        |L2.1664|
                  |L2.1654|
000676  2aff              CMP      r2,#0xff              ;2236
000678  dd01              BLE      |L2.1662|
00067a  22ff              MOVS     r2,#0xff              ;2236
00067c  e000              B        |L2.1664|
                  |L2.1662|
00067e  b2d2              UXTB     r2,r2                 ;2236
                  |L2.1664|
000680  701a              STRB     r2,[r3,#0]            ;2236
000682  4b75              LDR      r3,|L2.2136|
000684  781a              LDRB     r2,[r3,#0]            ;2236  ; gMCUBufG
000686  1a52              SUBS     r2,r2,r1              ;2236
000688  b294              UXTH     r4,r2                 ;2236
00068a  2cff              CMP      r4,#0xff              ;2236
00068c  d907              BLS      |L2.1694|
00068e  2a00              CMP      r2,#0                 ;2236
000690  da01              BGE      |L2.1686|
000692  2200              MOVS     r2,#0                 ;2236
000694  e004              B        |L2.1696|
                  |L2.1686|
000696  2aff              CMP      r2,#0xff              ;2236
000698  dd01              BLE      |L2.1694|
00069a  22ff              MOVS     r2,#0xff              ;2236
00069c  e000              B        |L2.1696|
                  |L2.1694|
00069e  b2d2              UXTB     r2,r2                 ;2236
                  |L2.1696|
0006a0  701a              STRB     r2,[r3,#0]            ;2236
0006a2  4a74              LDR      r2,|L2.2164|
0006a4  7813              LDRB     r3,[r2,#0]            ;2236  ; gMCUBufG
0006a6  1a59              SUBS     r1,r3,r1              ;2236
0006a8  b28b              UXTH     r3,r1                 ;2236
0006aa  2bff              CMP      r3,#0xff              ;2236
0006ac  d907              BLS      |L2.1726|
0006ae  2900              CMP      r1,#0                 ;2236
0006b0  da01              BGE      |L2.1718|
0006b2  2100              MOVS     r1,#0                 ;2236
0006b4  e004              B        |L2.1728|
                  |L2.1718|
0006b6  29ff              CMP      r1,#0xff              ;2236
0006b8  dd01              BLE      |L2.1726|
0006ba  21ff              MOVS     r1,#0xff              ;2236
0006bc  e000              B        |L2.1728|
                  |L2.1726|
0006be  b2c9              UXTB     r1,r1                 ;2236
                  |L2.1728|
0006c0  7011              STRB     r1,[r2,#0]            ;2236
0006c2  21c6              MOVS     r1,#0xc6              ;2236
0006c4  4341              MULS     r1,r0,r1              ;2236
0006c6  0a09              LSRS     r1,r1,#8              ;2236
0006c8  4a65              LDR      r2,|L2.2144|
0006ca  1808              ADDS     r0,r1,r0              ;2236
0006cc  7811              LDRB     r1,[r2,#0]            ;2236  ; gMCUBufB
0006ce  38e3              SUBS     r0,r0,#0xe3           ;2236
0006d0  1809              ADDS     r1,r1,r0              ;2236
0006d2  b28b              UXTH     r3,r1                 ;2236
0006d4  2bff              CMP      r3,#0xff              ;2236
0006d6  d908              BLS      |L2.1770|
0006d8  2900              CMP      r1,#0                 ;2236
0006da  da01              BGE      |L2.1760|
0006dc  2100              MOVS     r1,#0                 ;2236
0006de  e005              B        |L2.1772|
                  |L2.1760|
0006e0  29ff              CMP      r1,#0xff              ;2236
0006e2  dd02              BLE      |L2.1770|
0006e4  21ff              MOVS     r1,#0xff              ;2236
0006e6  e001              B        |L2.1772|
                  |L2.1768|
0006e8  e3e0              B        |L2.3756|
                  |L2.1770|
0006ea  b2c9              UXTB     r1,r1                 ;2236
                  |L2.1772|
0006ec  7011              STRB     r1,[r2,#0]            ;2236
0006ee  4a5d              LDR      r2,|L2.2148|
0006f0  7811              LDRB     r1,[r2,#0]            ;2236  ; gMCUBufB
0006f2  1809              ADDS     r1,r1,r0              ;2236
0006f4  b28b              UXTH     r3,r1                 ;2236
0006f6  2bff              CMP      r3,#0xff              ;2236
0006f8  d907              BLS      |L2.1802|
0006fa  2900              CMP      r1,#0                 ;2236
0006fc  da01              BGE      |L2.1794|
0006fe  2100              MOVS     r1,#0                 ;2236
000700  e004              B        |L2.1804|
                  |L2.1794|
000702  29ff              CMP      r1,#0xff              ;2236
000704  dd01              BLE      |L2.1802|
000706  21ff              MOVS     r1,#0xff              ;2236
000708  e000              B        |L2.1804|
                  |L2.1802|
00070a  b2c9              UXTB     r1,r1                 ;2236
                  |L2.1804|
00070c  7011              STRB     r1,[r2,#0]            ;2236
00070e  4a5b              LDR      r2,|L2.2172|
000710  7811              LDRB     r1,[r2,#0]            ;2236  ; gMCUBufB
000712  1809              ADDS     r1,r1,r0              ;2236
000714  b28b              UXTH     r3,r1                 ;2236
000716  2bff              CMP      r3,#0xff              ;2236
000718  d907              BLS      |L2.1834|
00071a  2900              CMP      r1,#0                 ;2236
00071c  da01              BGE      |L2.1826|
00071e  2100              MOVS     r1,#0                 ;2236
000720  e004              B        |L2.1836|
                  |L2.1826|
000722  29ff              CMP      r1,#0xff              ;2236
000724  dd01              BLE      |L2.1834|
000726  21ff              MOVS     r1,#0xff              ;2236
000728  e000              B        |L2.1836|
                  |L2.1834|
00072a  b2c9              UXTB     r1,r1                 ;2236
                  |L2.1836|
00072c  7011              STRB     r1,[r2,#0]            ;2236
00072e  4952              LDR      r1,|L2.2168|
000730  780a              LDRB     r2,[r1,#0]            ;2236  ; gMCUBufB
000732  1810              ADDS     r0,r2,r0              ;2236
000734  b282              UXTH     r2,r0                 ;2236
000736  2aff              CMP      r2,#0xff              ;2236
000738  d977              BLS      |L2.2090|
00073a  2800              CMP      r0,#0                 ;2236
00073c  db76              BLT      |L2.2092|
00073e  28ff              CMP      r0,#0xff              ;2236
000740  dc75              BGT      |L2.2094|
000742  e0a2              B        |L2.2186|
000744  2167              MOVS     r1,#0x67              ;2236
000746  4341              MULS     r1,r0,r1              ;2236
000748  4b47              LDR      r3,|L2.2152|
00074a  0a09              LSRS     r1,r1,#8              ;2236
00074c  1809              ADDS     r1,r1,r0              ;2236
00074e  781a              LDRB     r2,[r3,#0]            ;2236  ; gMCUBufR
000750  39b3              SUBS     r1,r1,#0xb3           ;2236
000752  1852              ADDS     r2,r2,r1              ;2236
000754  b294              UXTH     r4,r2                 ;2236
000756  2cff              CMP      r4,#0xff              ;2236
000758  d907              BLS      |L2.1898|
00075a  2a00              CMP      r2,#0                 ;2236
00075c  da01              BGE      |L2.1890|
00075e  2200              MOVS     r2,#0                 ;2236
000760  e004              B        |L2.1900|
                  |L2.1890|
000762  2aff              CMP      r2,#0xff              ;2236
000764  dd01              BLE      |L2.1898|
000766  22ff              MOVS     r2,#0xff              ;2236
000768  e000              B        |L2.1900|
                  |L2.1898|
00076a  b2d2              UXTB     r2,r2                 ;2236
                  |L2.1900|
00076c  701a              STRB     r2,[r3,#0]            ;2236
00076e  4b3f              LDR      r3,|L2.2156|
000770  781a              LDRB     r2,[r3,#0]            ;2236  ; gMCUBufR
000772  1852              ADDS     r2,r2,r1              ;2236
000774  b294              UXTH     r4,r2                 ;2236
000776  2cff              CMP      r4,#0xff              ;2236
000778  d907              BLS      |L2.1930|
00077a  2a00              CMP      r2,#0                 ;2236
00077c  da01              BGE      |L2.1922|
00077e  2200              MOVS     r2,#0                 ;2236
000780  e004              B        |L2.1932|
                  |L2.1922|
000782  2aff              CMP      r2,#0xff              ;2236
000784  dd01              BLE      |L2.1930|
000786  22ff              MOVS     r2,#0xff              ;2236
000788  e000              B        |L2.1932|
                  |L2.1930|
00078a  b2d2              UXTB     r2,r2                 ;2236
                  |L2.1932|
00078c  701a              STRB     r2,[r3,#0]            ;2236
00078e  4b30              LDR      r3,|L2.2128|
000790  781a              LDRB     r2,[r3,#0]            ;2236  ; gMCUBufR
000792  1852              ADDS     r2,r2,r1              ;2236
000794  b294              UXTH     r4,r2                 ;2236
000796  2cff              CMP      r4,#0xff              ;2236
000798  d907              BLS      |L2.1962|
00079a  2a00              CMP      r2,#0                 ;2236
00079c  da01              BGE      |L2.1954|
00079e  2200              MOVS     r2,#0                 ;2236
0007a0  e004              B        |L2.1964|
                  |L2.1954|
0007a2  2aff              CMP      r2,#0xff              ;2236
0007a4  dd01              BLE      |L2.1962|
0007a6  22ff              MOVS     r2,#0xff              ;2236
0007a8  e000              B        |L2.1964|
                  |L2.1962|
0007aa  b2d2              UXTB     r2,r2                 ;2236
                  |L2.1964|
0007ac  701a              STRB     r2,[r3,#0]            ;2236
0007ae  4a30              LDR      r2,|L2.2160|
0007b0  7813              LDRB     r3,[r2,#0]            ;2236  ; gMCUBufR
0007b2  1859              ADDS     r1,r3,r1              ;2236
0007b4  b28b              UXTH     r3,r1                 ;2236
0007b6  2bff              CMP      r3,#0xff              ;2236
0007b8  d907              BLS      |L2.1994|
0007ba  2900              CMP      r1,#0                 ;2236
0007bc  da01              BGE      |L2.1986|
0007be  2100              MOVS     r1,#0                 ;2236
0007c0  e004              B        |L2.1996|
                  |L2.1986|
0007c2  29ff              CMP      r1,#0xff              ;2236
0007c4  dd01              BLE      |L2.1994|
0007c6  21ff              MOVS     r1,#0xff              ;2236
0007c8  e000              B        |L2.1996|
                  |L2.1994|
0007ca  b2c9              UXTB     r1,r1                 ;2236
                  |L2.1996|
0007cc  7011              STRB     r1,[r2,#0]            ;2236
0007ce  21b7              MOVS     r1,#0xb7              ;2236
0007d0  4348              MULS     r0,r1,r0              ;2236
0007d2  4a20              LDR      r2,|L2.2132|
0007d4  0a00              LSRS     r0,r0,#8              ;2236
0007d6  7811              LDRB     r1,[r2,#0]            ;2236  ; gMCUBufG
0007d8  385b              SUBS     r0,r0,#0x5b           ;2236
0007da  1a09              SUBS     r1,r1,r0              ;2236
0007dc  b28b              UXTH     r3,r1                 ;2236
0007de  2bff              CMP      r3,#0xff              ;2236
0007e0  d907              BLS      |L2.2034|
0007e2  2900              CMP      r1,#0                 ;2236
0007e4  da01              BGE      |L2.2026|
0007e6  2100              MOVS     r1,#0                 ;2236
0007e8  e004              B        |L2.2036|
                  |L2.2026|
0007ea  29ff              CMP      r1,#0xff              ;2236
0007ec  dd01              BLE      |L2.2034|
0007ee  21ff              MOVS     r1,#0xff              ;2236
0007f0  e000              B        |L2.2036|
                  |L2.2034|
0007f2  b2c9              UXTB     r1,r1                 ;2236
                  |L2.2036|
0007f4  7011              STRB     r1,[r2,#0]            ;2236
0007f6  4a19              LDR      r2,|L2.2140|
0007f8  7811              LDRB     r1,[r2,#0]            ;2236  ; gMCUBufG
0007fa  1a09              SUBS     r1,r1,r0              ;2236
0007fc  b28b              UXTH     r3,r1                 ;2236
0007fe  2bff              CMP      r3,#0xff              ;2236
000800  d907              BLS      |L2.2066|
000802  2900              CMP      r1,#0                 ;2236
000804  da01              BGE      |L2.2058|
000806  2100              MOVS     r1,#0                 ;2236
000808  e004              B        |L2.2068|
                  |L2.2058|
00080a  29ff              CMP      r1,#0xff              ;2236
00080c  dd01              BLE      |L2.2066|
00080e  21ff              MOVS     r1,#0xff              ;2236
000810  e000              B        |L2.2068|
                  |L2.2066|
000812  b2c9              UXTB     r1,r1                 ;2236
                  |L2.2068|
000814  7011              STRB     r1,[r2,#0]            ;2236
000816  4a10              LDR      r2,|L2.2136|
000818  7811              LDRB     r1,[r2,#0]            ;2236  ; gMCUBufG
00081a  1a09              SUBS     r1,r1,r0              ;2236
00081c  b28b              UXTH     r3,r1                 ;2236
00081e  2bff              CMP      r3,#0xff              ;2236
000820  d90a              BLS      |L2.2104|
000822  2900              CMP      r1,#0                 ;2236
000824  da04              BGE      |L2.2096|
000826  2100              MOVS     r1,#0                 ;2236
000828  e007              B        |L2.2106|
                  |L2.2090|
00082a  e02e              B        |L2.2186|
                  |L2.2092|
00082c  e00e              B        |L2.2124|
                  |L2.2094|
00082e  e02a              B        |L2.2182|
                  |L2.2096|
000830  29ff              CMP      r1,#0xff              ;2236
000832  dd01              BLE      |L2.2104|
000834  21ff              MOVS     r1,#0xff              ;2236
000836  e000              B        |L2.2106|
                  |L2.2104|
000838  b2c9              UXTB     r1,r1                 ;2236
                  |L2.2106|
00083a  7011              STRB     r1,[r2,#0]            ;2236
00083c  490d              LDR      r1,|L2.2164|
00083e  780a              LDRB     r2,[r1,#0]            ;2236  ; gMCUBufG
000840  1a10              SUBS     r0,r2,r0              ;2236
000842  b282              UXTH     r2,r0                 ;2236
000844  2aff              CMP      r2,#0xff              ;2236
000846  d920              BLS      |L2.2186|
000848  2800              CMP      r0,#0                 ;2236
00084a  da1a              BGE      |L2.2178|
                  |L2.2124|
00084c  2000              MOVS     r0,#0                 ;2236
00084e  e6f2              B        |L2.1590|
                  |L2.2128|
                          DCD      ||.bss||+0x100
                  |L2.2132|
                          DCD      ||.bss||+0x180
                  |L2.2136|
                          DCD      ||.bss||+0x200
                  |L2.2140|
                          DCD      ||.bss||+0x1c0
                  |L2.2144|
                          DCD      ||.bss||+0x280
                  |L2.2148|
                          DCD      ||.bss||+0x2c0
                  |L2.2152|
                          DCD      ||.bss||+0x80
                  |L2.2156|
                          DCD      ||.bss||+0xc0
                  |L2.2160|
                          DCD      ||.bss||+0x140
                  |L2.2164|
                          DCD      ||.bss||+0x240
                  |L2.2168|
                          DCD      ||.bss||+0x340
                  |L2.2172|
                          DCD      ||.bss||+0x300
                  |L2.2176|
000880  e3c3              B        |L2.4106|
                  |L2.2178|
000882  28ff              CMP      r0,#0xff              ;2236
000884  dd01              BLE      |L2.2186|
                  |L2.2182|
000886  20ff              MOVS     r0,#0xff              ;2236
000888  e6d5              B        |L2.1590|
                  |L2.2186|
00088a  b2c0              UXTB     r0,r0                 ;2236
00088c  e6d3              B        |L2.1590|
                  |L2.2190|
00088e  2401              MOVS     r4,#1                 ;2242
000890  2500              MOVS     r5,#0                 ;2242
                  |L2.2194|
000892  9805              LDR      r0,[sp,#0x14]         ;2244
000894  2800              CMP      r0,#0                 ;2244
000896  d002              BEQ      |L2.2206|
000898  49fb              LDR      r1,|L2.3208|
00089a  48fc              LDR      r0,|L2.3212|
00089c  e001              B        |L2.2210|
                  |L2.2206|
00089e  49fc              LDR      r1,|L2.3216|
0008a0  48fc              LDR      r0,|L2.3220|
                  |L2.2210|
0008a2  f7fffffe          BL       huffDecode
0008a6  4607              MOV      r7,r0                 ;2244
0008a8  2000              MOVS     r0,#0                 ;2245
0008aa  9007              STR      r0,[sp,#0x1c]         ;2246
0008ac  0738              LSLS     r0,r7,#28             ;2246
0008ae  0f00              LSRS     r0,r0,#28             ;2246
0008b0  4606              MOV      r6,r0                 ;2246
0008b2  d003              BEQ      |L2.2236|
0008b4  2101              MOVS     r1,#1                 ;2248
0008b6  f7fffffe          BL       getBits
0008ba  9007              STR      r0,[sp,#0x1c]         ;2248
                  |L2.2236|
0008bc  0938              LSRS     r0,r7,#4              ;2250
0008be  46b4              MOV      r12,r6                ;2251
0008c0  2e00              CMP      r6,#0                 ;2252
0008c2  d071              BEQ      |L2.2472|
0008c4  2800              CMP      r0,#0                 ;2254
0008c6  d023              BEQ      |L2.2320|
0008c8  1821              ADDS     r1,r4,r0              ;2255
0008ca  293f              CMP      r1,#0x3f              ;2255
0008cc  d86d              BHI      |L2.2474|
0008ce  2200              MOVS     r2,#0
0008d0  9002              STR      r0,[sp,#8]
0008d2  07c0              LSLS     r0,r0,#31
0008d4  d006              BEQ      |L2.2276|
0008d6  48f0              LDR      r0,|L2.3224|
0008d8  b2e1              UXTB     r1,r4                 ;2258
0008da  5640              LDRSB    r0,[r0,r1]            ;2258
0008dc  0041              LSLS     r1,r0,#1              ;2258
0008de  48ef              LDR      r0,|L2.3228|
0008e0  2201              MOVS     r2,#1
0008e2  5245              STRH     r5,[r0,r1]            ;2258
                  |L2.2276|
0008e4  9802              LDR      r0,[sp,#8]            ;2257
0008e6  0841              LSRS     r1,r0,#1              ;2257
0008e8  d00f              BEQ      |L2.2314|
0008ea  4bec              LDR      r3,|L2.3228|
0008ec  48ea              LDR      r0,|L2.3224|
                  |L2.2286|
0008ee  18a6              ADDS     r6,r4,r2              ;2258
0008f0  b2f7              UXTB     r7,r6                 ;2258
0008f2  57c7              LDRSB    r7,[r0,r7]            ;2258
0008f4  1c76              ADDS     r6,r6,#1              ;2258
0008f6  007f              LSLS     r7,r7,#1              ;2258
0008f8  53dd              STRH     r5,[r3,r7]            ;2258
0008fa  b2f6              UXTB     r6,r6                 ;2258
0008fc  5786              LDRSB    r6,[r0,r6]            ;2258
0008fe  1e49              SUBS     r1,r1,#1              ;2258
000900  0076              LSLS     r6,r6,#1              ;2258
000902  1c92              ADDS     r2,r2,#2              ;2258
000904  539d              STRH     r5,[r3,r6]            ;2258
000906  2900              CMP      r1,#0
000908  d1f1              BNE      |L2.2286|
                  |L2.2314|
00090a  9802              LDR      r0,[sp,#8]            ;2260
00090c  1820              ADDS     r0,r4,r0              ;2260
00090e  b2c4              UXTB     r4,r0                 ;2260
                  |L2.2320|
000910  4661              MOV      r1,r12                ;2260
000912  9807              LDR      r0,[sp,#0x1c]         ;2260
000914  2910              CMP      r1,#0x10              ;2260
000916  d231              BCS      |L2.2428|
000918  000a              MOVS     r2,r1                 ;2260
00091a  447a              ADD      r2,r2,pc              ;2260
00091c  7912              LDRB     r2,[r2,#4]            ;2260
00091e  1892              ADDS     r2,r2,r2              ;2260
000920  4497              ADD      pc,pc,r2              ;2260
000922  2c07              DCB      0x2c,0x07
000924  090b0d0f          DCB      0x09,0x0b,0x0d,0x0f
000928  11131517          DCB      0x11,0x13,0x15,0x17
00092c  1a1d2023          DCB      0x1a,0x1d,0x20,0x23
000930  2629              DCB      0x26,0x29
000932  2101              MOVS     r1,#1                 ;2260
000934  e023              B        |L2.2430|
000936  2102              MOVS     r1,#2                 ;2260
000938  e021              B        |L2.2430|
00093a  2104              MOVS     r1,#4                 ;2260
00093c  e01f              B        |L2.2430|
00093e  2108              MOVS     r1,#8                 ;2260
000940  e01d              B        |L2.2430|
000942  2110              MOVS     r1,#0x10              ;2260
000944  e01b              B        |L2.2430|
000946  2120              MOVS     r1,#0x20              ;2260
000948  e019              B        |L2.2430|
00094a  2140              MOVS     r1,#0x40              ;2260
00094c  e017              B        |L2.2430|
00094e  2180              MOVS     r1,#0x80              ;2260
000950  e015              B        |L2.2430|
000952  21ff              MOVS     r1,#0xff              ;2260
000954  3101              ADDS     r1,#1                 ;2260
000956  e012              B        |L2.2430|
000958  2101              MOVS     r1,#1                 ;2260
00095a  0249              LSLS     r1,r1,#9              ;2260
00095c  e00f              B        |L2.2430|
00095e  2101              MOVS     r1,#1                 ;2260
000960  0289              LSLS     r1,r1,#10             ;2260
000962  e00c              B        |L2.2430|
000964  2101              MOVS     r1,#1                 ;2260
000966  02c9              LSLS     r1,r1,#11             ;2260
000968  e009              B        |L2.2430|
00096a  2101              MOVS     r1,#1                 ;2260
00096c  0309              LSLS     r1,r1,#12             ;2260
00096e  e006              B        |L2.2430|
000970  2101              MOVS     r1,#1                 ;2260
000972  0349              LSLS     r1,r1,#13             ;2260
000974  e003              B        |L2.2430|
000976  2101              MOVS     r1,#1                 ;2260
000978  0389              LSLS     r1,r1,#14             ;2260
00097a  e000              B        |L2.2430|
                  |L2.2428|
00097c  2100              MOVS     r1,#0                 ;2260
                  |L2.2430|
00097e  4281              CMP      r1,r0                 ;2260
000980  d93b              BLS      |L2.2554|
000982  4661              MOV      r1,r12                ;2260
000984  2910              CMP      r1,#0x10              ;2260
000986  d234              BCS      |L2.2546|
000988  000a              MOVS     r2,r1                 ;2260
00098a  447a              ADD      r2,r2,pc              ;2260
00098c  7912              LDRB     r2,[r2,#4]            ;2260
00098e  1892              ADDS     r2,r2,r2              ;2260
000990  4497              ADD      pc,pc,r2              ;2260
000992  2f07              DCB      0x2f,0x07
000994  0c0f1215          DCB      0x0c,0x0f,0x12,0x15
000998  181b1e21          DCB      0x18,0x1b,0x1e,0x21
00099c  23252729          DCB      0x23,0x25,0x27,0x29
0009a0  2b2d              DCB      0x2b,0x2d
0009a2  2100              MOVS     r1,#0                 ;2260
0009a4  43c9              MVNS     r1,r1                 ;2260
0009a6  e025              B        |L2.2548|
                  |L2.2472|
0009a8  e032              B        |L2.2576|
                  |L2.2474|
0009aa  e038              B        |L2.2590|
0009ac  2102              MOVS     r1,#2                 ;2260
0009ae  43c9              MVNS     r1,r1                 ;2260
0009b0  e020              B        |L2.2548|
0009b2  2106              MOVS     r1,#6                 ;2260
0009b4  43c9              MVNS     r1,r1                 ;2260
0009b6  e01d              B        |L2.2548|
0009b8  210e              MOVS     r1,#0xe               ;2260
0009ba  43c9              MVNS     r1,r1                 ;2260
0009bc  e01a              B        |L2.2548|
0009be  211e              MOVS     r1,#0x1e              ;2260
0009c0  43c9              MVNS     r1,r1                 ;2260
0009c2  e017              B        |L2.2548|
0009c4  213e              MOVS     r1,#0x3e              ;2260
0009c6  43c9              MVNS     r1,r1                 ;2260
0009c8  e014              B        |L2.2548|
0009ca  217e              MOVS     r1,#0x7e              ;2260
0009cc  43c9              MVNS     r1,r1                 ;2260
0009ce  e011              B        |L2.2548|
0009d0  21fe              MOVS     r1,#0xfe              ;2260
0009d2  43c9              MVNS     r1,r1                 ;2260
0009d4  e00e              B        |L2.2548|
0009d6  49b2              LDR      r1,|L2.3232|
0009d8  e00c              B        |L2.2548|
0009da  49b2              LDR      r1,|L2.3236|
0009dc  e00a              B        |L2.2548|
0009de  49b2              LDR      r1,|L2.3240|
0009e0  e008              B        |L2.2548|
0009e2  49b2              LDR      r1,|L2.3244|
0009e4  e006              B        |L2.2548|
0009e6  49b2              LDR      r1,|L2.3248|
0009e8  e004              B        |L2.2548|
0009ea  49b2              LDR      r1,|L2.3252|
0009ec  e002              B        |L2.2548|
0009ee  49b2              LDR      r1,|L2.3256|
0009f0  e000              B        |L2.2548|
                  |L2.2546|
0009f2  2100              MOVS     r1,#0                 ;2260
                  |L2.2548|
0009f4  b200              SXTH     r0,r0                 ;2260
0009f6  1808              ADDS     r0,r1,r0              ;2260
0009f8  e000              B        |L2.2556|
                  |L2.2554|
0009fa  b200              SXTH     r0,r0                 ;2260
                  |L2.2556|
0009fc  9906              LDR      r1,[sp,#0x18]         ;2263
0009fe  0062              LSLS     r2,r4,#1              ;2263
000a00  5a89              LDRH     r1,[r1,r2]            ;2263
000a02  4341              MULS     r1,r0,r1              ;2263
000a04  48a4              LDR      r0,|L2.3224|
000a06  5700              LDRSB    r0,[r0,r4]            ;2263
000a08  0042              LSLS     r2,r0,#1              ;2263
000a0a  48a4              LDR      r0,|L2.3228|
000a0c  5281              STRH     r1,[r0,r2]            ;2263
000a0e  e01f              B        |L2.2640|
                  |L2.2576|
000a10  280f              CMP      r0,#0xf               ;2265
000a12  d122              BNE      |L2.2650|
000a14  4620              MOV      r0,r4                 ;2266
000a16  3010              ADDS     r0,r0,#0x10           ;2266
000a18  4684              MOV      r12,r0                ;2266
000a1a  2840              CMP      r0,#0x40              ;2266
000a1c  d902              BLS      |L2.2596|
                  |L2.2590|
000a1e  201c              MOVS     r0,#0x1c              ;2267
000a20  b00f              ADD      sp,sp,#0x3c
000a22  bdf0              POP      {r4-r7,pc}
                  |L2.2596|
000a24  2100              MOVS     r1,#0
000a26  489d              LDR      r0,|L2.3228|
000a28  4f9b              LDR      r7,|L2.3224|
000a2a  2208              MOVS     r2,#8                 ;2268
                  |L2.2604|
000a2c  1863              ADDS     r3,r4,r1              ;2269
000a2e  b2de              UXTB     r6,r3                 ;2269
000a30  57be              LDRSB    r6,[r7,r6]            ;2269
000a32  1c5b              ADDS     r3,r3,#1              ;2269
000a34  0076              LSLS     r6,r6,#1              ;2269
000a36  5385              STRH     r5,[r0,r6]            ;2269
000a38  b2db              UXTB     r3,r3                 ;2269
000a3a  56fb              LDRSB    r3,[r7,r3]            ;2269
000a3c  1c89              ADDS     r1,r1,#2              ;2269
000a3e  005b              LSLS     r3,r3,#1              ;2269
000a40  1e52              SUBS     r2,r2,#1              ;2269
000a42  0412              LSLS     r2,r2,#16
000a44  52c5              STRH     r5,[r0,r3]            ;2269
000a46  0c12              LSRS     r2,r2,#16
000a48  d1f0              BNE      |L2.2604|
000a4a  4660              MOV      r0,r12
000a4c  1e40              SUBS     r0,r0,#1
000a4e  b2c4              UXTB     r4,r0                 ;2270
                  |L2.2640|
000a50  1c64              ADDS     r4,r4,#1              ;2270
000a52  b2e4              UXTB     r4,r4                 ;2274
000a54  2c40              CMP      r4,#0x40              ;2274
000a56  d200              BCS      |L2.2650|
000a58  e71b              B        |L2.2194|
                  |L2.2650|
000a5a  2c40              CMP      r4,#0x40              ;2275
000a5c  d21d              BCS      |L2.2714|
000a5e  2140              MOVS     r1,#0x40              ;2275
000a60  1b08              SUBS     r0,r1,r4              ;2275
000a62  2800              CMP      r0,#0                 ;2275
000a64  dd19              BLE      |L2.2714|
000a66  07c1              LSLS     r1,r0,#31
000a68  d006              BEQ      |L2.2680|
000a6a  498b              LDR      r1,|L2.3224|
000a6c  b2e2              UXTB     r2,r4                 ;2276
000a6e  5689              LDRSB    r1,[r1,r2]            ;2276
000a70  004a              LSLS     r2,r1,#1              ;2276
000a72  498a              LDR      r1,|L2.3228|
000a74  1c64              ADDS     r4,r4,#1              ;2276
000a76  528d              STRH     r5,[r1,r2]            ;2276
                  |L2.2680|
000a78  1040              ASRS     r0,r0,#1              ;2275
000a7a  d00e              BEQ      |L2.2714|
000a7c  4a87              LDR      r2,|L2.3228|
000a7e  4986              LDR      r1,|L2.3224|
                  |L2.2688|
000a80  b2e3              UXTB     r3,r4                 ;2276
000a82  56cb              LDRSB    r3,[r1,r3]            ;2276
000a84  1c64              ADDS     r4,r4,#1              ;2276
000a86  005b              LSLS     r3,r3,#1              ;2276
000a88  52d5              STRH     r5,[r2,r3]            ;2276
000a8a  b2e3              UXTB     r3,r4                 ;2276
000a8c  56cb              LDRSB    r3,[r1,r3]            ;2276
000a8e  1e40              SUBS     r0,r0,#1              ;2276
000a90  005b              LSLS     r3,r3,#1              ;2276
000a92  1c64              ADDS     r4,r4,#1              ;2276
000a94  52d5              STRH     r5,[r2,r3]            ;2276
000a96  2800              CMP      r0,#0                 ;2276
000a98  d1f2              BNE      |L2.2688|
                  |L2.2714|
000a9a  9808              LDR      r0,[sp,#0x20]         ;2277
000a9c  9009              STR      r0,[sp,#0x24]         ;2277
000a9e  487f              LDR      r0,|L2.3228|
000aa0  2400              MOVS     r4,#0                 ;2277
                  |L2.2722|
000aa2  2102              MOVS     r1,#2                 ;2277
000aa4  5e41              LDRSH    r1,[r0,r1]            ;2277
000aa6  2304              MOVS     r3,#4                 ;2277
000aa8  5ec3              LDRSH    r3,[r0,r3]            ;2277
000aaa  460a              MOV      r2,r1                 ;2277
000aac  930c              STR      r3,[sp,#0x30]         ;2277
000aae  4319              ORRS     r1,r1,r3              ;2277
000ab0  2306              MOVS     r3,#6                 ;2277
000ab2  5ec3              LDRSH    r3,[r0,r3]            ;2277
000ab4  2608              MOVS     r6,#8                 ;2277
000ab6  5f86              LDRSH    r6,[r0,r6]            ;2277
000ab8  461d              MOV      r5,r3                 ;2277
000aba  4335              ORRS     r5,r5,r6              ;2277
000abc  4329              ORRS     r1,r1,r5              ;2277
000abe  270a              MOVS     r7,#0xa               ;2277
000ac0  250c              MOVS     r5,#0xc               ;2277
000ac2  5fc7              LDRSH    r7,[r0,r7]            ;2277
000ac4  5f45              LDRSH    r5,[r0,r5]            ;2277
000ac6  4339              ORRS     r1,r1,r7              ;2277
000ac8  46ac              MOV      r12,r5                ;2277
000aca  4329              ORRS     r1,r1,r5              ;2277
000acc  250e              MOVS     r5,#0xe               ;2277
000ace  5f45              LDRSH    r5,[r0,r5]            ;2277
000ad0  4329              ORRS     r1,r1,r5              ;2277
000ad2  d061              BEQ      |L2.2968|
000ad4  1af9              SUBS     r1,r7,r3              ;2277
000ad6  18fb              ADDS     r3,r7,r3              ;2277
000ad8  1957              ADDS     r7,r2,r5              ;2277
000ada  1b52              SUBS     r2,r2,r5              ;2277
000adc  b209              SXTH     r1,r1                 ;2277
000ade  469e              MOV      lr,r3                 ;2277
000ae0  b212              SXTH     r2,r2                 ;2277
000ae2  1a8b              SUBS     r3,r1,r2              ;2277
000ae4  b21b              SXTH     r3,r3                 ;2277
000ae6  25c4              MOVS     r5,#0xc4              ;2277
000ae8  436b              MULS     r3,r5,r3              ;2277
000aea  25ff              MOVS     r5,#0xff              ;2277
000aec  3516              ADDS     r5,r5,#0x16           ;2277
000aee  436a              MULS     r2,r5,r2              ;2277
000af0  4d72              LDR      r5,|L2.3260|
000af2  3380              ADDS     r3,r3,#0x80           ;2277
000af4  4369              MULS     r1,r5,r1              ;2277
000af6  121b              ASRS     r3,r3,#8              ;2277
000af8  3280              ADDS     r2,r2,#0x80           ;2277
000afa  3180              ADDS     r1,r1,#0x80           ;2277
000afc  1212              ASRS     r2,r2,#8              ;2277
000afe  1209              ASRS     r1,r1,#8              ;2277
000b00  1ad2              SUBS     r2,r2,r3              ;2277
000b02  1a5d              SUBS     r5,r3,r1              ;2277
000b04  4673              MOV      r3,lr                 ;2277
000b06  1af9              SUBS     r1,r7,r3              ;2277
000b08  18fb              ADDS     r3,r7,r3              ;2277
000b0a  27ff              MOVS     r7,#0xff              ;2277
000b0c  b209              SXTH     r1,r1                 ;2277
000b0e  376b              ADDS     r7,r7,#0x6b           ;2277
000b10  4379              MULS     r1,r7,r1              ;2277
000b12  3180              ADDS     r1,r1,#0x80           ;2277
000b14  1ad2              SUBS     r2,r2,r3              ;2277
000b16  1209              ASRS     r1,r1,#8              ;2277
000b18  1a89              SUBS     r1,r1,r2              ;2277
000b1a  194d              ADDS     r5,r1,r5              ;2277
000b1c  950a              STR      r5,[sp,#0x28]         ;2277
000b1e  8807              LDRH     r7,[r0,#0]            ;2277
000b20  19bd              ADDS     r5,r7,r6              ;2277
000b22  46ae              MOV      lr,r5                 ;2277
000b24  1bbd              SUBS     r5,r7,r6              ;2277
000b26  9f0c              LDR      r7,[sp,#0x30]         ;2277
000b28  4666              MOV      r6,r12                ;2277
000b2a  950b              STR      r5,[sp,#0x2c]         ;2277
000b2c  1bbe              SUBS     r6,r7,r6              ;2277
000b2e  25ff              MOVS     r5,#0xff              ;2277
000b30  b236              SXTH     r6,r6                 ;2277
000b32  356b              ADDS     r5,r5,#0x6b           ;2277
000b34  436e              MULS     r6,r5,r6              ;2277
000b36  3680              ADDS     r6,r6,#0x80           ;2277
000b38  4467              ADD      r7,r7,r12             ;2277
000b3a  1235              ASRS     r5,r6,#8              ;2277
000b3c  1bee              SUBS     r6,r5,r7              ;2277
000b3e  4675              MOV      r5,lr                 ;2277
000b40  19ed              ADDS     r5,r5,r7              ;2277
000b42  9503              STR      r5,[sp,#0xc]          ;2277
000b44  4675              MOV      r5,lr                 ;2277
000b46  1bef              SUBS     r7,r5,r7              ;2277
000b48  9d0b              LDR      r5,[sp,#0x2c]         ;2277
000b4a  19ad              ADDS     r5,r5,r6              ;2277
000b4c  46ac              MOV      r12,r5                ;2277
000b4e  9d0b              LDR      r5,[sp,#0x2c]         ;2277
000b50  1bae              SUBS     r6,r5,r6              ;2277
000b52  9d03              LDR      r5,[sp,#0xc]          ;2277
000b54  18ed              ADDS     r5,r5,r3              ;2277
000b56  8005              STRH     r5,[r0,#0]            ;2277
000b58  4665              MOV      r5,r12                ;2277
000b5a  18ad              ADDS     r5,r5,r2              ;2277
000b5c  8045              STRH     r5,[r0,#2]            ;2277
000b5e  1875              ADDS     r5,r6,r1              ;2277
000b60  8085              STRH     r5,[r0,#4]            ;2277
000b62  9d0a              LDR      r5,[sp,#0x28]         ;2277
000b64  1b7d              SUBS     r5,r7,r5              ;2277
000b66  80c5              STRH     r5,[r0,#6]            ;2277
000b68  9d0a              LDR      r5,[sp,#0x28]         ;2277
000b6a  1a71              SUBS     r1,r6,r1              ;2277
000b6c  197d              ADDS     r5,r7,r5              ;2277
000b6e  8105              STRH     r5,[r0,#8]            ;2277
000b70  8141              STRH     r1,[r0,#0xa]          ;2277
000b72  4665              MOV      r5,r12                ;2277
000b74  1aa9              SUBS     r1,r5,r2              ;2277
000b76  8181              STRH     r1,[r0,#0xc]          ;2277
000b78  9d03              LDR      r5,[sp,#0xc]          ;2277
000b7a  1ae9              SUBS     r1,r5,r3              ;2277
                  |L2.2940|
000b7c  81c1              STRH     r1,[r0,#0xe]          ;2277
000b7e  1c64              ADDS     r4,r4,#1              ;2277
000b80  b2e4              UXTB     r4,r4                 ;2277
000b82  3010              ADDS     r0,r0,#0x10           ;2277
000b84  2c08              CMP      r4,#8                 ;2277
000b86  d38c              BCC      |L2.2722|
000b88  4844              LDR      r0,|L2.3228|
000b8a  2100              MOVS     r1,#0                 ;2277
000b8c  468c              MOV      r12,r1                ;2277
                  |L2.2958|
000b8e  2210              MOVS     r2,#0x10              ;2277
000b90  5e82              LDRSH    r2,[r0,r2]            ;2277
000b92  2a00              CMP      r2,#0                 ;2277
000b94  d008              BEQ      |L2.2984|
000b96  e01b              B        |L2.3024|
                  |L2.2968|
000b98  8801              LDRH     r1,[r0,#0]            ;2277
000b9a  8041              STRH     r1,[r0,#2]            ;2277
000b9c  8081              STRH     r1,[r0,#4]            ;2277
000b9e  80c1              STRH     r1,[r0,#6]            ;2277
000ba0  8101              STRH     r1,[r0,#8]            ;2277
000ba2  8141              STRH     r1,[r0,#0xa]          ;2277
000ba4  8181              STRH     r1,[r0,#0xc]          ;2277
000ba6  e7e9              B        |L2.2940|
                  |L2.2984|
000ba8  8c01              LDRH     r1,[r0,#0x20]         ;2277
000baa  2900              CMP      r1,#0                 ;2277
000bac  d110              BNE      |L2.3024|
000bae  8e01              LDRH     r1,[r0,#0x30]         ;2277
000bb0  2900              CMP      r1,#0                 ;2277
000bb2  d10d              BNE      |L2.3024|
000bb4  4601              MOV      r1,r0                 ;2277
000bb6  3140              ADDS     r1,r1,#0x40           ;2277
000bb8  880b              LDRH     r3,[r1,#0]            ;2277
000bba  2b00              CMP      r3,#0                 ;2277
000bbc  d108              BNE      |L2.3024|
000bbe  8a0b              LDRH     r3,[r1,#0x10]         ;2277
000bc0  2b00              CMP      r3,#0                 ;2277
000bc2  d105              BNE      |L2.3024|
000bc4  8c0b              LDRH     r3,[r1,#0x20]         ;2277
000bc6  2b00              CMP      r3,#0                 ;2277
000bc8  d102              BNE      |L2.3024|
000bca  8e0b              LDRH     r3,[r1,#0x30]         ;2277
000bcc  2b00              CMP      r3,#0                 ;2277
000bce  d078              BEQ      |L2.3266|
                  |L2.3024|
000bd0  4601              MOV      r1,r0                 ;2277
000bd2  3140              ADDS     r1,r1,#0x40           ;2277
000bd4  8a0d              LDRH     r5,[r1,#0x10]         ;2277
000bd6  8e04              LDRH     r4,[r0,#0x30]         ;2277
000bd8  1b2b              SUBS     r3,r5,r4              ;2277
000bda  192f              ADDS     r7,r5,r4              ;2277
000bdc  8e0c              LDRH     r4,[r1,#0x30]         ;2277
000bde  b21b              SXTH     r3,r3                 ;2277
000be0  1916              ADDS     r6,r2,r4              ;2277
000be2  1b12              SUBS     r2,r2,r4              ;2277
000be4  b212              SXTH     r2,r2                 ;2277
000be6  1a9c              SUBS     r4,r3,r2              ;2277
000be8  b224              SXTH     r4,r4                 ;2277
000bea  25c4              MOVS     r5,#0xc4              ;2277
000bec  436c              MULS     r4,r5,r4              ;2277
000bee  25ff              MOVS     r5,#0xff              ;2277
000bf0  3516              ADDS     r5,r5,#0x16           ;2277
000bf2  436a              MULS     r2,r5,r2              ;2277
000bf4  4d31              LDR      r5,|L2.3260|
000bf6  3480              ADDS     r4,r4,#0x80           ;2277
000bf8  436b              MULS     r3,r5,r3              ;2277
000bfa  1224              ASRS     r4,r4,#8              ;2277
000bfc  3380              ADDS     r3,r3,#0x80           ;2277
000bfe  121b              ASRS     r3,r3,#8              ;2277
000c00  1ae5              SUBS     r5,r4,r3              ;2277
000c02  3280              ADDS     r2,r2,#0x80           ;2277
000c04  46ae              MOV      lr,r5                 ;2277
000c06  1bf3              SUBS     r3,r6,r7              ;2277
000c08  1212              ASRS     r2,r2,#8              ;2277
000c0a  b21d              SXTH     r5,r3                 ;2277
000c0c  1b12              SUBS     r2,r2,r4              ;2277
000c0e  19f3              ADDS     r3,r6,r7              ;2277
000c10  b21c              SXTH     r4,r3                 ;2277
000c12  1b12              SUBS     r2,r2,r4              ;2277
000c14  b213              SXTH     r3,r2                 ;2277
000c16  22ff              MOVS     r2,#0xff              ;2277
000c18  326b              ADDS     r2,r2,#0x6b           ;2277
000c1a  4355              MULS     r5,r2,r5              ;2277
000c1c  3580              ADDS     r5,r5,#0x80           ;2277
000c1e  122a              ASRS     r2,r5,#8              ;2277
000c20  1ad2              SUBS     r2,r2,r3              ;2277
000c22  b212              SXTH     r2,r2                 ;2277
000c24  4675              MOV      r5,lr                 ;2277
000c26  1955              ADDS     r5,r2,r5              ;2277
000c28  b22d              SXTH     r5,r5                 ;2277
000c2a  9504              STR      r5,[sp,#0x10]         ;2277
000c2c  8805              LDRH     r5,[r0,#0]            ;2277
000c2e  880e              LDRH     r6,[r1,#0]            ;2277
000c30  19af              ADDS     r7,r5,r6              ;2277
000c32  1bad              SUBS     r5,r5,r6              ;2277
000c34  970b              STR      r7,[sp,#0x2c]         ;2277
000c36  950d              STR      r5,[sp,#0x34]         ;2277
000c38  8c07              LDRH     r7,[r0,#0x20]         ;2277
000c3a  8c0e              LDRH     r6,[r1,#0x20]         ;2277
000c3c  1bbd              SUBS     r5,r7,r6              ;2277
000c3e  19be              ADDS     r6,r7,r6              ;2277
000c40  27ff              MOVS     r7,#0xff              ;2277
000c42  b22d              SXTH     r5,r5                 ;2277
000c44  376b              ADDS     r7,r7,#0x6b           ;2277
000c46  437d              MULS     r5,r7,r5              ;2277
000c48  3580              ADDS     r5,r5,#0x80           ;2277
000c4a  122d              ASRS     r5,r5,#8              ;2277
000c4c  1baf              SUBS     r7,r5,r6              ;2277
000c4e  46be              MOV      lr,r7                 ;2277
000c50  9f0b              LDR      r7,[sp,#0x2c]         ;2277
000c52  19bd              ADDS     r5,r7,r6              ;2277
000c54  b22d              SXTH     r5,r5                 ;2277
000c56  9507              STR      r5,[sp,#0x1c]         ;2277
000c58  1bbd              SUBS     r5,r7,r6              ;2277
000c5a  b22d              SXTH     r5,r5                 ;2277
000c5c  950b              STR      r5,[sp,#0x2c]         ;2277
000c5e  9d0d              LDR      r5,[sp,#0x34]         ;2277
000c60  4677              MOV      r7,lr                 ;2277
000c62  4475              ADD      r5,r5,lr              ;2277
000c64  b22d              SXTH     r5,r5                 ;2277
000c66  9501              STR      r5,[sp,#4]            ;2277
000c68  9d0d              LDR      r5,[sp,#0x34]         ;2277
000c6a  1bed              SUBS     r5,r5,r7              ;2277
000c6c  b22f              SXTH     r7,r5                 ;2277
000c6e  9d07              LDR      r5,[sp,#0x1c]         ;2277
000c70  192d              ADDS     r5,r5,r4              ;2277
000c72  3540              ADDS     r5,r5,#0x40           ;2277
000c74  09ed              LSRS     r5,r5,#7              ;2277
000c76  3580              ADDS     r5,r5,#0x80           ;2277
000c78  b22d              SXTH     r5,r5                 ;2277
000c7a  b2ae              UXTH     r6,r5                 ;2277
000c7c  2eff              CMP      r6,#0xff              ;2277
000c7e  d93f              BLS      |L2.3328|
000c80  2d00              CMP      r5,#0                 ;2277
000c82  da39              BGE      |L2.3320|
000c84  2500              MOVS     r5,#0                 ;2277
000c86  e03c              B        |L2.3330|
                  |L2.3208|
                          DCD      ||.bss||+0x6e0
                  |L2.3212|
                          DCD      ||.bss||+0x690
                  |L2.3216|
                          DCD      ||.bss||+0x590
                  |L2.3220|
                          DCD      ||.bss||+0x540
                  |L2.3224|
                          DCD      ||.constdata||
                  |L2.3228|
                          DCD      ||.bss||
                  |L2.3232|
                          DCD      0xfffffe01
                  |L2.3236|
                          DCD      0xfffffc01
                  |L2.3240|
                          DCD      0xfffff801
                  |L2.3244|
                          DCD      0xfffff001
                  |L2.3248|
                          DCD      0xffffe001
                  |L2.3252|
                          DCD      0xffffc001
                  |L2.3256|
                          DCD      0xffff8001
                  |L2.3260|
                          DCD      0x0000029d
000cc0  e7ff              B        |L2.3266|
                  |L2.3266|
000cc2  2200              MOVS     r2,#0                 ;2277
000cc4  5e82              LDRSH    r2,[r0,r2]            ;2277
000cc6  3240              ADDS     r2,r2,#0x40           ;2277
000cc8  09d2              LSRS     r2,r2,#7              ;2277
000cca  3280              ADDS     r2,r2,#0x80           ;2277
000ccc  b212              SXTH     r2,r2                 ;2277
000cce  b293              UXTH     r3,r2                 ;2277
000cd0  2bff              CMP      r3,#0xff              ;2277
000cd2  d907              BLS      |L2.3300|
000cd4  2a00              CMP      r2,#0                 ;2277
000cd6  da01              BGE      |L2.3292|
000cd8  2200              MOVS     r2,#0                 ;2277
000cda  e004              B        |L2.3302|
                  |L2.3292|
000cdc  2aff              CMP      r2,#0xff              ;2277
000cde  dd01              BLE      |L2.3300|
000ce0  22ff              MOVS     r2,#0xff              ;2277
000ce2  e000              B        |L2.3302|
                  |L2.3300|
000ce4  b2d2              UXTB     r2,r2                 ;2277
                  |L2.3302|
000ce6  8002              STRH     r2,[r0,#0]            ;2277
000ce8  8202              STRH     r2,[r0,#0x10]         ;2277
000cea  8402              STRH     r2,[r0,#0x20]         ;2277
000cec  8602              STRH     r2,[r0,#0x30]         ;2277
000cee  800a              STRH     r2,[r1,#0]            ;2277
000cf0  820a              STRH     r2,[r1,#0x10]         ;2277
000cf2  840a              STRH     r2,[r1,#0x20]         ;2277
000cf4  860a              STRH     r2,[r1,#0x30]         ;2277
000cf6  e08a              B        |L2.3598|
                  |L2.3320|
000cf8  2dff              CMP      r5,#0xff              ;2277
000cfa  dd01              BLE      |L2.3328|
000cfc  25ff              MOVS     r5,#0xff              ;2277
000cfe  e000              B        |L2.3330|
                  |L2.3328|
000d00  b2ed              UXTB     r5,r5                 ;2277
                  |L2.3330|
000d02  8005              STRH     r5,[r0,#0]            ;2277
000d04  9d01              LDR      r5,[sp,#4]            ;2277
000d06  18ed              ADDS     r5,r5,r3              ;2277
000d08  3540              ADDS     r5,r5,#0x40           ;2277
000d0a  09ed              LSRS     r5,r5,#7              ;2277
000d0c  3580              ADDS     r5,r5,#0x80           ;2277
000d0e  b22d              SXTH     r5,r5                 ;2277
000d10  b2ae              UXTH     r6,r5                 ;2277
000d12  2eff              CMP      r6,#0xff              ;2277
000d14  d907              BLS      |L2.3366|
000d16  2d00              CMP      r5,#0                 ;2277
000d18  da01              BGE      |L2.3358|
000d1a  2500              MOVS     r5,#0                 ;2277
000d1c  e004              B        |L2.3368|
                  |L2.3358|
000d1e  2dff              CMP      r5,#0xff              ;2277
000d20  dd01              BLE      |L2.3366|
000d22  25ff              MOVS     r5,#0xff              ;2277
000d24  e000              B        |L2.3368|
                  |L2.3366|
000d26  b2ed              UXTB     r5,r5                 ;2277
                  |L2.3368|
000d28  8205              STRH     r5,[r0,#0x10]         ;2277
000d2a  18bd              ADDS     r5,r7,r2              ;2277
000d2c  3540              ADDS     r5,r5,#0x40           ;2277
000d2e  09ed              LSRS     r5,r5,#7              ;2277
000d30  3580              ADDS     r5,r5,#0x80           ;2277
000d32  b22d              SXTH     r5,r5                 ;2277
000d34  b2ae              UXTH     r6,r5                 ;2277
000d36  2eff              CMP      r6,#0xff              ;2277
000d38  d907              BLS      |L2.3402|
000d3a  2d00              CMP      r5,#0                 ;2277
000d3c  da01              BGE      |L2.3394|
000d3e  2500              MOVS     r5,#0                 ;2277
000d40  e004              B        |L2.3404|
                  |L2.3394|
000d42  2dff              CMP      r5,#0xff              ;2277
000d44  dd01              BLE      |L2.3402|
000d46  25ff              MOVS     r5,#0xff              ;2277
000d48  e000              B        |L2.3404|
                  |L2.3402|
000d4a  b2ed              UXTB     r5,r5                 ;2277
                  |L2.3404|
000d4c  8405              STRH     r5,[r0,#0x20]         ;2277
000d4e  9e0b              LDR      r6,[sp,#0x2c]         ;2277
000d50  9d04              LDR      r5,[sp,#0x10]         ;2277
000d52  1b75              SUBS     r5,r6,r5              ;2277
000d54  3540              ADDS     r5,r5,#0x40           ;2277
000d56  09ed              LSRS     r5,r5,#7              ;2277
000d58  3580              ADDS     r5,r5,#0x80           ;2277
000d5a  b22d              SXTH     r5,r5                 ;2277
000d5c  b2ae              UXTH     r6,r5                 ;2277
000d5e  2eff              CMP      r6,#0xff              ;2277
000d60  d907              BLS      |L2.3442|
000d62  2d00              CMP      r5,#0                 ;2277
000d64  da01              BGE      |L2.3434|
000d66  2500              MOVS     r5,#0                 ;2277
000d68  e004              B        |L2.3444|
                  |L2.3434|
000d6a  2dff              CMP      r5,#0xff              ;2277
000d6c  dd01              BLE      |L2.3442|
000d6e  25ff              MOVS     r5,#0xff              ;2277
000d70  e000              B        |L2.3444|
                  |L2.3442|
000d72  b2ed              UXTB     r5,r5                 ;2277
                  |L2.3444|
000d74  8605              STRH     r5,[r0,#0x30]         ;2277
000d76  9e04              LDR      r6,[sp,#0x10]         ;2277
000d78  9d0b              LDR      r5,[sp,#0x2c]         ;2277
000d7a  19ad              ADDS     r5,r5,r6              ;2277
000d7c  3540              ADDS     r5,r5,#0x40           ;2277
000d7e  09ed              LSRS     r5,r5,#7              ;2277
000d80  3580              ADDS     r5,r5,#0x80           ;2277
000d82  b22d              SXTH     r5,r5                 ;2277
000d84  b2ae              UXTH     r6,r5                 ;2277
000d86  2eff              CMP      r6,#0xff              ;2277
000d88  d907              BLS      |L2.3482|
000d8a  2d00              CMP      r5,#0                 ;2277
000d8c  da01              BGE      |L2.3474|
000d8e  2500              MOVS     r5,#0                 ;2277
000d90  e004              B        |L2.3484|
                  |L2.3474|
000d92  2dff              CMP      r5,#0xff              ;2277
000d94  dd01              BLE      |L2.3482|
000d96  25ff              MOVS     r5,#0xff              ;2277
000d98  e000              B        |L2.3484|
                  |L2.3482|
000d9a  b2ed              UXTB     r5,r5                 ;2277
                  |L2.3484|
000d9c  1aba              SUBS     r2,r7,r2              ;2277
000d9e  3240              ADDS     r2,r2,#0x40           ;2277
000da0  09d2              LSRS     r2,r2,#7              ;2277
000da2  3280              ADDS     r2,r2,#0x80           ;2277
000da4  800d              STRH     r5,[r1,#0]            ;2277
000da6  b212              SXTH     r2,r2                 ;2277
000da8  b295              UXTH     r5,r2                 ;2277
000daa  2dff              CMP      r5,#0xff              ;2277
000dac  d907              BLS      |L2.3518|
000dae  2a00              CMP      r2,#0                 ;2277
000db0  da01              BGE      |L2.3510|
000db2  2200              MOVS     r2,#0                 ;2277
000db4  e004              B        |L2.3520|
                  |L2.3510|
000db6  2aff              CMP      r2,#0xff              ;2277
000db8  dd01              BLE      |L2.3518|
000dba  22ff              MOVS     r2,#0xff              ;2277
000dbc  e000              B        |L2.3520|
                  |L2.3518|
000dbe  b2d2              UXTB     r2,r2                 ;2277
                  |L2.3520|
000dc0  820a              STRH     r2,[r1,#0x10]         ;2277
000dc2  9a01              LDR      r2,[sp,#4]            ;2277
000dc4  1ad2              SUBS     r2,r2,r3              ;2277
000dc6  3240              ADDS     r2,r2,#0x40           ;2277
000dc8  09d2              LSRS     r2,r2,#7              ;2277
000dca  3280              ADDS     r2,r2,#0x80           ;2277
000dcc  b212              SXTH     r2,r2                 ;2277
000dce  b293              UXTH     r3,r2                 ;2277
000dd0  2bff              CMP      r3,#0xff              ;2277
000dd2  d907              BLS      |L2.3556|
000dd4  2a00              CMP      r2,#0                 ;2277
000dd6  da01              BGE      |L2.3548|
000dd8  2200              MOVS     r2,#0                 ;2277
000dda  e004              B        |L2.3558|
                  |L2.3548|
000ddc  2aff              CMP      r2,#0xff              ;2277
000dde  dd01              BLE      |L2.3556|
000de0  22ff              MOVS     r2,#0xff              ;2277
000de2  e000              B        |L2.3558|
                  |L2.3556|
000de4  b2d2              UXTB     r2,r2                 ;2277
                  |L2.3558|
000de6  840a              STRH     r2,[r1,#0x20]         ;2277
000de8  9a07              LDR      r2,[sp,#0x1c]         ;2277
000dea  1b12              SUBS     r2,r2,r4              ;2277
000dec  3240              ADDS     r2,r2,#0x40           ;2277
000dee  09d2              LSRS     r2,r2,#7              ;2277
000df0  3280              ADDS     r2,r2,#0x80           ;2277
000df2  b212              SXTH     r2,r2                 ;2277
000df4  b293              UXTH     r3,r2                 ;2277
000df6  2bff              CMP      r3,#0xff              ;2277
000df8  d907              BLS      |L2.3594|
000dfa  2a00              CMP      r2,#0                 ;2277
000dfc  da01              BGE      |L2.3586|
000dfe  2200              MOVS     r2,#0                 ;2277
000e00  e004              B        |L2.3596|
                  |L2.3586|
000e02  2aff              CMP      r2,#0xff              ;2277
000e04  dd01              BLE      |L2.3594|
000e06  22ff              MOVS     r2,#0xff              ;2277
000e08  e000              B        |L2.3596|
                  |L2.3594|
000e0a  b2d2              UXTB     r2,r2                 ;2277
                  |L2.3596|
000e0c  860a              STRH     r2,[r1,#0x30]         ;2277
                  |L2.3598|
000e0e  4661              MOV      r1,r12                ;2277
000e10  1c49              ADDS     r1,r1,#1              ;2277
000e12  b2c9              UXTB     r1,r1                 ;2277
000e14  1c80              ADDS     r0,r0,#2              ;2277
000e16  468c              MOV      r12,r1                ;2277
000e18  2908              CMP      r1,#8                 ;2277
000e1a  d200              BCS      |L2.3614|
000e1c  e6b7              B        |L2.2958|
                  |L2.3614|
000e1e  487c              LDR      r0,|L2.4112|
000e20  7a00              LDRB     r0,[r0,#8]            ;2277  ; gScanType
000e22  2805              CMP      r0,#5                 ;2277
000e24  d242              BCS      |L2.3756|
000e26  0001              MOVS     r1,r0                 ;2277
000e28  4479              ADD      r1,r1,pc              ;2277
000e2a  7909              LDRB     r1,[r1,#4]            ;2277
000e2c  1849              ADDS     r1,r1,r1              ;2277
000e2e  448f              ADD      pc,pc,r1              ;2277
000e30  b9029172          DCB      0xb9,0x02,0x91,0x72
000e34  ad00              DCB      0xad,0x00
000e36  9809              LDR      r0,[sp,#0x24]         ;2277
000e38  2800              CMP      r0,#0                 ;2277
000e3a  d076              BEQ      |L2.3882|
000e3c  2801              CMP      r0,#1                 ;2277
000e3e  d002              BEQ      |L2.3654|
000e40  2802              CMP      r0,#2                 ;2277
000e42  d133              BNE      |L2.3756|
000e44  e033              B        |L2.3758|
                  |L2.3654|
000e46  4973              LDR      r1,|L2.4116|
000e48  4873              LDR      r0,|L2.4120|
000e4a  4d74              LDR      r5,|L2.4124|
000e4c  2440              MOVS     r4,#0x40              ;2277
                  |L2.3662|
000e4e  782a              LDRB     r2,[r5,#0]            ;2277
000e50  2358              MOVS     r3,#0x58              ;2277
000e52  4353              MULS     r3,r2,r3              ;2277
000e54  0a1b              LSRS     r3,r3,#8              ;2277
000e56  780e              LDRB     r6,[r1,#0]            ;2277
000e58  3b2c              SUBS     r3,r3,#0x2c           ;2277
000e5a  1af3              SUBS     r3,r6,r3              ;2277
000e5c  b29e              UXTH     r6,r3                 ;2277
000e5e  1cad              ADDS     r5,r5,#2              ;2277
000e60  2eff              CMP      r6,#0xff              ;2277
000e62  d907              BLS      |L2.3700|
000e64  2b00              CMP      r3,#0                 ;2277
000e66  da01              BGE      |L2.3692|
000e68  2300              MOVS     r3,#0                 ;2277
000e6a  e004              B        |L2.3702|
                  |L2.3692|
000e6c  2bff              CMP      r3,#0xff              ;2277
000e6e  dd01              BLE      |L2.3700|
000e70  23ff              MOVS     r3,#0xff              ;2277
000e72  e000              B        |L2.3702|
                  |L2.3700|
000e74  b2db              UXTB     r3,r3                 ;2277
                  |L2.3702|
000e76  700b              STRB     r3,[r1,#0]            ;2277
000e78  23c6              MOVS     r3,#0xc6              ;2277
000e7a  4353              MULS     r3,r2,r3              ;2277
000e7c  0a1b              LSRS     r3,r3,#8              ;2277
000e7e  189a              ADDS     r2,r3,r2              ;2277
000e80  7803              LDRB     r3,[r0,#0]            ;2277
000e82  3ae3              SUBS     r2,r2,#0xe3           ;2277
000e84  189a              ADDS     r2,r3,r2              ;2277
000e86  b293              UXTH     r3,r2                 ;2277
000e88  1c49              ADDS     r1,r1,#1              ;2277
000e8a  2bff              CMP      r3,#0xff              ;2277
000e8c  d907              BLS      |L2.3742|
000e8e  2a00              CMP      r2,#0                 ;2277
000e90  da01              BGE      |L2.3734|
000e92  2200              MOVS     r2,#0                 ;2277
000e94  e004              B        |L2.3744|
                  |L2.3734|
000e96  2aff              CMP      r2,#0xff              ;2277
000e98  dd01              BLE      |L2.3742|
000e9a  22ff              MOVS     r2,#0xff              ;2277
000e9c  e000              B        |L2.3744|
                  |L2.3742|
000e9e  b2d2              UXTB     r2,r2                 ;2277
                  |L2.3744|
000ea0  7002              STRB     r2,[r0,#0]            ;2277
000ea2  1c40              ADDS     r0,r0,#1              ;2277
000ea4  1e64              SUBS     r4,r4,#1              ;2277
000ea6  0624              LSLS     r4,r4,#24             ;2277
000ea8  0e24              LSRS     r4,r4,#24             ;2277
000eaa  d1d0              BNE      |L2.3662|
                  |L2.3756|
000eac  e0a3              B        |L2.4086|
                  |L2.3758|
000eae  495c              LDR      r1,|L2.4128|
000eb0  4858              LDR      r0,|L2.4116|
000eb2  4d5a              LDR      r5,|L2.4124|
000eb4  2440              MOVS     r4,#0x40              ;2277
                  |L2.3766|
000eb6  782a              LDRB     r2,[r5,#0]            ;2277
000eb8  2367              MOVS     r3,#0x67              ;2277
000eba  4353              MULS     r3,r2,r3              ;2277
000ebc  0a1b              LSRS     r3,r3,#8              ;2277
000ebe  189b              ADDS     r3,r3,r2              ;2277
000ec0  780e              LDRB     r6,[r1,#0]            ;2277
000ec2  3bb3              SUBS     r3,r3,#0xb3           ;2277
000ec4  18f3              ADDS     r3,r6,r3              ;2277
000ec6  b29e              UXTH     r6,r3                 ;2277
000ec8  1cad              ADDS     r5,r5,#2              ;2277
000eca  2eff              CMP      r6,#0xff              ;2277
000ecc  d907              BLS      |L2.3806|
000ece  2b00              CMP      r3,#0                 ;2277
000ed0  da01              BGE      |L2.3798|
000ed2  2300              MOVS     r3,#0                 ;2277
000ed4  e004              B        |L2.3808|
                  |L2.3798|
000ed6  2bff              CMP      r3,#0xff              ;2277
000ed8  dd01              BLE      |L2.3806|
000eda  23ff              MOVS     r3,#0xff              ;2277
000edc  e000              B        |L2.3808|
                  |L2.3806|
000ede  b2db              UXTB     r3,r3                 ;2277
                  |L2.3808|
000ee0  700b              STRB     r3,[r1,#0]            ;2277
000ee2  23b7              MOVS     r3,#0xb7              ;2277
000ee4  435a              MULS     r2,r3,r2              ;2277
000ee6  0a12              LSRS     r2,r2,#8              ;2277
000ee8  7803              LDRB     r3,[r0,#0]            ;2277
000eea  3a5b              SUBS     r2,r2,#0x5b           ;2277
000eec  1a9a              SUBS     r2,r3,r2              ;2277
000eee  b293              UXTH     r3,r2                 ;2277
000ef0  1c49              ADDS     r1,r1,#1              ;2277
000ef2  2bff              CMP      r3,#0xff              ;2277
000ef4  d907              BLS      |L2.3846|
000ef6  2a00              CMP      r2,#0                 ;2277
000ef8  da01              BGE      |L2.3838|
000efa  2200              MOVS     r2,#0                 ;2277
000efc  e004              B        |L2.3848|
                  |L2.3838|
000efe  2aff              CMP      r2,#0xff              ;2277
000f00  dd01              BLE      |L2.3846|
000f02  22ff              MOVS     r2,#0xff              ;2277
000f04  e000              B        |L2.3848|
                  |L2.3846|
000f06  b2d2              UXTB     r2,r2                 ;2277
                  |L2.3848|
000f08  7002              STRB     r2,[r0,#0]            ;2277
000f0a  1c40              ADDS     r0,r0,#1              ;2277
000f0c  1e64              SUBS     r4,r4,#1              ;2277
000f0e  0624              LSLS     r4,r4,#24             ;2277
000f10  0e24              LSRS     r4,r4,#24             ;2277
000f12  d1d0              BNE      |L2.3766|
000f14  e06f              B        |L2.4086|
000f16  9809              LDR      r0,[sp,#0x24]         ;2277
000f18  2800              CMP      r0,#0                 ;2277
000f1a  d043              BEQ      |L2.4004|
000f1c  2801              CMP      r0,#1                 ;2277
000f1e  d005              BEQ      |L2.3884|
000f20  2802              CMP      r0,#2                 ;2277
000f22  d005              BEQ      |L2.3888|
000f24  2803              CMP      r0,#3                 ;2277
000f26  d166              BNE      |L2.4086|
000f28  e00b              B        |L2.3906|
                  |L2.3882|
000f2a  e03b              B        |L2.4004|
                  |L2.3884|
000f2c  2080              MOVS     r0,#0x80              ;2277
000f2e  e03e              B        |L2.4014|
                  |L2.3888|
000f30  2100              MOVS     r1,#0                 ;2277
000f32  4608              MOV      r0,r1                 ;2277
000f34  f7fffffe          BL       upsampleCbV
000f38  2180              MOVS     r1,#0x80              ;2277
000f3a  2020              MOVS     r0,#0x20              ;2277
000f3c  f7fffffe          BL       upsampleCbV
000f40  e059              B        |L2.4086|
                  |L2.3906|
000f42  2100              MOVS     r1,#0                 ;2277
000f44  4608              MOV      r0,r1                 ;2277
000f46  f7fffffe          BL       upsampleCrV
000f4a  2180              MOVS     r1,#0x80              ;2277
000f4c  2020              MOVS     r0,#0x20              ;2277
000f4e  f7fffffe          BL       upsampleCrV
000f52  e050              B        |L2.4086|
000f54  9809              LDR      r0,[sp,#0x24]         ;2277
000f56  2800              CMP      r0,#0                 ;2277
000f58  d024              BEQ      |L2.4004|
000f5a  2801              CMP      r0,#1                 ;2277
000f5c  d024              BEQ      |L2.4008|
000f5e  2802              CMP      r0,#2                 ;2277
000f60  d002              BEQ      |L2.3944|
000f62  2803              CMP      r0,#3                 ;2277
000f64  d147              BNE      |L2.4086|
000f66  e008              B        |L2.3962|
                  |L2.3944|
000f68  2100              MOVS     r1,#0                 ;2277
000f6a  4608              MOV      r0,r1                 ;2277
000f6c  f7fffffe          BL       upsampleCbH
000f70  2140              MOVS     r1,#0x40              ;2277
000f72  2004              MOVS     r0,#4                 ;2277
000f74  f7fffffe          BL       upsampleCbH
000f78  e03d              B        |L2.4086|
                  |L2.3962|
000f7a  2100              MOVS     r1,#0                 ;2277
000f7c  4608              MOV      r0,r1                 ;2277
000f7e  f7fffffe          BL       upsampleCrH
000f82  2140              MOVS     r1,#0x40              ;2277
000f84  2004              MOVS     r0,#4                 ;2277
000f86  f7fffffe          BL       upsampleCrH
000f8a  e034              B        |L2.4086|
000f8c  9809              LDR      r0,[sp,#0x24]         ;2277
000f8e  2806              CMP      r0,#6                 ;2277
000f90  d231              BCS      |L2.4086|
000f92  0001              MOVS     r1,r0                 ;2277
000f94  4479              ADD      r1,r1,pc              ;2277
000f96  7909              LDRB     r1,[r1,#4]            ;2277
000f98  1849              ADDS     r1,r1,r1              ;2277
000f9a  448f              ADD      pc,pc,r1              ;2277
000f9c  03050207          DCB      0x03,0x05,0x02,0x07
000fa0  0b1c              DCB      0x0b,0x1c
000fa2  e7c3              B        |L2.3884|
                  |L2.4004|
000fa4  2000              MOVS     r0,#0                 ;2277
000fa6  e002              B        |L2.4014|
                  |L2.4008|
000fa8  2040              MOVS     r0,#0x40              ;2277
000faa  e000              B        |L2.4014|
000fac  20c0              MOVS     r0,#0xc0              ;2277
                  |L2.4014|
000fae  f7fffffe          BL       copyY
000fb2  e020              B        |L2.4086|
000fb4  2100              MOVS     r1,#0                 ;2277
000fb6  4608              MOV      r0,r1                 ;2277
000fb8  f7fffffe          BL       upsampleCb
000fbc  2140              MOVS     r1,#0x40              ;2277
000fbe  2004              MOVS     r0,#4                 ;2277
000fc0  f7fffffe          BL       upsampleCb
000fc4  2180              MOVS     r1,#0x80              ;2277
000fc6  2020              MOVS     r0,#0x20              ;2277
000fc8  f7fffffe          BL       upsampleCb
000fcc  21c0              MOVS     r1,#0xc0              ;2277
000fce  2024              MOVS     r0,#0x24              ;2277
000fd0  f7fffffe          BL       upsampleCb
000fd4  e00f              B        |L2.4086|
000fd6  2100              MOVS     r1,#0                 ;2277
000fd8  4608              MOV      r0,r1                 ;2277
000fda  f7fffffe          BL       upsampleCr
000fde  2140              MOVS     r1,#0x40              ;2277
000fe0  2004              MOVS     r0,#4                 ;2277
000fe2  f7fffffe          BL       upsampleCr
000fe6  2180              MOVS     r1,#0x80              ;2277
000fe8  2020              MOVS     r0,#0x20              ;2277
000fea  f7fffffe          BL       upsampleCr
000fee  21c0              MOVS     r1,#0xc0              ;2277
000ff0  2024              MOVS     r0,#0x24              ;2277
000ff2  f7fffffe          BL       upsampleCr
                  |L2.4086|
000ff6  9808              LDR      r0,[sp,#0x20]         ;2279
000ff8  4905              LDR      r1,|L2.4112|
000ffa  1c40              ADDS     r0,r0,#1              ;2279
000ffc  b2c0              UXTB     r0,r0                 ;2279
000ffe  9008              STR      r0,[sp,#0x20]         ;2279
001000  7a49              LDRB     r1,[r1,#9]            ;2279  ; gMaxBlocksPerMCU
001002  4288              CMP      r0,r1                 ;2279
001004  d201              BCS      |L2.4106|
001006  f7fff83d          BL       |L2.132|
                  |L2.4106|
00100a  2000              MOVS     r0,#0                 ;2280
00100c  b00f              ADD      sp,sp,#0x3c
00100e  bdf0              POP      {r4-r7,pc}
;;;2282   //------------------------------------------------------------------------------
                          ENDP

                  |L2.4112|
                          DCD      ||.data||
                  |L2.4116|
                          DCD      ||.bss||+0x180
                  |L2.4120|
                          DCD      ||.bss||+0x280
                  |L2.4124|
                          DCD      ||.bss||
                  |L2.4128|
                          DCD      ||.bss||+0x80

                          AREA ||i.getBits||, CODE, READONLY, ALIGN=2

                  getBits PROC
;;;288    #endif
;;;289    static uint16 getBits(uint8 numBits, uint8 FFCheck)
000000  b5f3              PUSH     {r0,r1,r4-r7,lr}
;;;290    {
;;;291       uint8 origBits = numBits;
;;;292       uint16 ret = gBitBuf;
000002  4c1d              LDR      r4,|L3.120|
000004  b081              SUB      sp,sp,#4              ;290
000006  89e6              LDRH     r6,[r4,#0xe]  ; gBitBuf
000008  4605              MOV      r5,r0                 ;290
00000a  4607              MOV      r7,r0                 ;291
;;;293       
;;;294       if (numBits > 8)
00000c  2808              CMP      r0,#8
00000e  d915              BLS      |L3.60|
;;;295       {
;;;296          numBits -= 8;
000010  463d              MOV      r5,r7
000012  3d08              SUBS     r5,r5,#8
;;;297          
;;;298          gBitBuf <<= gBitsLeft;
000014  7961              LDRB     r1,[r4,#5]  ; gBitsLeft
000016  4630              MOV      r0,r6                 ;296
000018  4088              LSLS     r0,r0,r1
00001a  81e0              STRH     r0,[r4,#0xe]
00001c  b2ed              UXTB     r5,r5                 ;296
;;;299          
;;;300          gBitBuf |= getOctet(FFCheck);
00001e  9802              LDR      r0,[sp,#8]
000020  f7fffffe          BL       getOctet
000024  89e1              LDRH     r1,[r4,#0xe]  ; gBitBuf
;;;301          
;;;302          gBitBuf <<= (8 - gBitsLeft);
000026  7962              LDRB     r2,[r4,#5]  ; gBitsLeft
000028  4308              ORRS     r0,r0,r1              ;300
00002a  2108              MOVS     r1,#8
00002c  1a89              SUBS     r1,r1,r2
00002e  4088              LSLS     r0,r0,r1
000030  b280              UXTH     r0,r0
;;;303          
;;;304          ret = (ret & 0xFF00) | (gBitBuf >> 8);
000032  0a36              LSRS     r6,r6,#8
000034  81e0              STRH     r0,[r4,#0xe]          ;302
000036  0236              LSLS     r6,r6,#8
000038  0a00              LSRS     r0,r0,#8
00003a  4306              ORRS     r6,r6,r0
                  |L3.60|
;;;305       }
;;;306          
;;;307       if (gBitsLeft < numBits)
00003c  7960              LDRB     r0,[r4,#5]  ; gBitsLeft
00003e  42a8              CMP      r0,r5
000040  d20f              BCS      |L3.98|
;;;308       {
;;;309          gBitBuf <<= gBitsLeft;
000042  89e1              LDRH     r1,[r4,#0xe]  ; gBitBuf
000044  4081              LSLS     r1,r1,r0
000046  81e1              STRH     r1,[r4,#0xe]
;;;310          
;;;311          gBitBuf |= getOctet(FFCheck);
000048  9802              LDR      r0,[sp,#8]
00004a  f7fffffe          BL       getOctet
00004e  89e1              LDRH     r1,[r4,#0xe]  ; gBitBuf
000050  4308              ORRS     r0,r0,r1
;;;312          
;;;313          gBitBuf <<= (numBits - gBitsLeft);
000052  7961              LDRB     r1,[r4,#5]  ; gBitsLeft
000054  1a69              SUBS     r1,r5,r1
000056  4088              LSLS     r0,r0,r1
000058  81e0              STRH     r0,[r4,#0xe]
;;;314                            
;;;315          gBitsLeft = 8 - (numBits - gBitsLeft);
00005a  2008              MOVS     r0,#8
00005c  1a40              SUBS     r0,r0,r1
00005e  7160              STRB     r0,[r4,#5]
000060  e004              B        |L3.108|
                  |L3.98|
;;;316       }
;;;317       else
;;;318       {
;;;319          gBitsLeft = (uint8)(gBitsLeft - numBits);
000062  1b40              SUBS     r0,r0,r5
000064  7160              STRB     r0,[r4,#5]
;;;320          gBitBuf <<= numBits;
000066  89e0              LDRH     r0,[r4,#0xe]  ; gBitBuf
000068  40a8              LSLS     r0,r0,r5
00006a  81e0              STRH     r0,[r4,#0xe]
                  |L3.108|
;;;321       }
;;;322       
;;;323       return ret >> (16 - origBits);
00006c  2010              MOVS     r0,#0x10
00006e  1bc1              SUBS     r1,r0,r7
000070  4630              MOV      r0,r6
000072  40c8              LSRS     r0,r0,r1
;;;324    }
000074  b003              ADD      sp,sp,#0xc
000076  bdf0              POP      {r4-r7,pc}
;;;325    //------------------------------------------------------------------------------
                          ENDP

                  |L3.120|
                          DCD      ||.data||

                          AREA ||i.getChar||, CODE, READONLY, ALIGN=2

                  getChar PROC
;;;244    //------------------------------------------------------------------------------
;;;245    static PJPG_INLINE uint8 getChar(void)
000000  b570              PUSH     {r4-r6,lr}
;;;246    {
;;;247       if (!gInBufLeft)
000002  4c12              LDR      r4,|L4.76|
000004  4d12              LDR      r5,|L4.80|
000006  7920              LDRB     r0,[r4,#4]  ; gInBufLeft
000008  2800              CMP      r0,#0
00000a  d10d              BNE      |L4.40|
00000c  2004              MOVS     r0,#4                 ;246
00000e  70e0              STRB     r0,[r4,#3]            ;246
000010  21fc              MOVS     r1,#0xfc              ;246
000012  6be6              LDR      r6,[r4,#0x3c]         ;246  ; g_pNeedBytesCallback
000014  1d28              ADDS     r0,r5,#4              ;246
000016  4a0f              LDR      r2,|L4.84|
000018  6c23              LDR      r3,[r4,#0x40]         ;246  ; g_pCallback_data
00001a  47b0              BLX      r6                    ;246
00001c  2800              CMP      r0,#0                 ;246
00001e  d000              BEQ      |L4.34|
000020  7320              STRB     r0,[r4,#0xc]          ;246
                  |L4.34|
;;;248       {
;;;249          fillInBuf();
;;;250          if (!gInBufLeft)
000022  7920              LDRB     r0,[r4,#4]  ; gInBufLeft
000024  2800              CMP      r0,#0
000026  d007              BEQ      |L4.56|
                  |L4.40|
;;;251          {
;;;252             gTemFlag = ~gTemFlag;
;;;253             return gTemFlag ? 0xFF : 0xD9;
;;;254          } 
;;;255       }
;;;256       
;;;257       gInBufLeft--;
000028  b2c0              UXTB     r0,r0
00002a  1e40              SUBS     r0,r0,#1
00002c  7120              STRB     r0,[r4,#4]
;;;258       return gInBuf[gInBufOfs++];
00002e  78e1              LDRB     r1,[r4,#3]  ; gInBufOfs
000030  5c68              LDRB     r0,[r5,r1]
000032  1c49              ADDS     r1,r1,#1
000034  70e1              STRB     r1,[r4,#3]
;;;259    }
000036  bd70              POP      {r4-r6,pc}
                  |L4.56|
000038  78a0              LDRB     r0,[r4,#2]            ;252  ; gTemFlag
00003a  43c0              MVNS     r0,r0                 ;252
00003c  0600              LSLS     r0,r0,#24             ;252
00003e  0e00              LSRS     r0,r0,#24             ;252
000040  70a0              STRB     r0,[r4,#2]            ;252
000042  d001              BEQ      |L4.72|
000044  20ff              MOVS     r0,#0xff              ;253
000046  bd70              POP      {r4-r6,pc}
                  |L4.72|
000048  20d9              MOVS     r0,#0xd9              ;253
00004a  bd70              POP      {r4-r6,pc}
;;;260    //------------------------------------------------------------------------------
                          ENDP

                  |L4.76|
                          DCD      ||.data||
                  |L4.80|
                          DCD      ||.bss||+0x7e0
                  |L4.84|
                          DCD      ||.data||+0x4

                          AREA ||i.getOctet||, CODE, READONLY, ALIGN=2

                  getOctet PROC
;;;267    //------------------------------------------------------------------------------
;;;268    static PJPG_INLINE uint8 getOctet(uint8 FFCheck)
000000  b570              PUSH     {r4-r6,lr}
;;;269    {
000002  4605              MOV      r5,r0
;;;270       uint8 c = getChar();
000004  f7fffffe          BL       getChar
000008  4604              MOV      r4,r0
;;;271          
;;;272       if ((FFCheck) && (c == 0xFF))
00000a  2d00              CMP      r5,#0
00000c  d013              BEQ      |L5.54|
00000e  2cff              CMP      r4,#0xff
000010  d111              BNE      |L5.54|
;;;273       {
;;;274          uint8 n = getChar();
000012  f7fffffe          BL       getChar
;;;275    
;;;276          if (n)
000016  2800              CMP      r0,#0
000018  d00d              BEQ      |L5.54|
00001a  4908              LDR      r1,|L5.60|
00001c  4b08              LDR      r3,|L5.64|
00001e  78ca              LDRB     r2,[r1,#3]  ; gInBufOfs
;;;277          {
;;;278             stuffChar(n);
;;;279             stuffChar(0xFF);
000020  25ff              MOVS     r5,#0xff
000022  1e52              SUBS     r2,r2,#1
000024  b2d2              UXTB     r2,r2
000026  5498              STRB     r0,[r3,r2]
000028  1e52              SUBS     r2,r2,#1
00002a  7908              LDRB     r0,[r1,#4]  ; gInBufLeft
00002c  b2d2              UXTB     r2,r2
00002e  70ca              STRB     r2,[r1,#3]
000030  549d              STRB     r5,[r3,r2]
000032  1c80              ADDS     r0,r0,#2
000034  7108              STRB     r0,[r1,#4]
                  |L5.54|
;;;280          }
;;;281       }
;;;282    
;;;283       return c;
000036  4620              MOV      r0,r4
;;;284    }
000038  bd70              POP      {r4-r6,pc}
;;;285    //------------------------------------------------------------------------------
                          ENDP

00003a  0000              DCW      0x0000
                  |L5.60|
                          DCD      ||.data||
                  |L5.64|
                          DCD      ||.bss||+0x7e0

                          AREA ||i.huffDecode||, CODE, READONLY, ALIGN=2

                  huffDecode PROC
;;;423    #endif
;;;424    static uint8 huffDecode(const HuffTable* pHuffTable, const uint8* pHuffVal)
000000  b5f3              PUSH     {r0,r1,r4-r7,lr}
000002  4f2c              LDR      r7,|L6.180|
;;;425    {
;;;426       uint8 i = 0;
000004  2500              MOVS     r5,#0
000006  89f9              LDRH     r1,[r7,#0xe]  ; gBitBuf
000008  4606              MOV      r6,r0                 ;425
00000a  b081              SUB      sp,sp,#4              ;425
00000c  462c              MOV      r4,r5                 ;425
00000e  0408              LSLS     r0,r1,#16             ;425
000010  d500              BPL      |L6.20|
000012  2401              MOVS     r4,#1                 ;425
                  |L6.20|
000014  7978              LDRB     r0,[r7,#5]            ;425  ; gBitsLeft
000016  2800              CMP      r0,#0                 ;425
000018  d01d              BEQ      |L6.86|
00001a  1e40              SUBS     r0,r0,#1              ;425
00001c  7178              STRB     r0,[r7,#5]            ;425
00001e  0048              LSLS     r0,r1,#1              ;425
000020  81f8              STRH     r0,[r7,#0xe]          ;425
                  |L6.34|
;;;427       uint8 j;
;;;428    	
;;;429       uint16 code = getBit();
;;;430    
;;;431       // This func only reads a bit at a time, which on modern CPU's is not terribly efficient.
;;;432       // But on microcontrollers without strong integer shifting support this seems like a 
;;;433       // more reasonable approach.
;;;434       for ( ; ; )
;;;435       {
;;;436          uint16 maxCode;
;;;437    
;;;438    		 	// AD Opt
;;;439    			huffDecode_ctr++;
000022  4824              LDR      r0,|L6.180|
000024  6b81              LDR      r1,[r0,#0x38]  ; huffDecode_ctr
000026  1c49              ADDS     r1,r1,#1
000028  6381              STR      r1,[r0,#0x38]  ; huffDecode_ctr
;;;440    
;;;441    		 
;;;442          if (i == 16)
00002a  2d10              CMP      r5,#0x10
00002c  d01f              BEQ      |L6.110|
;;;443             return 0;
;;;444    
;;;445          maxCode = pHuffTable->mMaxCode[i];
00002e  0069              LSLS     r1,r5,#1
000030  1989              ADDS     r1,r1,r6
000032  8c09              LDRH     r1,[r1,#0x20]
;;;446          if ((code <= maxCode) && (maxCode != 0xFFFF))
000034  428c              CMP      r4,r1
000036  d81d              BHI      |L6.116|
000038  4a1f              LDR      r2,|L6.184|
00003a  4291              CMP      r1,r2
00003c  d01a              BEQ      |L6.116|
;;;447             break;
;;;448    
;;;449          i++;
;;;450          code <<= 1;
;;;451          code |= getBit();
;;;452       }
;;;453    
;;;454       j = pHuffTable->mValPtr[i];
00003e  1970              ADDS     r0,r6,r5
;;;455       j = (uint8)(j + (code - pHuffTable->mMinCode[i]));
000040  0069              LSLS     r1,r5,#1
000042  3040              ADDS     r0,r0,#0x40           ;454
000044  5c71              LDRB     r1,[r6,r1]
000046  7800              LDRB     r0,[r0,#0]            ;454
000048  1a61              SUBS     r1,r4,r1
00004a  1808              ADDS     r0,r1,r0
;;;456    
;;;457       return pHuffVal[j];
00004c  9902              LDR      r1,[sp,#8]
00004e  b2c0              UXTB     r0,r0                 ;455
000050  5c08              LDRB     r0,[r1,r0]
;;;458    }
000052  b003              ADD      sp,sp,#0xc
000054  bdf0              POP      {r4-r7,pc}
                  |L6.86|
000056  2001              MOVS     r0,#1
000058  f7fffffe          BL       getOctet
00005c  4601              MOV      r1,r0
00005e  89f8              LDRH     r0,[r7,#0xe]  ; gBitBuf
000060  4301              ORRS     r1,r1,r0
000062  7978              LDRB     r0,[r7,#5]  ; gBitsLeft
000064  1dc0              ADDS     r0,r0,#7
000066  7178              STRB     r0,[r7,#5]
000068  0048              LSLS     r0,r1,#1
00006a  81f8              STRH     r0,[r7,#0xe]
00006c  e7d9              B        |L6.34|
                  |L6.110|
00006e  2000              MOVS     r0,#0                 ;443
000070  b003              ADD      sp,sp,#0xc
000072  bdf0              POP      {r4-r7,pc}
                  |L6.116|
000074  0461              LSLS     r1,r4,#17             ;450
000076  0c0f              LSRS     r7,r1,#16             ;450
000078  1c6d              ADDS     r5,r5,#1
00007a  89c1              LDRH     r1,[r0,#0xe]  ; gBitBuf
00007c  2400              MOVS     r4,#0
00007e  b2ed              UXTB     r5,r5                 ;449
000080  040a              LSLS     r2,r1,#16             ;449
000082  d500              BPL      |L6.134|
000084  2401              MOVS     r4,#1                 ;449
                  |L6.134|
000086  480b              LDR      r0,|L6.180|
000088  7940              LDRB     r0,[r0,#5]            ;449  ; gBitsLeft
00008a  2800              CMP      r0,#0                 ;449
00008c  d006              BEQ      |L6.156|
00008e  4a09              LDR      r2,|L6.180|
000090  1e40              SUBS     r0,r0,#1              ;449
000092  7150              STRB     r0,[r2,#5]            ;449
000094  0048              LSLS     r0,r1,#1              ;449
000096  81d0              STRH     r0,[r2,#0xe]          ;449
                  |L6.152|
000098  433c              ORRS     r4,r4,r7              ;451
00009a  e7c2              B        |L6.34|
                  |L6.156|
00009c  2001              MOVS     r0,#1                 ;452
00009e  f7fffffe          BL       getOctet
0000a2  4904              LDR      r1,|L6.180|
0000a4  89ca              LDRH     r2,[r1,#0xe]          ;452  ; gBitBuf
0000a6  4310              ORRS     r0,r0,r2              ;452
0000a8  794a              LDRB     r2,[r1,#5]            ;452  ; gBitsLeft
0000aa  1dd2              ADDS     r2,r2,#7              ;452
0000ac  714a              STRB     r2,[r1,#5]            ;452
0000ae  0040              LSLS     r0,r0,#1              ;452
0000b0  81c8              STRH     r0,[r1,#0xe]          ;452
0000b2  e7f1              B        |L6.152|
;;;459    //------------------------------------------------------------------------------
                          ENDP

                  |L6.180|
                          DCD      ||.data||
                  |L6.184|
                          DCD      0x0000ffff

                          AREA ||i.pjpeg_decode_init||, CODE, READONLY, ALIGN=2

                  pjpeg_decode_init PROC
;;;2301   //------------------------------------------------------------------------------
;;;2302   unsigned char pjpeg_decode_init(pjpeg_image_info_t *pInfo, pjpeg_need_bytes_callback_t pNeed_bytes_callback, void *pCallback_data, unsigned char reduce)
000000  b5f0              PUSH     {r4-r7,lr}
;;;2303   {
000002  b083              SUB      sp,sp,#0xc
;;;2304      uint8 status;
;;;2305      
;;;2306      pInfo->m_width = 0; pInfo->m_height = 0; pInfo->m_comps = 0;
000004  2500              MOVS     r5,#0
000006  6005              STR      r5,[r0,#0]
000008  6045              STR      r5,[r0,#4]
;;;2307      pInfo->m_MCUSPerRow = 0; pInfo->m_MCUSPerCol = 0;
00000a  6085              STR      r5,[r0,#8]
00000c  60c5              STR      r5,[r0,#0xc]
;;;2308      pInfo->m_scanType = PJPG_GRAYSCALE;
00000e  6105              STR      r5,[r0,#0x10]
000010  7505              STRB     r5,[r0,#0x14]
;;;2309      pInfo->m_MCUWidth = 0; pInfo->m_MCUHeight = 0;
000012  6185              STR      r5,[r0,#0x18]
;;;2310      pInfo->m_pMCUBufR = (unsigned char*)0; pInfo->m_pMCUBufG = (unsigned char*)0; pInfo->m_pMCUBufB = (unsigned char*)0;
000014  61c5              STR      r5,[r0,#0x1c]
000016  6205              STR      r5,[r0,#0x20]
000018  6245              STR      r5,[r0,#0x24]
;;;2311   
;;;2312      g_pNeedBytesCallback = pNeed_bytes_callback;
00001a  4ef9              LDR      r6,|L7.1024|
00001c  6285              STR      r5,[r0,#0x28]
;;;2313      g_pCallback_data = pCallback_data;
;;;2314      gCallbackStatus = 0;
00001e  6432              STR      r2,[r6,#0x40]  ; g_pCallback_data
000020  63f1              STR      r1,[r6,#0x3c]  ; g_pNeedBytesCallback
000022  7335              STRB     r5,[r6,#0xc]
;;;2315      gReduce = reduce;
000024  7373              STRB     r3,[r6,#0xd]
000026  8235              STRH     r5,[r6,#0x10]
000028  8275              STRH     r5,[r6,#0x12]
00002a  71b5              STRB     r5,[r6,#6]
00002c  82b5              STRH     r5,[r6,#0x14]
00002e  71f5              STRB     r5,[r6,#7]
000030  7035              STRB     r5,[r6,#0]
000032  7075              STRB     r5,[r6,#1]
000034  70b5              STRB     r5,[r6,#2]
000036  70f5              STRB     r5,[r6,#3]
000038  4604              MOV      r4,r0                 ;2303
00003a  7135              STRB     r5,[r6,#4]            ;2303
00003c  81f5              STRH     r5,[r6,#0xe]          ;2303
00003e  2008              MOVS     r0,#8                 ;2303
000040  7170              STRB     r0,[r6,#5]            ;2303
000042  2100              MOVS     r1,#0                 ;2303
000044  f7fffffe          BL       getBits
000048  2100              MOVS     r1,#0                 ;2303
00004a  2008              MOVS     r0,#8                 ;2303
00004c  f7fffffe          BL       getBits
;;;2316       
;;;2317      status = init();
;;;2318      if ((status) || (gCallbackStatus))
000050  7b30              LDRB     r0,[r6,#0xc]  ; gCallbackStatus
000052  2800              CMP      r0,#0
000054  d16f              BNE      |L7.310|
000056  2100              MOVS     r1,#0
000058  2008              MOVS     r0,#8
00005a  f7fffffe          BL       getBits
00005e  b2c6              UXTB     r6,r0
000060  2100              MOVS     r1,#0
000062  2008              MOVS     r0,#8
000064  f7fffffe          BL       getBits
000068  b2c0              UXTB     r0,r0
00006a  2eff              CMP      r6,#0xff
00006c  d101              BNE      |L7.114|
00006e  28d8              CMP      r0,#0xd8
000070  d018              BEQ      |L7.164|
                  |L7.114|
000072  2601              MOVS     r6,#1
000074  0336              LSLS     r6,r6,#12
                  |L7.118|
000076  1e76              SUBS     r6,r6,#1
000078  0436              LSLS     r6,r6,#16
00007a  0c36              LSRS     r6,r6,#16
00007c  d00b              BEQ      |L7.150|
00007e  4607              MOV      r7,r0
000080  2100              MOVS     r1,#0
000082  2008              MOVS     r0,#8
000084  f7fffffe          BL       getBits
000088  b2c0              UXTB     r0,r0
00008a  2fff              CMP      r7,#0xff
00008c  d1f3              BNE      |L7.118|
00008e  28d8              CMP      r0,#0xd8
000090  d003              BEQ      |L7.154|
000092  28d9              CMP      r0,#0xd9
000094  d1ef              BNE      |L7.118|
                  |L7.150|
000096  2013              MOVS     r0,#0x13
000098  e012              B        |L7.192|
                  |L7.154|
00009a  48d9              LDR      r0,|L7.1024|
00009c  89c0              LDRH     r0,[r0,#0xe]  ; gBitBuf
00009e  0a00              LSRS     r0,r0,#8
0000a0  28ff              CMP      r0,#0xff
0000a2  d1f8              BNE      |L7.150|
                  |L7.164|
0000a4  4668              MOV      r0,sp
0000a6  f7fffffe          BL       processMarkers
0000aa  2800              CMP      r0,#0
0000ac  d108              BNE      |L7.192|
0000ae  4668              MOV      r0,sp
0000b0  7800              LDRB     r0,[r0,#0]
0000b2  28c0              CMP      r0,#0xc0
0000b4  d00f              BEQ      |L7.214|
0000b6  28c2              CMP      r0,#0xc2
0000b8  d00b              BEQ      |L7.210|
0000ba  28c9              CMP      r0,#0xc9
0000bc  d06c              BEQ      |L7.408|
0000be  2014              MOVS     r0,#0x14
                  |L7.192|
;;;2319         return gCallbackStatus ? gCallbackStatus : status;
;;;2320      
;;;2321      status = locateSOFMarker();
0000c0  4602              MOV      r2,r0
;;;2322      if ((status) || (gCallbackStatus))
0000c2  48cf              LDR      r0,|L7.1024|
0000c4  4613              MOV      r3,r2
0000c6  7b01              LDRB     r1,[r0,#0xc]  ; gCallbackStatus
0000c8  430b              ORRS     r3,r3,r1
0000ca  d067              BEQ      |L7.412|
;;;2323         return gCallbackStatus ? gCallbackStatus : status;
0000cc  2900              CMP      r1,#0
0000ce  d17c              BNE      |L7.458|
0000d0  e1df              B        |L7.1170|
                  |L7.210|
0000d2  2025              MOVS     r0,#0x25
0000d4  e7f4              B        |L7.192|
                  |L7.214|
0000d6  2100              MOVS     r1,#0
0000d8  2010              MOVS     r0,#0x10
0000da  f7fffffe          BL       getBits
0000de  9001              STR      r0,[sp,#4]
0000e0  2100              MOVS     r1,#0
0000e2  2008              MOVS     r0,#8
0000e4  f7fffffe          BL       getBits
0000e8  2808              CMP      r0,#8
0000ea  d001              BEQ      |L7.240|
0000ec  2007              MOVS     r0,#7
0000ee  e7e7              B        |L7.192|
                  |L7.240|
0000f0  2100              MOVS     r1,#0
0000f2  2010              MOVS     r0,#0x10
0000f4  f7fffffe          BL       getBits
0000f8  4fc1              LDR      r7,|L7.1024|
0000fa  2800              CMP      r0,#0
0000fc  8278              STRH     r0,[r7,#0x12]
0000fe  d003              BEQ      |L7.264|
000100  2601              MOVS     r6,#1
000102  03b6              LSLS     r6,r6,#14
000104  42b0              CMP      r0,r6
000106  d901              BLS      |L7.268|
                  |L7.264|
000108  2008              MOVS     r0,#8
00010a  e7d9              B        |L7.192|
                  |L7.268|
00010c  2100              MOVS     r1,#0
00010e  2010              MOVS     r0,#0x10
000110  f7fffffe          BL       getBits
000114  8238              STRH     r0,[r7,#0x10]
000116  2800              CMP      r0,#0
000118  d001              BEQ      |L7.286|
00011a  42b0              CMP      r0,r6
00011c  d901              BLS      |L7.290|
                  |L7.286|
00011e  2009              MOVS     r0,#9
000120  e7ce              B        |L7.192|
                  |L7.290|
000122  2100              MOVS     r1,#0
000124  2008              MOVS     r0,#8
000126  f7fffffe          BL       getBits
00012a  b2c0              UXTB     r0,r0
00012c  71b8              STRB     r0,[r7,#6]
00012e  2803              CMP      r0,#3
000130  d902              BLS      |L7.312|
000132  200a              MOVS     r0,#0xa
000134  e7c4              B        |L7.192|
                  |L7.310|
000136  e095              B        |L7.612|
                  |L7.312|
000138  0042              LSLS     r2,r0,#1
00013a  1812              ADDS     r2,r2,r0
00013c  9b01              LDR      r3,[sp,#4]
00013e  3208              ADDS     r2,r2,#8
000140  429a              CMP      r2,r3
000142  d001              BEQ      |L7.328|
000144  200b              MOVS     r0,#0xb
000146  e7bb              B        |L7.192|
                  |L7.328|
000148  2600              MOVS     r6,#0
00014a  2800              CMP      r0,#0
00014c  d922              BLS      |L7.404|
00014e  4fad              LDR      r7,|L7.1028|
                  |L7.336|
000150  2100              MOVS     r1,#0
000152  2008              MOVS     r0,#8
000154  f7fffffe          BL       getBits
000158  49ab              LDR      r1,|L7.1032|
00015a  5588              STRB     r0,[r1,r6]
00015c  2100              MOVS     r1,#0
00015e  2004              MOVS     r0,#4
000160  f7fffffe          BL       getBits
000164  49a9              LDR      r1,|L7.1036|
000166  5588              STRB     r0,[r1,r6]
000168  2100              MOVS     r1,#0
00016a  2004              MOVS     r0,#4
00016c  f7fffffe          BL       getBits
000170  55b8              STRB     r0,[r7,r6]
000172  2100              MOVS     r1,#0
000174  2008              MOVS     r0,#8
000176  f7fffffe          BL       getBits
00017a  b2c0              UXTB     r0,r0
00017c  49a4              LDR      r1,|L7.1040|
00017e  2801              CMP      r0,#1
000180  5588              STRB     r0,[r1,r6]
000182  d901              BLS      |L7.392|
000184  2024              MOVS     r0,#0x24
000186  e79b              B        |L7.192|
                  |L7.392|
000188  489d              LDR      r0,|L7.1024|
00018a  1c76              ADDS     r6,r6,#1
00018c  7980              LDRB     r0,[r0,#6]  ; gCompsInFrame
00018e  b2f6              UXTB     r6,r6
000190  4286              CMP      r6,r0
000192  d3dd              BCC      |L7.336|
                  |L7.404|
000194  4628              MOV      r0,r5
000196  e793              B        |L7.192|
                  |L7.408|
000198  2011              MOVS     r0,#0x11
00019a  e791              B        |L7.192|
                  |L7.412|
00019c  7983              LDRB     r3,[r0,#6]  ; gCompsInFrame
00019e  4a9d              LDR      r2,|L7.1044|
0001a0  2b01              CMP      r3,#1
0001a2  d003              BEQ      |L7.428|
0001a4  2b03              CMP      r3,#3
0001a6  d011              BEQ      |L7.460|
0001a8  221a              MOVS     r2,#0x1a
0001aa  e055              B        |L7.600|
                  |L7.428|
0001ac  4b97              LDR      r3,|L7.1036|
0001ae  781b              LDRB     r3,[r3,#0]  ; gCompHSamp
0001b0  2b01              CMP      r3,#1
0001b2  d15e              BNE      |L7.626|
0001b4  4b93              LDR      r3,|L7.1028|
0001b6  781b              LDRB     r3,[r3,#0]  ; gCompVSamp
0001b8  2b01              CMP      r3,#1
0001ba  d15a              BNE      |L7.626|
0001bc  7205              STRB     r5,[r0,#8]
0001be  7243              STRB     r3,[r0,#9]
0001c0  7015              STRB     r5,[r2,#0]
0001c2  2208              MOVS     r2,#8
0001c4  7282              STRB     r2,[r0,#0xa]
0001c6  72c2              STRB     r2,[r0,#0xb]
0001c8  e030              B        |L7.556|
                  |L7.458|
0001ca  e04a              B        |L7.610|
                  |L7.460|
0001cc  4e8f              LDR      r6,|L7.1036|
0001ce  7873              LDRB     r3,[r6,#1]  ; gCompHSamp
0001d0  2b01              CMP      r3,#1
0001d2  d14e              BNE      |L7.626|
0001d4  1cf7              ADDS     r7,r6,#3
0001d6  787b              LDRB     r3,[r7,#1]  ; gCompVSamp
0001d8  2b01              CMP      r3,#1
0001da  d14a              BNE      |L7.626|
0001dc  78b3              LDRB     r3,[r6,#2]  ; gCompHSamp
0001de  2b01              CMP      r3,#1
0001e0  d147              BNE      |L7.626|
0001e2  78bb              LDRB     r3,[r7,#2]  ; gCompVSamp
0001e4  2b01              CMP      r3,#1
0001e6  d144              BNE      |L7.626|
0001e8  7836              LDRB     r6,[r6,#0]  ; gCompHSamp
0001ea  2302              MOVS     r3,#2
0001ec  2e01              CMP      r6,#1
0001ee  d002              BEQ      |L7.502|
0001f0  2e02              CMP      r6,#2
0001f2  d039              BEQ      |L7.616|
0001f4  e03d              B        |L7.626|
                  |L7.502|
0001f6  783e              LDRB     r6,[r7,#0]  ; gCompVSamp
0001f8  2703              MOVS     r7,#3                 ;2312
0001fa  2e01              CMP      r6,#1                 ;2312
0001fc  d002              BEQ      |L7.516|
0001fe  2e02              CMP      r6,#2                 ;2312
000200  d008              BEQ      |L7.532|
000202  e036              B        |L7.626|
                  |L7.516|
000204  2601              MOVS     r6,#1                 ;2312
000206  7206              STRB     r6,[r0,#8]            ;2312
000208  7247              STRB     r7,[r0,#9]            ;2312
00020a  7015              STRB     r5,[r2,#0]            ;2312
00020c  7056              STRB     r6,[r2,#1]            ;2312
00020e  7093              STRB     r3,[r2,#2]            ;2312
000210  2208              MOVS     r2,#8                 ;2312
000212  e048              B        |L7.678|
                  |L7.532|
000214  7207              STRB     r7,[r0,#8]            ;2312
000216  2604              MOVS     r6,#4                 ;2312
000218  7246              STRB     r6,[r0,#9]            ;2312
00021a  7015              STRB     r5,[r2,#0]            ;2312
00021c  7055              STRB     r5,[r2,#1]            ;2312
00021e  2601              MOVS     r6,#1                 ;2312
000220  7096              STRB     r6,[r2,#2]            ;2312
000222  70d3              STRB     r3,[r2,#3]            ;2312
000224  2208              MOVS     r2,#8                 ;2312
000226  7282              STRB     r2,[r0,#0xa]          ;2312
000228  2210              MOVS     r2,#0x10              ;2312
                  |L7.554|
00022a  72c2              STRB     r2,[r0,#0xb]          ;2312
                  |L7.556|
00022c  8a02              LDRH     r2,[r0,#0x10]         ;2312  ; gImageXSize
00022e  7a83              LDRB     r3,[r0,#0xa]          ;2312  ; gMaxMCUXSize
000230  18d2              ADDS     r2,r2,r3              ;2312
000232  1e52              SUBS     r2,r2,#1              ;2312
000234  2b08              CMP      r3,#8                 ;2312
000236  d038              BEQ      |L7.682|
000238  2304              MOVS     r3,#4                 ;2312
                  |L7.570|
00023a  411a              ASRS     r2,r2,r3              ;2312
00023c  b293              UXTH     r3,r2                 ;2312
00023e  8343              STRH     r3,[r0,#0x1a]         ;2312
000240  8a42              LDRH     r2,[r0,#0x12]         ;2312  ; gImageYSize
000242  7ac6              LDRB     r6,[r0,#0xb]          ;2312  ; gMaxMCUYSize
000244  1992              ADDS     r2,r2,r6              ;2312
000246  1e52              SUBS     r2,r2,#1              ;2312
000248  2e08              CMP      r6,#8                 ;2312
00024a  d030              BEQ      |L7.686|
00024c  2604              MOVS     r6,#4                 ;2312
                  |L7.590|
00024e  4132              ASRS     r2,r2,r6              ;2312
000250  8382              STRH     r2,[r0,#0x1c]         ;2312
000252  4353              MULS     r3,r2,r3              ;2312
000254  83c3              STRH     r3,[r0,#0x1e]         ;2312
000256  2200              MOVS     r2,#0                 ;2312
                  |L7.600|
000258  4610              MOV      r0,r2                 ;2312
;;;2324   
;;;2325      status = initFrame();
;;;2326      if ((status) || (gCallbackStatus))
00025a  4308              ORRS     r0,r0,r1
00025c  d029              BEQ      |L7.690|
;;;2327         return gCallbackStatus ? gCallbackStatus : status;
00025e  2900              CMP      r1,#0
000260  d070              BEQ      |L7.836|
                  |L7.610|
000262  4608              MOV      r0,r1
                  |L7.612|
;;;2328   
;;;2329      status = initScan();
;;;2330      if ((status) || (gCallbackStatus))
;;;2331         return gCallbackStatus ? gCallbackStatus : status;
;;;2332   
;;;2333      pInfo->m_width = gImageXSize; pInfo->m_height = gImageYSize; pInfo->m_comps = gCompsInFrame;
;;;2334      pInfo->m_scanType = gScanType;
;;;2335      pInfo->m_MCUSPerRow = gMaxMCUSPerRow; pInfo->m_MCUSPerCol = gMaxMCUSPerCol;
;;;2336      pInfo->m_MCUWidth = gMaxMCUXSize; pInfo->m_MCUHeight = gMaxMCUYSize;
;;;2337      pInfo->m_pMCUBufR = gMCUBufR; pInfo->m_pMCUBufG = gMCUBufG; pInfo->m_pMCUBufB = gMCUBufB;
;;;2338         
;;;2339      return 0;
;;;2340   }
000264  b003              ADD      sp,sp,#0xc
000266  bdf0              POP      {r4-r7,pc}
                  |L7.616|
000268  783e              LDRB     r6,[r7,#0]  ; gCompVSamp
00026a  2e01              CMP      r6,#1
00026c  d003              BEQ      |L7.630|
00026e  2e02              CMP      r6,#2
000270  d00d              BEQ      |L7.654|
                  |L7.626|
000272  221b              MOVS     r2,#0x1b
000274  e7f0              B        |L7.600|
                  |L7.630|
000276  7203              STRB     r3,[r0,#8]
000278  2604              MOVS     r6,#4
00027a  7246              STRB     r6,[r0,#9]
00027c  7015              STRB     r5,[r2,#0]
00027e  7055              STRB     r5,[r2,#1]
000280  2601              MOVS     r6,#1
000282  7096              STRB     r6,[r2,#2]
000284  70d3              STRB     r3,[r2,#3]
000286  2210              MOVS     r2,#0x10
000288  7282              STRB     r2,[r0,#0xa]
00028a  2208              MOVS     r2,#8
00028c  e7cd              B        |L7.554|
                  |L7.654|
00028e  2604              MOVS     r6,#4
000290  7206              STRB     r6,[r0,#8]
000292  2606              MOVS     r6,#6
000294  7246              STRB     r6,[r0,#9]
000296  7015              STRB     r5,[r2,#0]
000298  7055              STRB     r5,[r2,#1]
00029a  7095              STRB     r5,[r2,#2]
00029c  70d5              STRB     r5,[r2,#3]
00029e  2601              MOVS     r6,#1
0002a0  7116              STRB     r6,[r2,#4]
0002a2  7153              STRB     r3,[r2,#5]
0002a4  2210              MOVS     r2,#0x10
                  |L7.678|
0002a6  7282              STRB     r2,[r0,#0xa]
0002a8  e7bf              B        |L7.554|
                  |L7.682|
0002aa  2303              MOVS     r3,#3
0002ac  e7c5              B        |L7.570|
                  |L7.686|
0002ae  2603              MOVS     r6,#3
0002b0  e7cd              B        |L7.590|
                  |L7.690|
0002b2  2000              MOVS     r0,#0
0002b4  9001              STR      r0,[sp,#4]
0002b6  4668              MOV      r0,sp
0002b8  f7fffffe          BL       processMarkers
0002bc  2800              CMP      r0,#0
0002be  d140              BNE      |L7.834|
0002c0  4668              MOV      r0,sp
0002c2  7800              LDRB     r0,[r0,#0]
0002c4  28d9              CMP      r0,#0xd9
0002c6  d001              BEQ      |L7.716|
0002c8  28da              CMP      r0,#0xda
0002ca  d001              BEQ      |L7.720|
                  |L7.716|
0002cc  2012              MOVS     r0,#0x12
0002ce  e0d8              B        |L7.1154|
                  |L7.720|
0002d0  2100              MOVS     r1,#0
0002d2  2010              MOVS     r0,#0x10
0002d4  f7fffffe          BL       getBits
0002d8  4605              MOV      r5,r0
0002da  2100              MOVS     r1,#0
0002dc  2008              MOVS     r0,#8
0002de  f7fffffe          BL       getBits
0002e2  b2c0              UXTB     r0,r0
0002e4  4946              LDR      r1,|L7.1024|
0002e6  1eed              SUBS     r5,r5,#3
0002e8  0042              LSLS     r2,r0,#1
0002ea  b2ad              UXTH     r5,r5
0002ec  1cd2              ADDS     r2,r2,#3
0002ee  71c8              STRB     r0,[r1,#7]
0002f0  42aa              CMP      r2,r5
0002f2  d103              BNE      |L7.764|
0002f4  2800              CMP      r0,#0
0002f6  d001              BEQ      |L7.764|
0002f8  2803              CMP      r0,#3
0002fa  d901              BLS      |L7.768|
                  |L7.764|
0002fc  200e              MOVS     r0,#0xe
0002fe  e0c0              B        |L7.1154|
                  |L7.768|
000300  2700              MOVS     r7,#0
000302  2800              CMP      r0,#0
000304  d92f              BLS      |L7.870|
                  |L7.774|
000306  2100              MOVS     r1,#0
000308  2008              MOVS     r0,#8
00030a  f7fffffe          BL       getBits
00030e  b2c6              UXTB     r6,r0
000310  2100              MOVS     r1,#0
000312  2008              MOVS     r0,#8
000314  f7fffffe          BL       getBits
000318  4939              LDR      r1,|L7.1024|
00031a  b2c0              UXTB     r0,r0
00031c  4684              MOV      r12,r0
00031e  1ead              SUBS     r5,r5,#2
000320  7989              LDRB     r1,[r1,#6]  ; gCompsInFrame
000322  2000              MOVS     r0,#0
000324  b2ad              UXTH     r5,r5
000326  2900              CMP      r1,#0
000328  d907              BLS      |L7.826|
00032a  4a37              LDR      r2,|L7.1032|
                  |L7.812|
00032c  5c13              LDRB     r3,[r2,r0]
00032e  42b3              CMP      r3,r6
000330  d003              BEQ      |L7.826|
000332  1c40              ADDS     r0,r0,#1
000334  b2c0              UXTB     r0,r0
000336  4288              CMP      r0,r1
000338  d3f8              BCC      |L7.812|
                  |L7.826|
00033a  4a31              LDR      r2,|L7.1024|
00033c  4288              CMP      r0,r1
00033e  d302              BCC      |L7.838|
000340  200f              MOVS     r0,#0xf
                  |L7.834|
000342  e09e              B        |L7.1154|
                  |L7.836|
000344  e0a5              B        |L7.1170|
                  |L7.838|
000346  4934              LDR      r1,|L7.1048|
000348  55c8              STRB     r0,[r1,r7]
00034a  4661              MOV      r1,r12
00034c  090b              LSRS     r3,r1,#4
00034e  4933              LDR      r1,|L7.1052|
000350  1c7f              ADDS     r7,r7,#1
000352  540b              STRB     r3,[r1,r0]
000354  4661              MOV      r1,r12
000356  070b              LSLS     r3,r1,#28
000358  4931              LDR      r1,|L7.1056|
00035a  0f1b              LSRS     r3,r3,#28
00035c  540b              STRB     r3,[r1,r0]
00035e  79d0              LDRB     r0,[r2,#7]  ; gCompsInScan
000360  b2ff              UXTB     r7,r7
000362  4287              CMP      r7,r0
000364  d3cf              BCC      |L7.774|
                  |L7.870|
000366  2100              MOVS     r1,#0
000368  2008              MOVS     r0,#8
00036a  f7fffffe          BL       getBits
00036e  2100              MOVS     r1,#0
000370  2008              MOVS     r0,#8
000372  f7fffffe          BL       getBits
000376  2100              MOVS     r1,#0
000378  2004              MOVS     r0,#4
00037a  f7fffffe          BL       getBits
00037e  2100              MOVS     r1,#0
000380  2004              MOVS     r0,#4
000382  f7fffffe          BL       getBits
000386  1eed              SUBS     r5,r5,#3
000388  042d              LSLS     r5,r5,#16
00038a  0c2d              LSRS     r5,r5,#16
00038c  d007              BEQ      |L7.926|
                  |L7.910|
00038e  2100              MOVS     r1,#0
000390  2008              MOVS     r0,#8
000392  f7fffffe          BL       getBits
000396  1e6d              SUBS     r5,r5,#1
000398  042d              LSLS     r5,r5,#16
00039a  0c2d              LSRS     r5,r5,#16
00039c  d1f7              BNE      |L7.910|
                  |L7.926|
00039e  9801              LDR      r0,[sp,#4]
0003a0  2800              CMP      r0,#0
0003a2  d193              BNE      |L7.716|
0003a4  4816              LDR      r0,|L7.1024|
0003a6  2200              MOVS     r2,#0
0003a8  79c1              LDRB     r1,[r0,#7]  ; gCompsInScan
0003aa  2900              CMP      r1,#0
0003ac  d916              BLS      |L7.988|
0003ae  7803              LDRB     r3,[r0,#0]            ;2312
                  |L7.944|
0003b0  4819              LDR      r0,|L7.1048|
0003b2  4d1a              LDR      r5,|L7.1052|
0003b4  5c80              LDRB     r0,[r0,r2]            ;2312
0003b6  2701              MOVS     r7,#1                 ;2312
0003b8  5c2e              LDRB     r6,[r5,r0]            ;2312
0003ba  1ced              ADDS     r5,r5,#3              ;2312
0003bc  5c28              LDRB     r0,[r5,r0]            ;2312
0003be  1c80              ADDS     r0,r0,#2              ;2312
0003c0  b2c5              UXTB     r5,r0                 ;2312
0003c2  4638              MOV      r0,r7                 ;2312
0003c4  40b0              LSLS     r0,r0,r6              ;2312
0003c6  4218              TST      r0,r3                 ;2312
0003c8  d002              BEQ      |L7.976|
0003ca  40af              LSLS     r7,r7,r5              ;2312
0003cc  421f              TST      r7,r3                 ;2312
0003ce  d101              BNE      |L7.980|
                  |L7.976|
0003d0  2018              MOVS     r0,#0x18              ;2312
0003d2  e056              B        |L7.1154|
                  |L7.980|
0003d4  1c52              ADDS     r2,r2,#1              ;2312
0003d6  b2d2              UXTB     r2,r2                 ;2312
0003d8  428a              CMP      r2,r1                 ;2312
0003da  d3e9              BCC      |L7.944|
                  |L7.988|
0003dc  2000              MOVS     r0,#0                 ;2312
0003de  4f08              LDR      r7,|L7.1024|
0003e0  2900              CMP      r1,#0                 ;2312
0003e2  d923              BLS      |L7.1068|
0003e4  4d0a              LDR      r5,|L7.1040|
0003e6  787a              LDRB     r2,[r7,#1]            ;2312
0003e8  1cee              ADDS     r6,r5,#3              ;2312
                  |L7.1002|
0003ea  5c33              LDRB     r3,[r6,r0]            ;2312
0003ec  5ceb              LDRB     r3,[r5,r3]            ;2312
0003ee  2b00              CMP      r3,#0                 ;2312
0003f0  d001              BEQ      |L7.1014|
0003f2  2302              MOVS     r3,#2                 ;2312
0003f4  e000              B        |L7.1016|
                  |L7.1014|
0003f6  2301              MOVS     r3,#1                 ;2312
                  |L7.1016|
0003f8  421a              TST      r2,r3                 ;2312
0003fa  d113              BNE      |L7.1060|
0003fc  2017              MOVS     r0,#0x17              ;2312
0003fe  e040              B        |L7.1154|
                  |L7.1024|
                          DCD      ||.data||
                  |L7.1028|
                          DCD      ||.data||+0x26
                  |L7.1032|
                          DCD      ||.data||+0x20
                  |L7.1036|
                          DCD      ||.data||+0x23
                  |L7.1040|
                          DCD      ||.data||+0x29
                  |L7.1044|
                          DCD      ||.data||+0x4a
                  |L7.1048|
                          DCD      ||.data||+0x2c
                  |L7.1052|
                          DCD      ||.data||+0x2f
                  |L7.1056|
                          DCD      ||.data||+0x32
                  |L7.1060|
000424  1c40              ADDS     r0,r0,#1              ;2312
000426  b2c0              UXTB     r0,r0                 ;2312
000428  4288              CMP      r0,r1                 ;2312
00042a  d3de              BCC      |L7.1002|
                  |L7.1068|
00042c  4827              LDR      r0,|L7.1228|
00042e  2500              MOVS     r5,#0                 ;2312
000430  8005              STRH     r5,[r0,#0]            ;2312
000432  8045              STRH     r5,[r0,#2]            ;2312
000434  8085              STRH     r5,[r0,#4]            ;2312
000436  8ab8              LDRH     r0,[r7,#0x14]         ;2312  ; gRestartInterval
000438  2800              CMP      r0,#0                 ;2312
00043a  d001              BEQ      |L7.1088|
00043c  8338              STRH     r0,[r7,#0x18]         ;2312
00043e  82fd              STRH     r5,[r7,#0x16]         ;2312
                  |L7.1088|
000440  7978              LDRB     r0,[r7,#5]            ;2312  ; gBitsLeft
000442  4923              LDR      r1,|L7.1232|
000444  2800              CMP      r0,#0                 ;2312
000446  d008              BEQ      |L7.1114|
000448  78fa              LDRB     r2,[r7,#3]            ;2312  ; gInBufOfs
00044a  7bb8              LDRB     r0,[r7,#0xe]          ;2312  ; gBitBuf
00044c  1e52              SUBS     r2,r2,#1              ;2312
00044e  b2d2              UXTB     r2,r2                 ;2312
000450  70fa              STRB     r2,[r7,#3]            ;2312
000452  5488              STRB     r0,[r1,r2]            ;2312
000454  7938              LDRB     r0,[r7,#4]            ;2312  ; gInBufLeft
000456  1c40              ADDS     r0,r0,#1              ;2312
000458  7138              STRB     r0,[r7,#4]            ;2312
                  |L7.1114|
00045a  78fa              LDRB     r2,[r7,#3]            ;2312  ; gInBufOfs
00045c  89f8              LDRH     r0,[r7,#0xe]          ;2312  ; gBitBuf
00045e  1e52              SUBS     r2,r2,#1              ;2312
000460  b2d2              UXTB     r2,r2                 ;2312
000462  0a00              LSRS     r0,r0,#8              ;2312
000464  70fa              STRB     r2,[r7,#3]            ;2312
000466  5488              STRB     r0,[r1,r2]            ;2312
000468  7938              LDRB     r0,[r7,#4]            ;2312  ; gInBufLeft
00046a  2101              MOVS     r1,#1                 ;2312
00046c  1c40              ADDS     r0,r0,#1              ;2312
00046e  7138              STRB     r0,[r7,#4]            ;2312
000470  2008              MOVS     r0,#8                 ;2312
000472  7178              STRB     r0,[r7,#5]            ;2312
000474  f7fffffe          BL       getBits
000478  2101              MOVS     r1,#1                 ;2312
00047a  2008              MOVS     r0,#8                 ;2312
00047c  f7fffffe          BL       getBits
000480  4628              MOV      r0,r5                 ;2312
                  |L7.1154|
000482  4914              LDR      r1,|L7.1236|
000484  4603              MOV      r3,r0                 ;2330
000486  7b0a              LDRB     r2,[r1,#0xc]          ;2330  ; gCallbackStatus
000488  4313              ORRS     r3,r3,r2              ;2330
00048a  d005              BEQ      |L7.1176|
00048c  2a00              CMP      r2,#0                 ;2331
00048e  d100              BNE      |L7.1170|
000490  e6e8              B        |L7.612|
                  |L7.1170|
000492  4610              MOV      r0,r2                 ;2331
000494  b003              ADD      sp,sp,#0xc
000496  bdf0              POP      {r4-r7,pc}
                  |L7.1176|
000498  8a08              LDRH     r0,[r1,#0x10]         ;2333  ; gImageXSize
00049a  6020              STR      r0,[r4,#0]            ;2333
00049c  8a48              LDRH     r0,[r1,#0x12]         ;2333  ; gImageYSize
00049e  6060              STR      r0,[r4,#4]            ;2333
0004a0  7988              LDRB     r0,[r1,#6]            ;2333  ; gCompsInFrame
0004a2  60a0              STR      r0,[r4,#8]            ;2334
0004a4  7a08              LDRB     r0,[r1,#8]            ;2334  ; gScanType
0004a6  7520              STRB     r0,[r4,#0x14]         ;2334
0004a8  8b48              LDRH     r0,[r1,#0x1a]         ;2335  ; gMaxMCUSPerRow
0004aa  60e0              STR      r0,[r4,#0xc]          ;2335
0004ac  8b88              LDRH     r0,[r1,#0x1c]         ;2335  ; gMaxMCUSPerCol
0004ae  6120              STR      r0,[r4,#0x10]         ;2336
0004b0  7a88              LDRB     r0,[r1,#0xa]          ;2336  ; gMaxMCUXSize
0004b2  61a0              STR      r0,[r4,#0x18]         ;2336
0004b4  7ac8              LDRB     r0,[r1,#0xb]          ;2336  ; gMaxMCUYSize
0004b6  61e0              STR      r0,[r4,#0x1c]         ;2337
0004b8  4807              LDR      r0,|L7.1240|
0004ba  6220              STR      r0,[r4,#0x20]         ;2337
0004bc  4807              LDR      r0,|L7.1244|
0004be  6260              STR      r0,[r4,#0x24]         ;2337
0004c0  4807              LDR      r0,|L7.1248|
0004c2  62a0              STR      r0,[r4,#0x28]         ;2339
0004c4  2000              MOVS     r0,#0                 ;2339
0004c6  b003              ADD      sp,sp,#0xc
0004c8  bdf0              POP      {r4-r7,pc}
                          ENDP

0004ca  0000              DCW      0x0000
                  |L7.1228|
                          DCD      ||.data||+0x44
                  |L7.1232|
                          DCD      ||.bss||+0x7e0
                  |L7.1236|
                          DCD      ||.data||
                  |L7.1240|
                          DCD      ||.bss||+0x80
                  |L7.1244|
                          DCD      ||.bss||+0x180
                  |L7.1248|
                          DCD      ||.bss||+0x280

                          AREA ||i.pjpeg_decode_mcu||, CODE, READONLY, ALIGN=2

                  pjpeg_decode_mcu PROC
;;;2282   //------------------------------------------------------------------------------
;;;2283   unsigned char pjpeg_decode_mcu(void)
000000  b510              PUSH     {r4,lr}
;;;2284   {
;;;2285      uint8 status;
;;;2286      
;;;2287      if (gCallbackStatus)
000002  4c0c              LDR      r4,|L8.52|
000004  7b20              LDRB     r0,[r4,#0xc]  ; gCallbackStatus
000006  2800              CMP      r0,#0
000008  d10c              BNE      |L8.36|
;;;2288         return gCallbackStatus;
;;;2289      
;;;2290      if (!gNumMCUSRemaining)
00000a  8be0              LDRH     r0,[r4,#0x1e]  ; gNumMCUSRemaining
00000c  2800              CMP      r0,#0
00000e  d00a              BEQ      |L8.38|
;;;2291         return PJPG_NO_MORE_BLOCKS;
;;;2292         
;;;2293      status = decodeNextMCU();
000010  f7fffffe          BL       decodeNextMCU
000014  4601              MOV      r1,r0
;;;2294      if ((status) || (gCallbackStatus))
000016  7b20              LDRB     r0,[r4,#0xc]  ; gCallbackStatus
000018  460a              MOV      r2,r1
00001a  4302              ORRS     r2,r2,r0
00001c  d005              BEQ      |L8.42|
;;;2295         return gCallbackStatus ? gCallbackStatus : status;
00001e  2800              CMP      r0,#0
000020  d100              BNE      |L8.36|
000022  4608              MOV      r0,r1
                  |L8.36|
;;;2296         
;;;2297      gNumMCUSRemaining--;
;;;2298      
;;;2299      return 0;
;;;2300   }
000024  bd10              POP      {r4,pc}
                  |L8.38|
000026  2001              MOVS     r0,#1                 ;2291
000028  bd10              POP      {r4,pc}
                  |L8.42|
00002a  8be0              LDRH     r0,[r4,#0x1e]         ;2297  ; gNumMCUSRemaining
00002c  1e40              SUBS     r0,r0,#1              ;2297
00002e  83e0              STRH     r0,[r4,#0x1e]         ;2297
000030  2000              MOVS     r0,#0                 ;2299
000032  bd10              POP      {r4,pc}
;;;2301   //------------------------------------------------------------------------------
                          ENDP

                  |L8.52|
                          DCD      ||.data||

                          AREA ||i.processMarkers||, CODE, READONLY, ALIGN=2

                  processMarkers PROC
;;;795    // encountered.
;;;796    static uint8 processMarkers(uint8* pMarker)
000000  b5f1              PUSH     {r0,r4-r7,lr}
;;;797    {
000002  b08c              SUB      sp,sp,#0x30
                  |L9.4|
000004  2100              MOVS     r1,#0
000006  2008              MOVS     r0,#8
000008  f7fffffe          BL       getBits
00000c  b2c0              UXTB     r0,r0
00000e  28ff              CMP      r0,#0xff
000010  d1f8              BNE      |L9.4|
                  |L9.18|
000012  2100              MOVS     r1,#0
000014  2008              MOVS     r0,#8
000016  f7fffffe          BL       getBits
00001a  b2c0              UXTB     r0,r0
00001c  28ff              CMP      r0,#0xff
00001e  d0f8              BEQ      |L9.18|
000020  2800              CMP      r0,#0
000022  d0ef              BEQ      |L9.4|
;;;798       for ( ; ; )
;;;799       {
;;;800          uint8 c = nextMarker();
;;;801    
;;;802          switch (c)
000024  28ce              CMP      r0,#0xce
000026  d032              BEQ      |L9.142|
000028  dc20              BGT      |L9.108|
00002a  28c6              CMP      r0,#0xc6
00002c  d02f              BEQ      |L9.142|
00002e  dc10              BGT      |L9.82|
000030  28c2              CMP      r0,#0xc2
000032  d02c              BEQ      |L9.142|
000034  dc06              BGT      |L9.68|
000036  2801              CMP      r0,#1
000038  d079              BEQ      |L9.302|
00003a  28c0              CMP      r0,#0xc0
00003c  d027              BEQ      |L9.142|
00003e  28c1              CMP      r0,#0xc1
000040  d176              BNE      |L9.304|
000042  e024              B        |L9.142|
                  |L9.68|
000044  28c3              CMP      r0,#0xc3
000046  d022              BEQ      |L9.142|
000048  28c4              CMP      r0,#0xc4
00004a  d025              BEQ      |L9.152|
00004c  28c5              CMP      r0,#0xc5
00004e  d16f              BNE      |L9.304|
000050  e01d              B        |L9.142|
                  |L9.82|
000052  4601              MOV      r1,r0
000054  39c7              SUBS     r1,r1,#0xc7
000056  2907              CMP      r1,#7
000058  d26a              BCS      |L9.304|
00005a  000a              MOVS     r2,r1
00005c  447a              ADD      r2,r2,pc
00005e  7912              LDRB     r2,[r2,#4]
000060  1892              ADDS     r2,r2,r2
000062  4497              ADD      pc,pc,r2
000064  14641414          DCB      0x14,0x64,0x14,0x14
000068  14b61400          DCB      0x14,0xb6,0x14,0x00
                  |L9.108|
00006c  4601              MOV      r1,r0
00006e  39cf              SUBS     r1,r1,#0xcf
000070  290f              CMP      r1,#0xf
000072  d25d              BCS      |L9.304|
000074  000a              MOVS     r2,r1
000076  447a              ADD      r2,r2,pc
000078  7912              LDRB     r2,[r2,#4]
00007a  1892              ADDS     r2,r2,r2
00007c  4497              ADD      pc,pc,r2
00007e  0757              DCB      0x07,0x57
000080  57575757          DCB      0x57,0x57,0x57,0x57
000084  57575707          DCB      0x57,0x57,0x57,0x07
000088  0707ac58          DCB      0x07,0x07,0xac,0x58
00008c  fe00              DCB      0xfe,0x00
                  |L9.142|
;;;803          {
;;;804             case M_SOF0:
;;;805             case M_SOF1:
;;;806             case M_SOF2:
;;;807             case M_SOF3:
;;;808             case M_SOF5:
;;;809             case M_SOF6:
;;;810             case M_SOF7:
;;;811             //      case M_JPG:
;;;812             case M_SOF9:
;;;813             case M_SOF10:
;;;814             case M_SOF11:
;;;815             case M_SOF13:
;;;816             case M_SOF14:
;;;817             case M_SOF15:
;;;818             case M_SOI:
;;;819             case M_EOI:
;;;820             case M_SOS:
;;;821             {
;;;822                *pMarker = c;
00008e  990c              LDR      r1,[sp,#0x30]
000090  7008              STRB     r0,[r1,#0]
;;;823                return 0;
000092  2000              MOVS     r0,#0
;;;824             }
;;;825             case M_DHT:
;;;826             {
;;;827                readDHTMarker();
;;;828                break;
;;;829             }
;;;830             // Sorry, no arithmetic support at this time. Dumb patents!
;;;831             case M_DAC:
;;;832             {
;;;833                return PJPG_NO_ARITHMITIC_SUPPORT;
;;;834             }
;;;835             case M_DQT:
;;;836             {
;;;837                readDQTMarker();
;;;838                break;
;;;839             }
;;;840             case M_DRI:
;;;841             {
;;;842                readDRIMarker();
;;;843                break;
;;;844             }
;;;845             //case M_APP0:  /* no need to read the JFIF marker */
;;;846    
;;;847             case M_JPG:
;;;848             case M_RST0:    /* no parameters */
;;;849             case M_RST1:
;;;850             case M_RST2:
;;;851             case M_RST3:
;;;852             case M_RST4:
;;;853             case M_RST5:
;;;854             case M_RST6:
;;;855             case M_RST7:
;;;856             case M_TEM:
;;;857             {
;;;858                return PJPG_UNEXPECTED_MARKER;
;;;859             }
;;;860             default:    /* must be DNL, DHP, EXP, APPn, JPGn, COM, or RESn or APP0 */
;;;861             {
;;;862                skipVariableMarker();
;;;863                break;
;;;864             }
;;;865          }
;;;866       }
;;;867    //   return 0;
;;;868    }
000094  b00d              ADD      sp,sp,#0x34
000096  bdf0              POP      {r4-r7,pc}
                  |L9.152|
000098  2100              MOVS     r1,#0
00009a  2010              MOVS     r0,#0x10
00009c  f7fffffe          BL       getBits
0000a0  2802              CMP      r0,#2
                  |L9.162|
0000a2  d3af              BCC      |L9.4|
0000a4  1e80              SUBS     r0,r0,#2
0000a6  0400              LSLS     r0,r0,#16
0000a8  0c00              LSRS     r0,r0,#16
0000aa  9004              STR      r0,[sp,#0x10]
0000ac  d0aa              BEQ      |L9.4|
                  |L9.174|
0000ae  2100              MOVS     r1,#0
0000b0  2008              MOVS     r0,#8
0000b2  f7fffffe          BL       getBits
0000b6  b2c0              UXTB     r0,r0
0000b8  0701              LSLS     r1,r0,#28
0000ba  0f09              LSRS     r1,r1,#28
0000bc  2901              CMP      r1,#1
0000be  d8a1              BHI      |L9.4|
0000c0  0901              LSRS     r1,r0,#4
0000c2  0109              LSLS     r1,r1,#4
0000c4  2910              CMP      r1,#0x10
0000c6  d89d              BHI      |L9.4|
0000c8  08c1              LSRS     r1,r0,#3
0000ca  2202              MOVS     r2,#2
0000cc  07c0              LSLS     r0,r0,#31
0000ce  4011              ANDS     r1,r1,r2
0000d0  0fc0              LSRS     r0,r0,#31
0000d2  1808              ADDS     r0,r1,r0
0000d4  900a              STR      r0,[sp,#0x28]
0000d6  d02c              BEQ      |L9.306|
0000d8  2801              CMP      r0,#1
0000da  d02e              BEQ      |L9.314|
0000dc  2802              CMP      r0,#2
0000de  d02e              BEQ      |L9.318|
0000e0  2803              CMP      r0,#3
0000e2  d02e              BEQ      |L9.322|
0000e4  2000              MOVS     r0,#0
                  |L9.230|
0000e6  9005              STR      r0,[sp,#0x14]
0000e8  980a              LDR      r0,[sp,#0x28]
0000ea  2801              CMP      r0,#1
0000ec  d02b              BEQ      |L9.326|
0000ee  2802              CMP      r0,#2
0000f0  d02b              BEQ      |L9.330|
0000f2  2803              CMP      r0,#3
0000f4  d02b              BEQ      |L9.334|
0000f6  2600              MOVS     r6,#0
                  |L9.248|
0000f8  990a              LDR      r1,[sp,#0x28]
0000fa  2001              MOVS     r0,#1
0000fc  4088              LSLS     r0,r0,r1
0000fe  4976              LDR      r1,|L9.728|
000100  af06              ADD      r7,sp,#0x18
000102  780a              LDRB     r2,[r1,#0]  ; gValidHuffTables
000104  4310              ORRS     r0,r0,r2
000106  2400              MOVS     r4,#0
000108  7008              STRB     r0,[r1,#0]
00010a  4625              MOV      r5,r4
                  |L9.268|
00010c  2100              MOVS     r1,#0
00010e  2008              MOVS     r0,#8
000110  f7fffffe          BL       getBits
000114  b2c0              UXTB     r0,r0
000116  5578              STRB     r0,[r7,r5]
000118  1820              ADDS     r0,r4,r0
00011a  1c6d              ADDS     r5,r5,#1
00011c  b2ed              UXTB     r5,r5
00011e  b284              UXTH     r4,r0
000120  2d0f              CMP      r5,#0xf
000122  d9f3              BLS      |L9.268|
000124  980a              LDR      r0,[sp,#0x28]
000126  2802              CMP      r0,#2
000128  d213              BCS      |L9.338|
00012a  200c              MOVS     r0,#0xc
00012c  e012              B        |L9.340|
                  |L9.302|
00012e  e0bc              B        |L9.682|
                  |L9.304|
000130  e0be              B        |L9.688|
                  |L9.306|
000132  486a              LDR      r0,|L9.732|
000134  4e6a              LDR      r6,|L9.736|
000136  9005              STR      r0,[sp,#0x14]
000138  e7de              B        |L9.248|
                  |L9.314|
00013a  486a              LDR      r0,|L9.740|
00013c  e7d3              B        |L9.230|
                  |L9.318|
00013e  486a              LDR      r0,|L9.744|
000140  e7d1              B        |L9.230|
                  |L9.322|
000142  486a              LDR      r0,|L9.748|
000144  e7cf              B        |L9.230|
                  |L9.326|
000146  4e6a              LDR      r6,|L9.752|
000148  e7d6              B        |L9.248|
                  |L9.330|
00014a  4e6a              LDR      r6,|L9.756|
00014c  e7d4              B        |L9.248|
                  |L9.334|
00014e  4e6a              LDR      r6,|L9.760|
000150  e7d2              B        |L9.248|
                  |L9.338|
000152  20ff              MOVS     r0,#0xff
                  |L9.340|
000154  42a0              CMP      r0,r4
000156  d3a4              BCC      |L9.162|
000158  2500              MOVS     r5,#0
00015a  2c00              CMP      r4,#0
00015c  d908              BLS      |L9.368|
                  |L9.350|
00015e  2100              MOVS     r1,#0
000160  2008              MOVS     r0,#8
000162  f7fffffe          BL       getBits
000166  5570              STRB     r0,[r6,r5]
000168  1c6d              ADDS     r5,r5,#1
00016a  b2ed              UXTB     r5,r5
00016c  42a5              CMP      r5,r4
00016e  d3f6              BCC      |L9.350|
                  |L9.368|
000170  3411              ADDS     r4,r4,#0x11
000172  9904              LDR      r1,[sp,#0x10]
000174  b2a0              UXTH     r0,r4
000176  4281              CMP      r1,r0
000178  d393              BCC      |L9.162|
00017a  1a08              SUBS     r0,r1,r0
00017c  b280              UXTH     r0,r0
00017e  9004              STR      r0,[sp,#0x10]
000180  2000              MOVS     r0,#0
000182  9905              LDR      r1,[sp,#0x14]
000184  ae06              ADD      r6,sp,#0x18
000186  4604              MOV      r4,r0
000188  4602              MOV      r2,r0
                  |L9.394|
00018a  5c33              LDRB     r3,[r6,r0]
00018c  2b00              CMP      r3,#0
00018e  d016              BEQ      |L9.446|
000190  0045              LSLS     r5,r0,#1
000192  534a              STRH     r2,[r1,r5]
000194  18d7              ADDS     r7,r2,r3
000196  1e7a              SUBS     r2,r7,#1
000198  186d              ADDS     r5,r5,r1
00019a  842a              STRH     r2,[r5,#0x20]
00019c  180a              ADDS     r2,r1,r0
00019e  3240              ADDS     r2,r2,#0x40
0001a0  7014              STRB     r4,[r2,#0]
0001a2  18e2              ADDS     r2,r4,r3
0001a4  b2d4              UXTB     r4,r2
0001a6  b2ba              UXTH     r2,r7
                  |L9.424|
0001a8  0452              LSLS     r2,r2,#17
0001aa  1c40              ADDS     r0,r0,#1
0001ac  0c12              LSRS     r2,r2,#16
0001ae  b2c0              UXTB     r0,r0
0001b0  280f              CMP      r0,#0xf
0001b2  d9ea              BLS      |L9.394|
0001b4  9804              LDR      r0,[sp,#0x10]
0001b6  2800              CMP      r0,#0
0001b8  d000              BEQ      |L9.444|
0001ba  e778              B        |L9.174|
                  |L9.444|
0001bc  e722              B        |L9.4|
                  |L9.446|
0001be  2300              MOVS     r3,#0
0001c0  0045              LSLS     r5,r0,#1
0001c2  534b              STRH     r3,[r1,r5]
0001c4  4f4d              LDR      r7,|L9.764|
0001c6  186d              ADDS     r5,r5,r1
0001c8  842f              STRH     r7,[r5,#0x20]
0001ca  180d              ADDS     r5,r1,r0
0001cc  3540              ADDS     r5,r5,#0x40
0001ce  702b              STRB     r3,[r5,#0]
0001d0  e7ea              B        |L9.424|
0001d2  2011              MOVS     r0,#0x11              ;833
0001d4  b00d              ADD      sp,sp,#0x34
0001d6  bdf0              POP      {r4-r7,pc}
0001d8  2100              MOVS     r1,#0
0001da  2010              MOVS     r0,#0x10
0001dc  f7fffffe          BL       getBits
0001e0  2802              CMP      r0,#2
0001e2  d3eb              BCC      |L9.444|
0001e4  1e80              SUBS     r0,r0,#2
0001e6  0400              LSLS     r0,r0,#16
0001e8  0c00              LSRS     r0,r0,#16
0001ea  9000              STR      r0,[sp,#0]
0001ec  d0e6              BEQ      |L9.444|
                  |L9.494|
0001ee  2100              MOVS     r1,#0
0001f0  2008              MOVS     r0,#8
0001f2  f7fffffe          BL       getBits
0001f6  b2c0              UXTB     r0,r0
0001f8  0707              LSLS     r7,r0,#28
0001fa  0906              LSRS     r6,r0,#4
0001fc  0f3f              LSRS     r7,r7,#28
0001fe  2f01              CMP      r7,#1
000200  d8dc              BHI      |L9.444|
000202  2f00              CMP      r7,#0
000204  d001              BEQ      |L9.522|
000206  2102              MOVS     r1,#2
000208  e000              B        |L9.524|
                  |L9.522|
00020a  2101              MOVS     r1,#1
                  |L9.524|
00020c  4832              LDR      r0,|L9.728|
00020e  7842              LDRB     r2,[r0,#1]  ; gValidQuantTables
000210  4311              ORRS     r1,r1,r2
000212  7041              STRB     r1,[r0,#1]
000214  2500              MOVS     r5,#0
                  |L9.534|
000216  2100              MOVS     r1,#0
000218  2008              MOVS     r0,#8
00021a  f7fffffe          BL       getBits
00021e  4604              MOV      r4,r0
000220  2e00              CMP      r6,#0
000222  d006              BEQ      |L9.562|
000224  2100              MOVS     r1,#0
000226  2008              MOVS     r0,#8
000228  f7fffffe          BL       getBits
00022c  0221              LSLS     r1,r4,#8
00022e  1840              ADDS     r0,r0,r1
000230  b284              UXTH     r4,r0
                  |L9.562|
000232  2f00              CMP      r7,#0
000234  d002              BEQ      |L9.572|
000236  0069              LSLS     r1,r5,#1
000238  4831              LDR      r0,|L9.768|
00023a  e001              B        |L9.576|
                  |L9.572|
00023c  4831              LDR      r0,|L9.772|
00023e  0069              LSLS     r1,r5,#1
                  |L9.576|
000240  1c6d              ADDS     r5,r5,#1
000242  b2ed              UXTB     r5,r5
000244  5244              STRH     r4,[r0,r1]
000246  2d40              CMP      r5,#0x40
000248  d3e5              BCC      |L9.534|
00024a  2f00              CMP      r7,#0
00024c  d001              BEQ      |L9.594|
00024e  482c              LDR      r0,|L9.768|
000250  e000              B        |L9.596|
                  |L9.594|
000252  482c              LDR      r0,|L9.772|
                  |L9.596|
000254  492c              LDR      r1,|L9.776|
000256  2340              MOVS     r3,#0x40
000258  025d              LSLS     r5,r3,#9
                  |L9.602|
00025a  2400              MOVS     r4,#0
00025c  5f04              LDRSH    r4,[r0,r4]
00025e  780a              LDRB     r2,[r1,#0]
000260  1c49              ADDS     r1,r1,#1
000262  4362              MULS     r2,r4,r2
000264  0352              LSLS     r2,r2,#13
000266  1952              ADDS     r2,r2,r5
000268  1412              ASRS     r2,r2,#16
00026a  8002              STRH     r2,[r0,#0]
00026c  1c80              ADDS     r0,r0,#2
00026e  1e5b              SUBS     r3,r3,#1
000270  d1f3              BNE      |L9.602|
000272  2041              MOVS     r0,#0x41
000274  2e00              CMP      r6,#0
000276  d000              BEQ      |L9.634|
000278  2081              MOVS     r0,#0x81
                  |L9.634|
00027a  e000              B        |L9.638|
00027c  e008              B        |L9.656|
                  |L9.638|
00027e  9900              LDR      r1,[sp,#0]
000280  4281              CMP      r1,r0
000282  d39b              BCC      |L9.444|
000284  1a08              SUBS     r0,r1,r0
000286  0400              LSLS     r0,r0,#16
000288  0c00              LSRS     r0,r0,#16
00028a  9000              STR      r0,[sp,#0]
00028c  d1af              BNE      |L9.494|
                  |L9.654|
00028e  e6b9              B        |L9.4|
                  |L9.656|
000290  2100              MOVS     r1,#0
000292  2010              MOVS     r0,#0x10
000294  f7fffffe          BL       getBits
000298  2804              CMP      r0,#4
00029a  d18f              BNE      |L9.444|
00029c  2100              MOVS     r1,#0
00029e  2010              MOVS     r0,#0x10
0002a0  f7fffffe          BL       getBits
0002a4  490c              LDR      r1,|L9.728|
0002a6  8288              STRH     r0,[r1,#0x14]
0002a8  e6ac              B        |L9.4|
                  |L9.682|
0002aa  2012              MOVS     r0,#0x12              ;858
0002ac  b00d              ADD      sp,sp,#0x34
0002ae  bdf0              POP      {r4-r7,pc}
                  |L9.688|
0002b0  2100              MOVS     r1,#0
0002b2  2010              MOVS     r0,#0x10
0002b4  f7fffffe          BL       getBits
0002b8  2802              CMP      r0,#2
0002ba  d3e8              BCC      |L9.654|
0002bc  1e80              SUBS     r0,r0,#2
0002be  0404              LSLS     r4,r0,#16
0002c0  0c24              LSRS     r4,r4,#16
0002c2  d0e4              BEQ      |L9.654|
                  |L9.708|
0002c4  2100              MOVS     r1,#0
0002c6  2008              MOVS     r0,#8
0002c8  f7fffffe          BL       getBits
0002cc  1e64              SUBS     r4,r4,#1
0002ce  0424              LSLS     r4,r4,#16
0002d0  0c24              LSRS     r4,r4,#16
0002d2  d1f7              BNE      |L9.708|
0002d4  e696              B        |L9.4|
;;;869    //------------------------------------------------------------------------------
                          ENDP

0002d6  0000              DCW      0x0000
                  |L9.728|
                          DCD      ||.data||
                  |L9.732|
                          DCD      ||.bss||+0x480
                  |L9.736|
                          DCD      ||.bss||+0x4d0
                  |L9.740|
                          DCD      ||.bss||+0x4e0
                  |L9.744|
                          DCD      ||.bss||+0x540
                  |L9.748|
                          DCD      ||.bss||+0x690
                  |L9.752|
                          DCD      ||.bss||+0x530
                  |L9.756|
                          DCD      ||.bss||+0x590
                  |L9.760|
                          DCD      ||.bss||+0x6e0
                  |L9.764|
                          DCD      0x0000ffff
                  |L9.768|
                          DCD      ||.bss||+0x400
                  |L9.772|
                          DCD      ||.bss||+0x380
                  |L9.776|
                          DCD      ||.constdata||+0x40

                          AREA ||i.upsampleCb||, CODE, READONLY, ALIGN=2

                  upsampleCb PROC
;;;1535   #endif
;;;1536   static void upsampleCb(uint8 srcOfs, uint8 dstOfs)
000000  4a50              LDR      r2,|L10.324|
;;;1537   {
;;;1538      // Cb - affects G and B
;;;1539      uint8 x, y;
;;;1540      int16* pSrc = gCoeffBuf + srcOfs;
000002  0040              LSLS     r0,r0,#1
000004  1883              ADDS     r3,r0,r2
;;;1541      uint8* pDstG = gMCUBufG + dstOfs;
000006  4850              LDR      r0,|L10.328|
000008  b4f0              PUSH     {r4-r7}               ;1537
00000a  1842              ADDS     r2,r0,r1
;;;1542      uint8* pDstB = gMCUBufB + dstOfs;
00000c  484f              LDR      r0,|L10.332|
00000e  1841              ADDS     r1,r0,r1
;;;1543      for (y = 0; y < 4; y++)
000010  2000              MOVS     r0,#0
000012  4684              MOV      r12,r0
                  |L10.20|
;;;1544      {
;;;1545         for (x = 0; x < 4; x++)
000014  2600              MOVS     r6,#0
                  |L10.22|
;;;1546         {
;;;1547            uint8 cb = (uint8)*pSrc++;
000016  781c              LDRB     r4,[r3,#0]
;;;1548            int16 cbG, cbB;
;;;1549   
;;;1550            cbG = ((cb * 88U) >> 8U) - 44U;
000018  2058              MOVS     r0,#0x58
00001a  4360              MULS     r0,r4,r0
00001c  0a00              LSRS     r0,r0,#8
;;;1551            pDstG[0] = subAndClamp(pDstG[0], cbG);
00001e  7815              LDRB     r5,[r2,#0]
000020  382c              SUBS     r0,r0,#0x2c
000022  1a2d              SUBS     r5,r5,r0
000024  b2af              UXTH     r7,r5
000026  1c9b              ADDS     r3,r3,#2
000028  2fff              CMP      r7,#0xff
00002a  d907              BLS      |L10.60|
00002c  2d00              CMP      r5,#0
00002e  da01              BGE      |L10.52|
000030  2500              MOVS     r5,#0
000032  e004              B        |L10.62|
                  |L10.52|
000034  2dff              CMP      r5,#0xff
000036  dd01              BLE      |L10.60|
000038  25ff              MOVS     r5,#0xff
00003a  e000              B        |L10.62|
                  |L10.60|
00003c  b2ed              UXTB     r5,r5
                  |L10.62|
00003e  7015              STRB     r5,[r2,#0]
;;;1552            pDstG[1] = subAndClamp(pDstG[1], cbG);
000040  7855              LDRB     r5,[r2,#1]
000042  1a2d              SUBS     r5,r5,r0
000044  b2af              UXTH     r7,r5
000046  2fff              CMP      r7,#0xff
000048  d907              BLS      |L10.90|
00004a  2d00              CMP      r5,#0
00004c  da01              BGE      |L10.82|
00004e  2500              MOVS     r5,#0
000050  e004              B        |L10.92|
                  |L10.82|
000052  2dff              CMP      r5,#0xff
000054  dd01              BLE      |L10.90|
000056  25ff              MOVS     r5,#0xff
000058  e000              B        |L10.92|
                  |L10.90|
00005a  b2ed              UXTB     r5,r5
                  |L10.92|
00005c  7055              STRB     r5,[r2,#1]
;;;1553            pDstG[8] = subAndClamp(pDstG[8], cbG);
00005e  7a15              LDRB     r5,[r2,#8]
000060  1a2d              SUBS     r5,r5,r0
000062  b2af              UXTH     r7,r5
000064  2fff              CMP      r7,#0xff
000066  d907              BLS      |L10.120|
000068  2d00              CMP      r5,#0
00006a  da01              BGE      |L10.112|
00006c  2500              MOVS     r5,#0
00006e  e004              B        |L10.122|
                  |L10.112|
000070  2dff              CMP      r5,#0xff
000072  dd01              BLE      |L10.120|
000074  25ff              MOVS     r5,#0xff
000076  e000              B        |L10.122|
                  |L10.120|
000078  b2ed              UXTB     r5,r5
                  |L10.122|
00007a  7215              STRB     r5,[r2,#8]
;;;1554            pDstG[9] = subAndClamp(pDstG[9], cbG);
00007c  7a55              LDRB     r5,[r2,#9]
00007e  1a28              SUBS     r0,r5,r0
000080  b285              UXTH     r5,r0
000082  2dff              CMP      r5,#0xff
000084  d907              BLS      |L10.150|
000086  2800              CMP      r0,#0
000088  da01              BGE      |L10.142|
00008a  2000              MOVS     r0,#0
00008c  e004              B        |L10.152|
                  |L10.142|
00008e  28ff              CMP      r0,#0xff
000090  dd01              BLE      |L10.150|
000092  20ff              MOVS     r0,#0xff
000094  e000              B        |L10.152|
                  |L10.150|
000096  b2c0              UXTB     r0,r0
                  |L10.152|
000098  7250              STRB     r0,[r2,#9]
;;;1555   
;;;1556            cbB = (cb + ((cb * 198U) >> 8U)) - 227U;
00009a  20c6              MOVS     r0,#0xc6
00009c  4360              MULS     r0,r4,r0
00009e  0a00              LSRS     r0,r0,#8
0000a0  1900              ADDS     r0,r0,r4
;;;1557            pDstB[0] = addAndClamp(pDstB[0], cbB);
0000a2  780c              LDRB     r4,[r1,#0]
0000a4  38e3              SUBS     r0,r0,#0xe3
0000a6  1824              ADDS     r4,r4,r0
0000a8  b2a5              UXTH     r5,r4
0000aa  2dff              CMP      r5,#0xff
0000ac  d907              BLS      |L10.190|
0000ae  2c00              CMP      r4,#0
0000b0  da01              BGE      |L10.182|
0000b2  2400              MOVS     r4,#0
0000b4  e004              B        |L10.192|
                  |L10.182|
0000b6  2cff              CMP      r4,#0xff
0000b8  dd01              BLE      |L10.190|
0000ba  24ff              MOVS     r4,#0xff
0000bc  e000              B        |L10.192|
                  |L10.190|
0000be  b2e4              UXTB     r4,r4
                  |L10.192|
0000c0  700c              STRB     r4,[r1,#0]
;;;1558            pDstB[1] = addAndClamp(pDstB[1], cbB);
0000c2  784c              LDRB     r4,[r1,#1]
0000c4  1824              ADDS     r4,r4,r0
0000c6  b2a5              UXTH     r5,r4
0000c8  2dff              CMP      r5,#0xff
0000ca  d907              BLS      |L10.220|
0000cc  2c00              CMP      r4,#0
0000ce  da01              BGE      |L10.212|
0000d0  2400              MOVS     r4,#0
0000d2  e004              B        |L10.222|
                  |L10.212|
0000d4  2cff              CMP      r4,#0xff
0000d6  dd01              BLE      |L10.220|
0000d8  24ff              MOVS     r4,#0xff
0000da  e000              B        |L10.222|
                  |L10.220|
0000dc  b2e4              UXTB     r4,r4
                  |L10.222|
0000de  704c              STRB     r4,[r1,#1]
;;;1559            pDstB[8] = addAndClamp(pDstB[8], cbB);
0000e0  7a0c              LDRB     r4,[r1,#8]
0000e2  1824              ADDS     r4,r4,r0
0000e4  b2a5              UXTH     r5,r4
0000e6  2dff              CMP      r5,#0xff
0000e8  d907              BLS      |L10.250|
0000ea  2c00              CMP      r4,#0
0000ec  da01              BGE      |L10.242|
0000ee  2400              MOVS     r4,#0
0000f0  e004              B        |L10.252|
                  |L10.242|
0000f2  2cff              CMP      r4,#0xff
0000f4  dd01              BLE      |L10.250|
0000f6  24ff              MOVS     r4,#0xff
0000f8  e000              B        |L10.252|
                  |L10.250|
0000fa  b2e4              UXTB     r4,r4
                  |L10.252|
0000fc  720c              STRB     r4,[r1,#8]
;;;1560            pDstB[9] = addAndClamp(pDstB[9], cbB);
0000fe  7a4c              LDRB     r4,[r1,#9]
000100  1820              ADDS     r0,r4,r0
000102  b284              UXTH     r4,r0
000104  2cff              CMP      r4,#0xff
000106  d907              BLS      |L10.280|
000108  2800              CMP      r0,#0
00010a  da01              BGE      |L10.272|
00010c  2000              MOVS     r0,#0
00010e  e004              B        |L10.282|
                  |L10.272|
000110  28ff              CMP      r0,#0xff
000112  dd01              BLE      |L10.280|
000114  20ff              MOVS     r0,#0xff
000116  e000              B        |L10.282|
                  |L10.280|
000118  b2c0              UXTB     r0,r0
                  |L10.282|
00011a  7248              STRB     r0,[r1,#9]
00011c  1c76              ADDS     r6,r6,#1
00011e  b2f6              UXTB     r6,r6                 ;1545
000120  1c89              ADDS     r1,r1,#2              ;1545
000122  1c92              ADDS     r2,r2,#2              ;1545
000124  2e04              CMP      r6,#4                 ;1545
000126  d200              BCS      |L10.298|
000128  e775              B        |L10.22|
                  |L10.298|
00012a  4660              MOV      r0,r12                ;1543
00012c  1c40              ADDS     r0,r0,#1              ;1543
00012e  b2c0              UXTB     r0,r0                 ;1543
000130  3108              ADDS     r1,r1,#8              ;1543
000132  3208              ADDS     r2,r2,#8              ;1543
000134  3308              ADDS     r3,r3,#8              ;1543
000136  4684              MOV      r12,r0                ;1543
000138  2804              CMP      r0,#4                 ;1543
00013a  d200              BCS      |L10.318|
00013c  e76a              B        |L10.20|
                  |L10.318|
;;;1561   
;;;1562            pDstG += 2;
;;;1563            pDstB += 2;
;;;1564         }
;;;1565   
;;;1566         pSrc = pSrc - 4 + 8;
;;;1567         pDstG = pDstG - 8 + 16;
;;;1568         pDstB = pDstB - 8 + 16;
;;;1569      }
;;;1570   }   
00013e  bcf0              POP      {r4-r7}
000140  4770              BX       lr
;;;1571   /*----------------------------------------------------------------------------*/
                          ENDP

000142  0000              DCW      0x0000
                  |L10.324|
                          DCD      ||.bss||
                  |L10.328|
                          DCD      ||.bss||+0x180
                  |L10.332|
                          DCD      ||.bss||+0x280

                          AREA ||i.upsampleCbH||, CODE, READONLY, ALIGN=2

                  upsampleCbH PROC
;;;1572   // Cb upsample and accumulate, 4x8 to 8x8
;;;1573   static void upsampleCbH(uint8 srcOfs, uint8 dstOfs)
000000  4a30              LDR      r2,|L11.196|
;;;1574   {
;;;1575      // Cb - affects G and B
;;;1576      uint8 x, y;
;;;1577      int16* pSrc = gCoeffBuf + srcOfs;
000002  0040              LSLS     r0,r0,#1
000004  1883              ADDS     r3,r0,r2
;;;1578      uint8* pDstG = gMCUBufG + dstOfs;
000006  4830              LDR      r0,|L11.200|
000008  b4f0              PUSH     {r4-r7}               ;1574
00000a  1842              ADDS     r2,r0,r1
;;;1579      uint8* pDstB = gMCUBufB + dstOfs;
00000c  482f              LDR      r0,|L11.204|
00000e  1841              ADDS     r1,r0,r1
;;;1580      for (y = 0; y < 8; y++)
000010  2000              MOVS     r0,#0
000012  4684              MOV      r12,r0
                  |L11.20|
;;;1581      {
;;;1582         for (x = 0; x < 4; x++)
000014  2600              MOVS     r6,#0
                  |L11.22|
;;;1583         {
;;;1584            uint8 cb = (uint8)*pSrc++;
000016  781c              LDRB     r4,[r3,#0]
;;;1585            int16 cbG, cbB;
;;;1586   
;;;1587            cbG = ((cb * 88U) >> 8U) - 44U;
000018  2058              MOVS     r0,#0x58
00001a  4360              MULS     r0,r4,r0
00001c  0a00              LSRS     r0,r0,#8
;;;1588            pDstG[0] = subAndClamp(pDstG[0], cbG);
00001e  7815              LDRB     r5,[r2,#0]
000020  382c              SUBS     r0,r0,#0x2c
000022  1a2d              SUBS     r5,r5,r0
000024  b2af              UXTH     r7,r5
000026  1c9b              ADDS     r3,r3,#2
000028  2fff              CMP      r7,#0xff
00002a  d907              BLS      |L11.60|
00002c  2d00              CMP      r5,#0
00002e  da01              BGE      |L11.52|
000030  2500              MOVS     r5,#0
000032  e004              B        |L11.62|
                  |L11.52|
000034  2dff              CMP      r5,#0xff
000036  dd01              BLE      |L11.60|
000038  25ff              MOVS     r5,#0xff
00003a  e000              B        |L11.62|
                  |L11.60|
00003c  b2ed              UXTB     r5,r5
                  |L11.62|
00003e  7015              STRB     r5,[r2,#0]
;;;1589            pDstG[1] = subAndClamp(pDstG[1], cbG);
000040  7855              LDRB     r5,[r2,#1]
000042  1a28              SUBS     r0,r5,r0
000044  b285              UXTH     r5,r0
000046  2dff              CMP      r5,#0xff
000048  d907              BLS      |L11.90|
00004a  2800              CMP      r0,#0
00004c  da01              BGE      |L11.82|
00004e  2000              MOVS     r0,#0
000050  e004              B        |L11.92|
                  |L11.82|
000052  28ff              CMP      r0,#0xff
000054  dd01              BLE      |L11.90|
000056  20ff              MOVS     r0,#0xff
000058  e000              B        |L11.92|
                  |L11.90|
00005a  b2c0              UXTB     r0,r0
                  |L11.92|
00005c  7050              STRB     r0,[r2,#1]
;;;1590   
;;;1591            cbB = (cb + ((cb * 198U) >> 8U)) - 227U;
00005e  20c6              MOVS     r0,#0xc6
000060  4360              MULS     r0,r4,r0
000062  0a00              LSRS     r0,r0,#8
000064  1900              ADDS     r0,r0,r4
;;;1592            pDstB[0] = addAndClamp(pDstB[0], cbB);
000066  780c              LDRB     r4,[r1,#0]
000068  38e3              SUBS     r0,r0,#0xe3
00006a  1824              ADDS     r4,r4,r0
00006c  b2a5              UXTH     r5,r4
00006e  2dff              CMP      r5,#0xff
000070  d907              BLS      |L11.130|
000072  2c00              CMP      r4,#0
000074  da01              BGE      |L11.122|
000076  2400              MOVS     r4,#0
000078  e004              B        |L11.132|
                  |L11.122|
00007a  2cff              CMP      r4,#0xff
00007c  dd01              BLE      |L11.130|
00007e  24ff              MOVS     r4,#0xff
000080  e000              B        |L11.132|
                  |L11.130|
000082  b2e4              UXTB     r4,r4
                  |L11.132|
000084  700c              STRB     r4,[r1,#0]
;;;1593            pDstB[1] = addAndClamp(pDstB[1], cbB);
000086  784c              LDRB     r4,[r1,#1]
000088  1820              ADDS     r0,r4,r0
00008a  b284              UXTH     r4,r0
00008c  2cff              CMP      r4,#0xff
00008e  d907              BLS      |L11.160|
000090  2800              CMP      r0,#0
000092  da01              BGE      |L11.152|
000094  2000              MOVS     r0,#0
000096  e004              B        |L11.162|
                  |L11.152|
000098  28ff              CMP      r0,#0xff
00009a  dd01              BLE      |L11.160|
00009c  20ff              MOVS     r0,#0xff
00009e  e000              B        |L11.162|
                  |L11.160|
0000a0  b2c0              UXTB     r0,r0
                  |L11.162|
0000a2  7048              STRB     r0,[r1,#1]
0000a4  1c76              ADDS     r6,r6,#1
0000a6  b2f6              UXTB     r6,r6                 ;1582
0000a8  1c89              ADDS     r1,r1,#2              ;1582
0000aa  1c92              ADDS     r2,r2,#2              ;1582
0000ac  2e04              CMP      r6,#4                 ;1582
0000ae  d3b2              BCC      |L11.22|
0000b0  4660              MOV      r0,r12                ;1580
0000b2  1c40              ADDS     r0,r0,#1              ;1580
0000b4  b2c0              UXTB     r0,r0                 ;1580
0000b6  3308              ADDS     r3,r3,#8              ;1580
0000b8  4684              MOV      r12,r0                ;1580
0000ba  2808              CMP      r0,#8                 ;1580
0000bc  d3aa              BCC      |L11.20|
;;;1594   
;;;1595            pDstG += 2;
;;;1596            pDstB += 2;
;;;1597         }
;;;1598   
;;;1599         pSrc = pSrc - 4 + 8;
;;;1600      }
;;;1601   }   
0000be  bcf0              POP      {r4-r7}
0000c0  4770              BX       lr
;;;1602   /*----------------------------------------------------------------------------*/
                          ENDP

0000c2  0000              DCW      0x0000
                  |L11.196|
                          DCD      ||.bss||
                  |L11.200|
                          DCD      ||.bss||+0x180
                  |L11.204|
                          DCD      ||.bss||+0x280

                          AREA ||i.upsampleCbV||, CODE, READONLY, ALIGN=2

                  upsampleCbV PROC
;;;1603   // Cb upsample and accumulate, 8x4 to 8x8
;;;1604   static void upsampleCbV(uint8 srcOfs, uint8 dstOfs)
000000  b4f0              PUSH     {r4-r7}
;;;1605   {
;;;1606      // Cb - affects G and B
;;;1607      uint8 x, y;
;;;1608      int16* pSrc = gCoeffBuf + srcOfs;
000002  4a30              LDR      r2,|L12.196|
000004  0040              LSLS     r0,r0,#1
000006  1886              ADDS     r6,r0,r2
;;;1609      uint8* pDstG = gMCUBufG + dstOfs;
000008  482f              LDR      r0,|L12.200|
;;;1610      uint8* pDstB = gMCUBufB + dstOfs;
00000a  4a30              LDR      r2,|L12.204|
00000c  1840              ADDS     r0,r0,r1              ;1609
00000e  1851              ADDS     r1,r2,r1
;;;1611      for (y = 0; y < 4; y++)
000010  2200              MOVS     r2,#0
000012  4694              MOV      r12,r2
                  |L12.20|
;;;1612      {
;;;1613         for (x = 0; x < 8; x++)
000014  2500              MOVS     r5,#0
                  |L12.22|
;;;1614         {
;;;1615            uint8 cb = (uint8)*pSrc++;
000016  7833              LDRB     r3,[r6,#0]
;;;1616            int16 cbG, cbB;
;;;1617   
;;;1618            cbG = ((cb * 88U) >> 8U) - 44U;
000018  2258              MOVS     r2,#0x58
00001a  435a              MULS     r2,r3,r2
00001c  0a12              LSRS     r2,r2,#8
;;;1619            pDstG[0] = subAndClamp(pDstG[0], cbG);
00001e  7804              LDRB     r4,[r0,#0]
000020  3a2c              SUBS     r2,r2,#0x2c
000022  1aa4              SUBS     r4,r4,r2
000024  b2a7              UXTH     r7,r4
000026  1cb6              ADDS     r6,r6,#2
000028  2fff              CMP      r7,#0xff
00002a  d907              BLS      |L12.60|
00002c  2c00              CMP      r4,#0
00002e  da01              BGE      |L12.52|
000030  2400              MOVS     r4,#0
000032  e004              B        |L12.62|
                  |L12.52|
000034  2cff              CMP      r4,#0xff
000036  dd01              BLE      |L12.60|
000038  24ff              MOVS     r4,#0xff
00003a  e000              B        |L12.62|
                  |L12.60|
00003c  b2e4              UXTB     r4,r4
                  |L12.62|
00003e  7004              STRB     r4,[r0,#0]
;;;1620            pDstG[8] = subAndClamp(pDstG[8], cbG);
000040  7a04              LDRB     r4,[r0,#8]
000042  1aa2              SUBS     r2,r4,r2
000044  b294              UXTH     r4,r2
000046  2cff              CMP      r4,#0xff
000048  d907              BLS      |L12.90|
00004a  2a00              CMP      r2,#0
00004c  da01              BGE      |L12.82|
00004e  2200              MOVS     r2,#0
000050  e004              B        |L12.92|
                  |L12.82|
000052  2aff              CMP      r2,#0xff
000054  dd01              BLE      |L12.90|
000056  22ff              MOVS     r2,#0xff
000058  e000              B        |L12.92|
                  |L12.90|
00005a  b2d2              UXTB     r2,r2
                  |L12.92|
00005c  7202              STRB     r2,[r0,#8]
;;;1621   
;;;1622            cbB = (cb + ((cb * 198U) >> 8U)) - 227U;
00005e  22c6              MOVS     r2,#0xc6
000060  435a              MULS     r2,r3,r2
000062  0a12              LSRS     r2,r2,#8
000064  18d2              ADDS     r2,r2,r3
;;;1623            pDstB[0] = addAndClamp(pDstB[0], cbB);
000066  780b              LDRB     r3,[r1,#0]
000068  3ae3              SUBS     r2,r2,#0xe3
00006a  189b              ADDS     r3,r3,r2
00006c  b29c              UXTH     r4,r3
00006e  2cff              CMP      r4,#0xff
000070  d907              BLS      |L12.130|
000072  2b00              CMP      r3,#0
000074  da01              BGE      |L12.122|
000076  2300              MOVS     r3,#0
000078  e004              B        |L12.132|
                  |L12.122|
00007a  2bff              CMP      r3,#0xff
00007c  dd01              BLE      |L12.130|
00007e  23ff              MOVS     r3,#0xff
000080  e000              B        |L12.132|
                  |L12.130|
000082  b2db              UXTB     r3,r3
                  |L12.132|
000084  700b              STRB     r3,[r1,#0]
;;;1624            pDstB[8] = addAndClamp(pDstB[8], cbB);
000086  7a0b              LDRB     r3,[r1,#8]
000088  189a              ADDS     r2,r3,r2
00008a  b293              UXTH     r3,r2
00008c  2bff              CMP      r3,#0xff
00008e  d907              BLS      |L12.160|
000090  2a00              CMP      r2,#0
000092  da01              BGE      |L12.152|
000094  2200              MOVS     r2,#0
000096  e004              B        |L12.162|
                  |L12.152|
000098  2aff              CMP      r2,#0xff
00009a  dd01              BLE      |L12.160|
00009c  22ff              MOVS     r2,#0xff
00009e  e000              B        |L12.162|
                  |L12.160|
0000a0  b2d2              UXTB     r2,r2
                  |L12.162|
0000a2  720a              STRB     r2,[r1,#8]
0000a4  1c6d              ADDS     r5,r5,#1
0000a6  b2ed              UXTB     r5,r5                 ;1613
0000a8  1c40              ADDS     r0,r0,#1              ;1613
0000aa  1c49              ADDS     r1,r1,#1              ;1613
0000ac  2d08              CMP      r5,#8                 ;1613
0000ae  d3b2              BCC      |L12.22|
0000b0  4662              MOV      r2,r12                ;1611
0000b2  1c52              ADDS     r2,r2,#1              ;1611
0000b4  b2d2              UXTB     r2,r2                 ;1611
0000b6  3008              ADDS     r0,r0,#8              ;1611
0000b8  3108              ADDS     r1,r1,#8              ;1611
0000ba  4694              MOV      r12,r2                ;1611
0000bc  2a04              CMP      r2,#4                 ;1611
0000be  d3a9              BCC      |L12.20|
;;;1625   
;;;1626            ++pDstG;
;;;1627            ++pDstB;
;;;1628         }
;;;1629   
;;;1630         pDstG = pDstG - 8 + 16;
;;;1631         pDstB = pDstB - 8 + 16;
;;;1632      }
;;;1633   }   
0000c0  bcf0              POP      {r4-r7}
0000c2  4770              BX       lr
;;;1634   /*----------------------------------------------------------------------------*/
                          ENDP

                  |L12.196|
                          DCD      ||.bss||
                  |L12.200|
                          DCD      ||.bss||+0x180
                  |L12.204|
                          DCD      ||.bss||+0x280

                          AREA ||i.upsampleCr||, CODE, READONLY, ALIGN=2

                  upsampleCr PROC
;;;1647   #endif
;;;1648   static void upsampleCr(uint8 srcOfs, uint8 dstOfs) 
000000  4a50              LDR      r2,|L13.324|
;;;1649   {
;;;1650      // Cr - affects R and G
;;;1651      uint8 x, y;
;;;1652      int16* pSrc = gCoeffBuf + srcOfs;
000002  0040              LSLS     r0,r0,#1
000004  1883              ADDS     r3,r0,r2
;;;1653      uint8* pDstR = gMCUBufR + dstOfs;
000006  4850              LDR      r0,|L13.328|
000008  b4f0              PUSH     {r4-r7}               ;1649
00000a  1842              ADDS     r2,r0,r1
;;;1654      uint8* pDstG = gMCUBufG + dstOfs;
00000c  484f              LDR      r0,|L13.332|
00000e  1841              ADDS     r1,r0,r1
;;;1655      for (y = 0; y < 4; y++)
000010  2000              MOVS     r0,#0
000012  4684              MOV      r12,r0
                  |L13.20|
;;;1656      {
;;;1657         for (x = 0; x < 4; x++)
000014  2600              MOVS     r6,#0
                  |L13.22|
;;;1658         {
;;;1659            uint8 cr = (uint8)*pSrc++;
000016  781c              LDRB     r4,[r3,#0]
;;;1660            int16 crR, crG;
;;;1661   
;;;1662            crR = (cr + ((cr * 103U) >> 8U)) - 179;
000018  2067              MOVS     r0,#0x67
00001a  4360              MULS     r0,r4,r0
00001c  0a00              LSRS     r0,r0,#8
00001e  1900              ADDS     r0,r0,r4
;;;1663            pDstR[0] = addAndClamp(pDstR[0], crR);
000020  7815              LDRB     r5,[r2,#0]
000022  38b3              SUBS     r0,r0,#0xb3
000024  182d              ADDS     r5,r5,r0
000026  b2af              UXTH     r7,r5
000028  1c9b              ADDS     r3,r3,#2
00002a  2fff              CMP      r7,#0xff
00002c  d907              BLS      |L13.62|
00002e  2d00              CMP      r5,#0
000030  da01              BGE      |L13.54|
000032  2500              MOVS     r5,#0
000034  e004              B        |L13.64|
                  |L13.54|
000036  2dff              CMP      r5,#0xff
000038  dd01              BLE      |L13.62|
00003a  25ff              MOVS     r5,#0xff
00003c  e000              B        |L13.64|
                  |L13.62|
00003e  b2ed              UXTB     r5,r5
                  |L13.64|
000040  7015              STRB     r5,[r2,#0]
;;;1664            pDstR[1] = addAndClamp(pDstR[1], crR);
000042  7855              LDRB     r5,[r2,#1]
000044  182d              ADDS     r5,r5,r0
000046  b2af              UXTH     r7,r5
000048  2fff              CMP      r7,#0xff
00004a  d907              BLS      |L13.92|
00004c  2d00              CMP      r5,#0
00004e  da01              BGE      |L13.84|
000050  2500              MOVS     r5,#0
000052  e004              B        |L13.94|
                  |L13.84|
000054  2dff              CMP      r5,#0xff
000056  dd01              BLE      |L13.92|
000058  25ff              MOVS     r5,#0xff
00005a  e000              B        |L13.94|
                  |L13.92|
00005c  b2ed              UXTB     r5,r5
                  |L13.94|
00005e  7055              STRB     r5,[r2,#1]
;;;1665            pDstR[8] = addAndClamp(pDstR[8], crR);
000060  7a15              LDRB     r5,[r2,#8]
000062  182d              ADDS     r5,r5,r0
000064  b2af              UXTH     r7,r5
000066  2fff              CMP      r7,#0xff
000068  d907              BLS      |L13.122|
00006a  2d00              CMP      r5,#0
00006c  da01              BGE      |L13.114|
00006e  2500              MOVS     r5,#0
000070  e004              B        |L13.124|
                  |L13.114|
000072  2dff              CMP      r5,#0xff
000074  dd01              BLE      |L13.122|
000076  25ff              MOVS     r5,#0xff
000078  e000              B        |L13.124|
                  |L13.122|
00007a  b2ed              UXTB     r5,r5
                  |L13.124|
00007c  7215              STRB     r5,[r2,#8]
;;;1666            pDstR[9] = addAndClamp(pDstR[9], crR);
00007e  7a55              LDRB     r5,[r2,#9]
000080  1828              ADDS     r0,r5,r0
000082  b285              UXTH     r5,r0
000084  2dff              CMP      r5,#0xff
000086  d907              BLS      |L13.152|
000088  2800              CMP      r0,#0
00008a  da01              BGE      |L13.144|
00008c  2000              MOVS     r0,#0
00008e  e004              B        |L13.154|
                  |L13.144|
000090  28ff              CMP      r0,#0xff
000092  dd01              BLE      |L13.152|
000094  20ff              MOVS     r0,#0xff
000096  e000              B        |L13.154|
                  |L13.152|
000098  b2c0              UXTB     r0,r0
                  |L13.154|
00009a  7250              STRB     r0,[r2,#9]
;;;1667            
;;;1668            crG = ((cr * 183U) >> 8U) - 91;
00009c  20b7              MOVS     r0,#0xb7
00009e  4344              MULS     r4,r0,r4
0000a0  0a20              LSRS     r0,r4,#8
;;;1669            pDstG[0] = subAndClamp(pDstG[0], crG);
0000a2  780c              LDRB     r4,[r1,#0]
0000a4  385b              SUBS     r0,r0,#0x5b
0000a6  1a24              SUBS     r4,r4,r0
0000a8  b2a5              UXTH     r5,r4
0000aa  2dff              CMP      r5,#0xff
0000ac  d907              BLS      |L13.190|
0000ae  2c00              CMP      r4,#0
0000b0  da01              BGE      |L13.182|
0000b2  2400              MOVS     r4,#0
0000b4  e004              B        |L13.192|
                  |L13.182|
0000b6  2cff              CMP      r4,#0xff
0000b8  dd01              BLE      |L13.190|
0000ba  24ff              MOVS     r4,#0xff
0000bc  e000              B        |L13.192|
                  |L13.190|
0000be  b2e4              UXTB     r4,r4
                  |L13.192|
0000c0  700c              STRB     r4,[r1,#0]
;;;1670            pDstG[1] = subAndClamp(pDstG[1], crG);
0000c2  784c              LDRB     r4,[r1,#1]
0000c4  1a24              SUBS     r4,r4,r0
0000c6  b2a5              UXTH     r5,r4
0000c8  2dff              CMP      r5,#0xff
0000ca  d907              BLS      |L13.220|
0000cc  2c00              CMP      r4,#0
0000ce  da01              BGE      |L13.212|
0000d0  2400              MOVS     r4,#0
0000d2  e004              B        |L13.222|
                  |L13.212|
0000d4  2cff              CMP      r4,#0xff
0000d6  dd01              BLE      |L13.220|
0000d8  24ff              MOVS     r4,#0xff
0000da  e000              B        |L13.222|
                  |L13.220|
0000dc  b2e4              UXTB     r4,r4
                  |L13.222|
0000de  704c              STRB     r4,[r1,#1]
;;;1671            pDstG[8] = subAndClamp(pDstG[8], crG);
0000e0  7a0c              LDRB     r4,[r1,#8]
0000e2  1a24              SUBS     r4,r4,r0
0000e4  b2a5              UXTH     r5,r4
0000e6  2dff              CMP      r5,#0xff
0000e8  d907              BLS      |L13.250|
0000ea  2c00              CMP      r4,#0
0000ec  da01              BGE      |L13.242|
0000ee  2400              MOVS     r4,#0
0000f0  e004              B        |L13.252|
                  |L13.242|
0000f2  2cff              CMP      r4,#0xff
0000f4  dd01              BLE      |L13.250|
0000f6  24ff              MOVS     r4,#0xff
0000f8  e000              B        |L13.252|
                  |L13.250|
0000fa  b2e4              UXTB     r4,r4
                  |L13.252|
0000fc  720c              STRB     r4,[r1,#8]
;;;1672            pDstG[9] = subAndClamp(pDstG[9], crG);
0000fe  7a4c              LDRB     r4,[r1,#9]
000100  1a20              SUBS     r0,r4,r0
000102  b284              UXTH     r4,r0
000104  2cff              CMP      r4,#0xff
000106  d907              BLS      |L13.280|
000108  2800              CMP      r0,#0
00010a  da01              BGE      |L13.272|
00010c  2000              MOVS     r0,#0
00010e  e004              B        |L13.282|
                  |L13.272|
000110  28ff              CMP      r0,#0xff
000112  dd01              BLE      |L13.280|
000114  20ff              MOVS     r0,#0xff
000116  e000              B        |L13.282|
                  |L13.280|
000118  b2c0              UXTB     r0,r0
                  |L13.282|
00011a  7248              STRB     r0,[r1,#9]
00011c  1c76              ADDS     r6,r6,#1
00011e  b2f6              UXTB     r6,r6                 ;1657
000120  1c89              ADDS     r1,r1,#2              ;1657
000122  1c92              ADDS     r2,r2,#2              ;1657
000124  2e04              CMP      r6,#4                 ;1657
000126  d200              BCS      |L13.298|
000128  e775              B        |L13.22|
                  |L13.298|
00012a  4660              MOV      r0,r12                ;1655
00012c  1c40              ADDS     r0,r0,#1              ;1655
00012e  b2c0              UXTB     r0,r0                 ;1655
000130  3108              ADDS     r1,r1,#8              ;1655
000132  3208              ADDS     r2,r2,#8              ;1655
000134  3308              ADDS     r3,r3,#8              ;1655
000136  4684              MOV      r12,r0                ;1655
000138  2804              CMP      r0,#4                 ;1655
00013a  d200              BCS      |L13.318|
00013c  e76a              B        |L13.20|
                  |L13.318|
;;;1673            
;;;1674            pDstR += 2;
;;;1675            pDstG += 2;
;;;1676         }
;;;1677   
;;;1678         pSrc = pSrc - 4 + 8;
;;;1679         pDstR = pDstR - 8 + 16;
;;;1680         pDstG = pDstG - 8 + 16;
;;;1681      }
;;;1682   }   
00013e  bcf0              POP      {r4-r7}
000140  4770              BX       lr
;;;1683   /*----------------------------------------------------------------------------*/
                          ENDP

000142  0000              DCW      0x0000
                  |L13.324|
                          DCD      ||.bss||
                  |L13.328|
                          DCD      ||.bss||+0x80
                  |L13.332|
                          DCD      ||.bss||+0x180

                          AREA ||i.upsampleCrH||, CODE, READONLY, ALIGN=2

                  upsampleCrH PROC
;;;1684   // Cr upsample and accumulate, 4x8 to 8x8
;;;1685   static void upsampleCrH(uint8 srcOfs, uint8 dstOfs)
000000  4a30              LDR      r2,|L14.196|
;;;1686   {
;;;1687      // Cr - affects R and G
;;;1688      uint8 x, y;
;;;1689      int16* pSrc = gCoeffBuf + srcOfs;
000002  0040              LSLS     r0,r0,#1
000004  1883              ADDS     r3,r0,r2
;;;1690      uint8* pDstR = gMCUBufR + dstOfs;
000006  4830              LDR      r0,|L14.200|
000008  b4f0              PUSH     {r4-r7}               ;1686
00000a  1842              ADDS     r2,r0,r1
;;;1691      uint8* pDstG = gMCUBufG + dstOfs;
00000c  482f              LDR      r0,|L14.204|
00000e  1841              ADDS     r1,r0,r1
;;;1692      for (y = 0; y < 8; y++)
000010  2000              MOVS     r0,#0
000012  4684              MOV      r12,r0
                  |L14.20|
;;;1693      {
;;;1694         for (x = 0; x < 4; x++)
000014  2600              MOVS     r6,#0
                  |L14.22|
;;;1695         {
;;;1696            uint8 cr = (uint8)*pSrc++;
000016  781c              LDRB     r4,[r3,#0]
;;;1697            int16 crR, crG;
;;;1698   
;;;1699            crR = (cr + ((cr * 103U) >> 8U)) - 179;
000018  2067              MOVS     r0,#0x67
00001a  4360              MULS     r0,r4,r0
00001c  0a00              LSRS     r0,r0,#8
00001e  1900              ADDS     r0,r0,r4
;;;1700            pDstR[0] = addAndClamp(pDstR[0], crR);
000020  7815              LDRB     r5,[r2,#0]
000022  38b3              SUBS     r0,r0,#0xb3
000024  182d              ADDS     r5,r5,r0
000026  b2af              UXTH     r7,r5
000028  1c9b              ADDS     r3,r3,#2
00002a  2fff              CMP      r7,#0xff
00002c  d907              BLS      |L14.62|
00002e  2d00              CMP      r5,#0
000030  da01              BGE      |L14.54|
000032  2500              MOVS     r5,#0
000034  e004              B        |L14.64|
                  |L14.54|
000036  2dff              CMP      r5,#0xff
000038  dd01              BLE      |L14.62|
00003a  25ff              MOVS     r5,#0xff
00003c  e000              B        |L14.64|
                  |L14.62|
00003e  b2ed              UXTB     r5,r5
                  |L14.64|
000040  7015              STRB     r5,[r2,#0]
;;;1701            pDstR[1] = addAndClamp(pDstR[1], crR);
000042  7855              LDRB     r5,[r2,#1]
000044  1828              ADDS     r0,r5,r0
000046  b285              UXTH     r5,r0
000048  2dff              CMP      r5,#0xff
00004a  d907              BLS      |L14.92|
00004c  2800              CMP      r0,#0
00004e  da01              BGE      |L14.84|
000050  2000              MOVS     r0,#0
000052  e004              B        |L14.94|
                  |L14.84|
000054  28ff              CMP      r0,#0xff
000056  dd01              BLE      |L14.92|
000058  20ff              MOVS     r0,#0xff
00005a  e000              B        |L14.94|
                  |L14.92|
00005c  b2c0              UXTB     r0,r0
                  |L14.94|
00005e  7050              STRB     r0,[r2,#1]
;;;1702            
;;;1703            crG = ((cr * 183U) >> 8U) - 91;
000060  20b7              MOVS     r0,#0xb7
000062  4344              MULS     r4,r0,r4
000064  0a20              LSRS     r0,r4,#8
;;;1704            pDstG[0] = subAndClamp(pDstG[0], crG);
000066  780c              LDRB     r4,[r1,#0]
000068  385b              SUBS     r0,r0,#0x5b
00006a  1a24              SUBS     r4,r4,r0
00006c  b2a5              UXTH     r5,r4
00006e  2dff              CMP      r5,#0xff
000070  d907              BLS      |L14.130|
000072  2c00              CMP      r4,#0
000074  da01              BGE      |L14.122|
000076  2400              MOVS     r4,#0
000078  e004              B        |L14.132|
                  |L14.122|
00007a  2cff              CMP      r4,#0xff
00007c  dd01              BLE      |L14.130|
00007e  24ff              MOVS     r4,#0xff
000080  e000              B        |L14.132|
                  |L14.130|
000082  b2e4              UXTB     r4,r4
                  |L14.132|
000084  700c              STRB     r4,[r1,#0]
;;;1705            pDstG[1] = subAndClamp(pDstG[1], crG);
000086  784c              LDRB     r4,[r1,#1]
000088  1a20              SUBS     r0,r4,r0
00008a  b284              UXTH     r4,r0
00008c  2cff              CMP      r4,#0xff
00008e  d907              BLS      |L14.160|
000090  2800              CMP      r0,#0
000092  da01              BGE      |L14.152|
000094  2000              MOVS     r0,#0
000096  e004              B        |L14.162|
                  |L14.152|
000098  28ff              CMP      r0,#0xff
00009a  dd01              BLE      |L14.160|
00009c  20ff              MOVS     r0,#0xff
00009e  e000              B        |L14.162|
                  |L14.160|
0000a0  b2c0              UXTB     r0,r0
                  |L14.162|
0000a2  7048              STRB     r0,[r1,#1]
0000a4  1c76              ADDS     r6,r6,#1
0000a6  b2f6              UXTB     r6,r6                 ;1694
0000a8  1c89              ADDS     r1,r1,#2              ;1694
0000aa  1c92              ADDS     r2,r2,#2              ;1694
0000ac  2e04              CMP      r6,#4                 ;1694
0000ae  d3b2              BCC      |L14.22|
0000b0  4660              MOV      r0,r12                ;1692
0000b2  1c40              ADDS     r0,r0,#1              ;1692
0000b4  b2c0              UXTB     r0,r0                 ;1692
0000b6  3308              ADDS     r3,r3,#8              ;1692
0000b8  4684              MOV      r12,r0                ;1692
0000ba  2808              CMP      r0,#8                 ;1692
0000bc  d3aa              BCC      |L14.20|
;;;1706            
;;;1707            pDstR += 2;
;;;1708            pDstG += 2;
;;;1709         }
;;;1710   
;;;1711         pSrc = pSrc - 4 + 8;
;;;1712      }
;;;1713   }   
0000be  bcf0              POP      {r4-r7}
0000c0  4770              BX       lr
;;;1714   /*----------------------------------------------------------------------------*/
                          ENDP

0000c2  0000              DCW      0x0000
                  |L14.196|
                          DCD      ||.bss||
                  |L14.200|
                          DCD      ||.bss||+0x80
                  |L14.204|
                          DCD      ||.bss||+0x180

                          AREA ||i.upsampleCrV||, CODE, READONLY, ALIGN=2

                  upsampleCrV PROC
;;;1715   // Cr upsample and accumulate, 8x4 to 8x8
;;;1716   static void upsampleCrV(uint8 srcOfs, uint8 dstOfs)
000000  b4f0              PUSH     {r4-r7}
;;;1717   {
;;;1718      // Cr - affects R and G
;;;1719      uint8 x, y;
;;;1720      int16* pSrc = gCoeffBuf + srcOfs;
000002  4a30              LDR      r2,|L15.196|
000004  0040              LSLS     r0,r0,#1
000006  1886              ADDS     r6,r0,r2
;;;1721      uint8* pDstR = gMCUBufR + dstOfs;
000008  482f              LDR      r0,|L15.200|
;;;1722      uint8* pDstG = gMCUBufG + dstOfs;
00000a  4a30              LDR      r2,|L15.204|
00000c  1840              ADDS     r0,r0,r1              ;1721
00000e  1851              ADDS     r1,r2,r1
;;;1723      for (y = 0; y < 4; y++)
000010  2200              MOVS     r2,#0
000012  4694              MOV      r12,r2
                  |L15.20|
;;;1724      {
;;;1725         for (x = 0; x < 8; x++)
000014  2500              MOVS     r5,#0
                  |L15.22|
;;;1726         {
;;;1727            uint8 cr = (uint8)*pSrc++;
000016  7833              LDRB     r3,[r6,#0]
;;;1728            int16 crR, crG;
;;;1729   
;;;1730            crR = (cr + ((cr * 103U) >> 8U)) - 179;
000018  2267              MOVS     r2,#0x67
00001a  435a              MULS     r2,r3,r2
00001c  0a12              LSRS     r2,r2,#8
00001e  18d2              ADDS     r2,r2,r3
;;;1731            pDstR[0] = addAndClamp(pDstR[0], crR);
000020  7804              LDRB     r4,[r0,#0]
000022  3ab3              SUBS     r2,r2,#0xb3
000024  18a4              ADDS     r4,r4,r2
000026  b2a7              UXTH     r7,r4
000028  1cb6              ADDS     r6,r6,#2
00002a  2fff              CMP      r7,#0xff
00002c  d907              BLS      |L15.62|
00002e  2c00              CMP      r4,#0
000030  da01              BGE      |L15.54|
000032  2400              MOVS     r4,#0
000034  e004              B        |L15.64|
                  |L15.54|
000036  2cff              CMP      r4,#0xff
000038  dd01              BLE      |L15.62|
00003a  24ff              MOVS     r4,#0xff
00003c  e000              B        |L15.64|
                  |L15.62|
00003e  b2e4              UXTB     r4,r4
                  |L15.64|
000040  7004              STRB     r4,[r0,#0]
;;;1732            pDstR[8] = addAndClamp(pDstR[8], crR);
000042  7a04              LDRB     r4,[r0,#8]
000044  18a2              ADDS     r2,r4,r2
000046  b294              UXTH     r4,r2
000048  2cff              CMP      r4,#0xff
00004a  d907              BLS      |L15.92|
00004c  2a00              CMP      r2,#0
00004e  da01              BGE      |L15.84|
000050  2200              MOVS     r2,#0
000052  e004              B        |L15.94|
                  |L15.84|
000054  2aff              CMP      r2,#0xff
000056  dd01              BLE      |L15.92|
000058  22ff              MOVS     r2,#0xff
00005a  e000              B        |L15.94|
                  |L15.92|
00005c  b2d2              UXTB     r2,r2
                  |L15.94|
00005e  7202              STRB     r2,[r0,#8]
;;;1733   
;;;1734            crG = ((cr * 183U) >> 8U) - 91;
000060  22b7              MOVS     r2,#0xb7
000062  4353              MULS     r3,r2,r3
000064  0a1a              LSRS     r2,r3,#8
;;;1735            pDstG[0] = subAndClamp(pDstG[0], crG);
000066  780b              LDRB     r3,[r1,#0]
000068  3a5b              SUBS     r2,r2,#0x5b
00006a  1a9b              SUBS     r3,r3,r2
00006c  b29c              UXTH     r4,r3
00006e  2cff              CMP      r4,#0xff
000070  d907              BLS      |L15.130|
000072  2b00              CMP      r3,#0
000074  da01              BGE      |L15.122|
000076  2300              MOVS     r3,#0
000078  e004              B        |L15.132|
                  |L15.122|
00007a  2bff              CMP      r3,#0xff
00007c  dd01              BLE      |L15.130|
00007e  23ff              MOVS     r3,#0xff
000080  e000              B        |L15.132|
                  |L15.130|
000082  b2db              UXTB     r3,r3
                  |L15.132|
000084  700b              STRB     r3,[r1,#0]
;;;1736            pDstG[8] = subAndClamp(pDstG[8], crG);
000086  7a0b              LDRB     r3,[r1,#8]
000088  1a9a              SUBS     r2,r3,r2
00008a  b293              UXTH     r3,r2
00008c  2bff              CMP      r3,#0xff
00008e  d907              BLS      |L15.160|
000090  2a00              CMP      r2,#0
000092  da01              BGE      |L15.152|
000094  2200              MOVS     r2,#0
000096  e004              B        |L15.162|
                  |L15.152|
000098  2aff              CMP      r2,#0xff
00009a  dd01              BLE      |L15.160|
00009c  22ff              MOVS     r2,#0xff
00009e  e000              B        |L15.162|
                  |L15.160|
0000a0  b2d2              UXTB     r2,r2
                  |L15.162|
0000a2  720a              STRB     r2,[r1,#8]
0000a4  1c6d              ADDS     r5,r5,#1
0000a6  b2ed              UXTB     r5,r5                 ;1725
0000a8  1c40              ADDS     r0,r0,#1              ;1725
0000aa  1c49              ADDS     r1,r1,#1              ;1725
0000ac  2d08              CMP      r5,#8                 ;1725
0000ae  d3b2              BCC      |L15.22|
0000b0  4662              MOV      r2,r12                ;1723
0000b2  1c52              ADDS     r2,r2,#1              ;1723
0000b4  b2d2              UXTB     r2,r2                 ;1723
0000b6  3008              ADDS     r0,r0,#8              ;1723
0000b8  3108              ADDS     r1,r1,#8              ;1723
0000ba  4694              MOV      r12,r2                ;1723
0000bc  2a04              CMP      r2,#4                 ;1723
0000be  d3a9              BCC      |L15.20|
;;;1737   
;;;1738            ++pDstR;
;;;1739            ++pDstG;
;;;1740         }
;;;1741   
;;;1742         pDstR = pDstR - 8 + 16;
;;;1743         pDstG = pDstG - 8 + 16;
;;;1744      }
;;;1745   } 
0000c0  bcf0              POP      {r4-r7}
0000c2  4770              BX       lr
;;;1746   /*----------------------------------------------------------------------------*/
                          ENDP

                  |L15.196|
                          DCD      ||.bss||
                  |L15.200|
                          DCD      ||.bss||+0x80
                  |L15.204|
                          DCD      ||.bss||+0x180

                          AREA ||.bss||, DATA, NOINIT, ALIGN=1

                  gCoeffBuf
                          %        128
                  gMCUBufR
                          %        256
                  gMCUBufG
                          %        256
                  gMCUBufB
                          %        256
                  gQuant0
                          %        128
                  gQuant1
                          %        128
                  gHuffTab0
                          %        80
                  gHuffVal0
                          %        16
                  gHuffTab1
                          %        80
                  gHuffVal1
                          %        16
                  gHuffTab2
                          %        80
                  gHuffVal2
                          %        256
                  gHuffTab3
                          %        80
                  gHuffVal3
                          %        256
                  gInBuf
                          %        256

                          AREA ||.constdata||, DATA, READONLY, ALIGN=0

                  ZAG
000000  00010810          DCB      0x00,0x01,0x08,0x10
000004  0902030a          DCB      0x09,0x02,0x03,0x0a
000008  11182019          DCB      0x11,0x18,0x20,0x19
00000c  120b0405          DCB      0x12,0x0b,0x04,0x05
000010  0c131a21          DCB      0x0c,0x13,0x1a,0x21
000014  28302922          DCB      0x28,0x30,0x29,0x22
000018  1b140d06          DCB      0x1b,0x14,0x0d,0x06
00001c  070e151c          DCB      0x07,0x0e,0x15,0x1c
000020  232a3138          DCB      0x23,0x2a,0x31,0x38
000024  39322b24          DCB      0x39,0x32,0x2b,0x24
000028  1d160f17          DCB      0x1d,0x16,0x0f,0x17
00002c  1e252c33          DCB      0x1e,0x25,0x2c,0x33
000030  3a3b342d          DCB      0x3a,0x3b,0x34,0x2d
000034  261f272e          DCB      0x26,0x1f,0x27,0x2e
000038  353c3d36          DCB      0x35,0x3c,0x3d,0x36
00003c  2f373e3f          DCB      0x2f,0x37,0x3e,0x3f
                  gWinogradQuant
000040  80b2b2a7          DCB      0x80,0xb2,0xb2,0xa7
000044  f6a797e8          DCB      0xf6,0xa7,0x97,0xe8
000048  e89780d1          DCB      0xe8,0x97,0x80,0xd1
00004c  dbd18065          DCB      0xdb,0xd1,0x80,0x65
000050  b2c5c5b2          DCB      0xb2,0xc5,0xc5,0xb2
000054  65458ba7          DCB      0x65,0x45,0x8b,0xa7
000058  b1a78b45          DCB      0xb1,0xa7,0x8b,0x45
00005c  23608397          DCB      0x23,0x60,0x83,0x97
000060  97836023          DCB      0x97,0x83,0x60,0x23
000064  315b7680          DCB      0x31,0x5b,0x76,0x80
000068  765b312e          DCB      0x76,0x5b,0x31,0x2e
00006c  51656551          DCB      0x51,0x65,0x65,0x51
000070  2e2a454f          DCB      0x2e,0x2a,0x45,0x4f
000074  452a2336          DCB      0x45,0x2a,0x23,0x36
000078  36231c25          DCB      0x36,0x23,0x1c,0x25
00007c  1c13130a          DCB      0x1c,0x13,0x13,0x0a

                          AREA ||.data||, DATA, ALIGN=2

                  gValidHuffTables
000000  00                DCB      0x00
                  gValidQuantTables
000001  00                DCB      0x00
                  gTemFlag
000002  00                DCB      0x00
                  gInBufOfs
000003  00                DCB      0x00
                  gInBufLeft
000004  00                DCB      0x00
                  gBitsLeft
000005  00                DCB      0x00
                  gCompsInFrame
000006  00                DCB      0x00
                  gCompsInScan
000007  00                DCB      0x00
                  gScanType
000008  00                DCB      0x00
                  gMaxBlocksPerMCU
000009  00                DCB      0x00
                  gMaxMCUXSize
00000a  00                DCB      0x00
                  gMaxMCUYSize
00000b  00                DCB      0x00
                  gCallbackStatus
00000c  00                DCB      0x00
                  gReduce
00000d  00                DCB      0x00
                  gBitBuf
00000e  0000              DCB      0x00,0x00
                  gImageXSize
000010  0000              DCB      0x00,0x00
                  gImageYSize
000012  0000              DCB      0x00,0x00
                  gRestartInterval
000014  0000              DCB      0x00,0x00
                  gNextRestartNum
000016  0000              DCB      0x00,0x00
                  gRestartsLeft
000018  0000              DCB      0x00,0x00
                  gMaxMCUSPerRow
00001a  0000              DCB      0x00,0x00
                  gMaxMCUSPerCol
00001c  0000              DCB      0x00,0x00
                  gNumMCUSRemaining
00001e  0000              DCB      0x00,0x00
                  gCompIdent
000020  000000            DCB      0x00,0x00,0x00
                  gCompHSamp
000023  00                DCB      0x00
000024  0000              DCB      0x00,0x00
                  gCompVSamp
000026  0000              DCB      0x00,0x00
000028  00                DCB      0x00
                  gCompQuant
000029  000000            DCB      0x00,0x00,0x00
                  gCompList
00002c  000000            DCB      0x00,0x00,0x00
                  gCompDCTab
00002f  00                DCB      0x00
000030  0000              DCB      0x00,0x00
                  gCompACTab
000032  0000              DCB      0x00,0x00
000034  00000000          DCB      0x00,0x00,0x00,0x00
                  huffDecode_ctr
                          DCD      0x00000000
                  g_pNeedBytesCallback
                          DCD      0x00000000
                  g_pCallback_data
                          DCD      0x00000000
                  gLastDC
                          DCD      0x00000000
000048  0000              DCB      0x00,0x00
                  gMCUOrg
00004a  0000              DCB      0x00,0x00
                          DCD      0x00000000
